
bin/kernel.bin:     file format elf32-i386
bin/kernel.bin
architecture: i386, flags 0x00000112:
EXEC_P, HAS_SYMS, D_PAGED
start address 0x00100020


Disassembly of section .text:

00100000 <__code>:
  100000:	02 b0 ad 1b 03 00    	add    dh,BYTE PTR [eax+0x31bad]
  100006:	00 00                	add    BYTE PTR [eax],al
  100008:	fb                   	sti    
  100009:	4f                   	dec    edi
  10000a:	52                   	push   edx
  10000b:	e4 00                	in     al,0x0
  10000d:	00 10                	add    BYTE PTR [eax],dl
	...
  10001b:	00 20                	add    BYTE PTR [eax],ah
  10001d:	00 10                	add    BYTE PTR [eax],dl
	...

00100020 <start>:
  100020:	fa                   	cli    
  100021:	bd 00 10 51 00       	mov    ebp,0x511000
  100026:	89 ec                	mov    esp,ebp
  100028:	e8 08 00 00 00       	call   100035 <enable_a20>
  10002d:	53                   	push   ebx
  10002e:	e8 cc 24 00 00       	call   1024ff <kernel_entry>
  100033:	fa                   	cli    
  100034:	f4                   	hlt    

00100035 <enable_a20>:
  100035:	e4 92                	in     al,0x92
  100037:	0c 02                	or     al,0x2
  100039:	e6 92                	out    0x92,al
  10003b:	c3                   	ret    

0010003c <powd>:
  10003c:	55                   	push   ebp
  10003d:	89 e5                	mov    ebp,esp
  10003f:	83 ec 28             	sub    esp,0x28
  100042:	8b 45 08             	mov    eax,DWORD PTR [ebp+0x8]
  100045:	89 45 e0             	mov    DWORD PTR [ebp-0x20],eax
  100048:	8b 45 0c             	mov    eax,DWORD PTR [ebp+0xc]
  10004b:	89 45 e4             	mov    DWORD PTR [ebp-0x1c],eax
  10004e:	83 7d 10 00          	cmp    DWORD PTR [ebp+0x10],0x0
  100052:	75 04                	jne    100058 <powd+0x1c>
  100054:	d9 e8                	fld1   
  100056:	eb 4d                	jmp    1000a5 <powd+0x69>
  100058:	8b 45 10             	mov    eax,DWORD PTR [ebp+0x10]
  10005b:	89 c2                	mov    edx,eax
  10005d:	c1 ea 1f             	shr    edx,0x1f
  100060:	01 d0                	add    eax,edx
  100062:	d1 f8                	sar    eax,1
  100064:	83 ec 04             	sub    esp,0x4
  100067:	50                   	push   eax
  100068:	ff 75 e4             	push   DWORD PTR [ebp-0x1c]
  10006b:	ff 75 e0             	push   DWORD PTR [ebp-0x20]
  10006e:	e8 c9 ff ff ff       	call   10003c <powd>
  100073:	83 c4 10             	add    esp,0x10
  100076:	dd 5d f0             	fstp   QWORD PTR [ebp-0x10]
  100079:	8b 45 10             	mov    eax,DWORD PTR [ebp+0x10]
  10007c:	83 e0 01             	and    eax,0x1
  10007f:	85 c0                	test   eax,eax
  100081:	75 08                	jne    10008b <powd+0x4f>
  100083:	dd 45 f0             	fld    QWORD PTR [ebp-0x10]
  100086:	dc 4d f0             	fmul   QWORD PTR [ebp-0x10]
  100089:	eb 1a                	jmp    1000a5 <powd+0x69>
  10008b:	83 7d 10 00          	cmp    DWORD PTR [ebp+0x10],0x0
  10008f:	7e 0b                	jle    10009c <powd+0x60>
  100091:	dd 45 e0             	fld    QWORD PTR [ebp-0x20]
  100094:	dc 4d f0             	fmul   QWORD PTR [ebp-0x10]
  100097:	dc 4d f0             	fmul   QWORD PTR [ebp-0x10]
  10009a:	eb 09                	jmp    1000a5 <powd+0x69>
  10009c:	dd 45 f0             	fld    QWORD PTR [ebp-0x10]
  10009f:	dc 4d f0             	fmul   QWORD PTR [ebp-0x10]
  1000a2:	dc 75 e0             	fdiv   QWORD PTR [ebp-0x20]
  1000a5:	c9                   	leave  
  1000a6:	c3                   	ret    

001000a7 <isalnum>:
  1000a7:	55                   	push   ebp
  1000a8:	89 e5                	mov    ebp,esp
  1000aa:	83 7d 08 40          	cmp    DWORD PTR [ebp+0x8],0x40
  1000ae:	7e 0d                	jle    1000bd <isalnum+0x16>
  1000b0:	83 7d 08 5a          	cmp    DWORD PTR [ebp+0x8],0x5a
  1000b4:	7f 07                	jg     1000bd <isalnum+0x16>
  1000b6:	b8 01 00 00 00       	mov    eax,0x1
  1000bb:	eb 2b                	jmp    1000e8 <isalnum+0x41>
  1000bd:	83 7d 08 60          	cmp    DWORD PTR [ebp+0x8],0x60
  1000c1:	7e 0d                	jle    1000d0 <isalnum+0x29>
  1000c3:	83 7d 08 7a          	cmp    DWORD PTR [ebp+0x8],0x7a
  1000c7:	7f 07                	jg     1000d0 <isalnum+0x29>
  1000c9:	b8 01 00 00 00       	mov    eax,0x1
  1000ce:	eb 18                	jmp    1000e8 <isalnum+0x41>
  1000d0:	83 7d 08 2f          	cmp    DWORD PTR [ebp+0x8],0x2f
  1000d4:	7e 0d                	jle    1000e3 <isalnum+0x3c>
  1000d6:	83 7d 08 39          	cmp    DWORD PTR [ebp+0x8],0x39
  1000da:	7f 07                	jg     1000e3 <isalnum+0x3c>
  1000dc:	b8 01 00 00 00       	mov    eax,0x1
  1000e1:	eb 05                	jmp    1000e8 <isalnum+0x41>
  1000e3:	b8 00 00 00 00       	mov    eax,0x0
  1000e8:	5d                   	pop    ebp
  1000e9:	c3                   	ret    

001000ea <isalpha>:
  1000ea:	55                   	push   ebp
  1000eb:	89 e5                	mov    ebp,esp
  1000ed:	83 7d 08 40          	cmp    DWORD PTR [ebp+0x8],0x40
  1000f1:	7e 0d                	jle    100100 <isalpha+0x16>
  1000f3:	83 7d 08 5a          	cmp    DWORD PTR [ebp+0x8],0x5a
  1000f7:	7f 07                	jg     100100 <isalpha+0x16>
  1000f9:	b8 01 00 00 00       	mov    eax,0x1
  1000fe:	eb 18                	jmp    100118 <isalpha+0x2e>
  100100:	83 7d 08 60          	cmp    DWORD PTR [ebp+0x8],0x60
  100104:	7e 0d                	jle    100113 <isalpha+0x29>
  100106:	83 7d 08 7a          	cmp    DWORD PTR [ebp+0x8],0x7a
  10010a:	7f 07                	jg     100113 <isalpha+0x29>
  10010c:	b8 01 00 00 00       	mov    eax,0x1
  100111:	eb 05                	jmp    100118 <isalpha+0x2e>
  100113:	b8 00 00 00 00       	mov    eax,0x0
  100118:	5d                   	pop    ebp
  100119:	c3                   	ret    

0010011a <iscntrl>:
  10011a:	55                   	push   ebp
  10011b:	89 e5                	mov    ebp,esp
  10011d:	83 7d 08 00          	cmp    DWORD PTR [ebp+0x8],0x0
  100121:	78 0d                	js     100130 <iscntrl+0x16>
  100123:	83 7d 08 1f          	cmp    DWORD PTR [ebp+0x8],0x1f
  100127:	7f 07                	jg     100130 <iscntrl+0x16>
  100129:	b8 01 00 00 00       	mov    eax,0x1
  10012e:	eb 12                	jmp    100142 <iscntrl+0x28>
  100130:	83 7d 08 7f          	cmp    DWORD PTR [ebp+0x8],0x7f
  100134:	75 07                	jne    10013d <iscntrl+0x23>
  100136:	b8 01 00 00 00       	mov    eax,0x1
  10013b:	eb 05                	jmp    100142 <iscntrl+0x28>
  10013d:	b8 00 00 00 00       	mov    eax,0x0
  100142:	5d                   	pop    ebp
  100143:	c3                   	ret    

00100144 <isdigit>:
  100144:	55                   	push   ebp
  100145:	89 e5                	mov    ebp,esp
  100147:	83 7d 08 2f          	cmp    DWORD PTR [ebp+0x8],0x2f
  10014b:	7e 0d                	jle    10015a <isdigit+0x16>
  10014d:	83 7d 08 39          	cmp    DWORD PTR [ebp+0x8],0x39
  100151:	7f 07                	jg     10015a <isdigit+0x16>
  100153:	b8 01 00 00 00       	mov    eax,0x1
  100158:	eb 05                	jmp    10015f <isdigit+0x1b>
  10015a:	b8 00 00 00 00       	mov    eax,0x0
  10015f:	5d                   	pop    ebp
  100160:	c3                   	ret    

00100161 <isgraph>:
  100161:	55                   	push   ebp
  100162:	89 e5                	mov    ebp,esp
  100164:	83 ec 08             	sub    esp,0x8
  100167:	83 7d 08 20          	cmp    DWORD PTR [ebp+0x8],0x20
  10016b:	75 07                	jne    100174 <isgraph+0x13>
  10016d:	b8 00 00 00 00       	mov    eax,0x0
  100172:	eb 1e                	jmp    100192 <isgraph+0x31>
  100174:	83 ec 0c             	sub    esp,0xc
  100177:	ff 75 08             	push   DWORD PTR [ebp+0x8]
  10017a:	e8 32 00 00 00       	call   1001b1 <isprint>
  10017f:	83 c4 10             	add    esp,0x10
  100182:	85 c0                	test   eax,eax
  100184:	74 07                	je     10018d <isgraph+0x2c>
  100186:	b8 01 00 00 00       	mov    eax,0x1
  10018b:	eb 05                	jmp    100192 <isgraph+0x31>
  10018d:	b8 00 00 00 00       	mov    eax,0x0
  100192:	c9                   	leave  
  100193:	c3                   	ret    

00100194 <islower>:
  100194:	55                   	push   ebp
  100195:	89 e5                	mov    ebp,esp
  100197:	83 7d 08 60          	cmp    DWORD PTR [ebp+0x8],0x60
  10019b:	7e 0d                	jle    1001aa <islower+0x16>
  10019d:	83 7d 08 7a          	cmp    DWORD PTR [ebp+0x8],0x7a
  1001a1:	7f 07                	jg     1001aa <islower+0x16>
  1001a3:	b8 01 00 00 00       	mov    eax,0x1
  1001a8:	eb 05                	jmp    1001af <islower+0x1b>
  1001aa:	b8 00 00 00 00       	mov    eax,0x0
  1001af:	5d                   	pop    ebp
  1001b0:	c3                   	ret    

001001b1 <isprint>:
  1001b1:	55                   	push   ebp
  1001b2:	89 e5                	mov    ebp,esp
  1001b4:	ff 75 08             	push   DWORD PTR [ebp+0x8]
  1001b7:	e8 5e ff ff ff       	call   10011a <iscntrl>
  1001bc:	83 c4 04             	add    esp,0x4
  1001bf:	85 c0                	test   eax,eax
  1001c1:	75 07                	jne    1001ca <isprint+0x19>
  1001c3:	b8 01 00 00 00       	mov    eax,0x1
  1001c8:	eb 05                	jmp    1001cf <isprint+0x1e>
  1001ca:	b8 00 00 00 00       	mov    eax,0x0
  1001cf:	c9                   	leave  
  1001d0:	c3                   	ret    

001001d1 <ispunct>:
  1001d1:	55                   	push   ebp
  1001d2:	89 e5                	mov    ebp,esp
  1001d4:	83 ec 10             	sub    esp,0x10
  1001d7:	c7 45 fc 00 00 00 00 	mov    DWORD PTR [ebp-0x4],0x0
  1001de:	eb 1e                	jmp    1001fe <ispunct+0x2d>
  1001e0:	8b 45 fc             	mov    eax,DWORD PTR [ebp-0x4]
  1001e3:	05 80 cb 10 00       	add    eax,0x10cb80
  1001e8:	0f b6 00             	movzx  eax,BYTE PTR [eax]
  1001eb:	0f be c0             	movsx  eax,al
  1001ee:	39 45 08             	cmp    DWORD PTR [ebp+0x8],eax
  1001f1:	75 07                	jne    1001fa <ispunct+0x29>
  1001f3:	b8 01 00 00 00       	mov    eax,0x1
  1001f8:	eb 0f                	jmp    100209 <ispunct+0x38>
  1001fa:	83 45 fc 01          	add    DWORD PTR [ebp-0x4],0x1
  1001fe:	83 7d fc 1f          	cmp    DWORD PTR [ebp-0x4],0x1f
  100202:	76 dc                	jbe    1001e0 <ispunct+0xf>
  100204:	b8 00 00 00 00       	mov    eax,0x0
  100209:	c9                   	leave  
  10020a:	c3                   	ret    

0010020b <isspace>:
  10020b:	55                   	push   ebp
  10020c:	89 e5                	mov    ebp,esp
  10020e:	83 7d 08 09          	cmp    DWORD PTR [ebp+0x8],0x9
  100212:	74 0c                	je     100220 <isspace+0x15>
  100214:	83 7d 08 09          	cmp    DWORD PTR [ebp+0x8],0x9
  100218:	7e 0d                	jle    100227 <isspace+0x1c>
  10021a:	83 7d 08 0d          	cmp    DWORD PTR [ebp+0x8],0xd
  10021e:	7f 07                	jg     100227 <isspace+0x1c>
  100220:	b8 01 00 00 00       	mov    eax,0x1
  100225:	eb 12                	jmp    100239 <isspace+0x2e>
  100227:	83 7d 08 20          	cmp    DWORD PTR [ebp+0x8],0x20
  10022b:	75 07                	jne    100234 <isspace+0x29>
  10022d:	b8 01 00 00 00       	mov    eax,0x1
  100232:	eb 05                	jmp    100239 <isspace+0x2e>
  100234:	b8 00 00 00 00       	mov    eax,0x0
  100239:	5d                   	pop    ebp
  10023a:	c3                   	ret    

0010023b <isupper>:
  10023b:	55                   	push   ebp
  10023c:	89 e5                	mov    ebp,esp
  10023e:	83 7d 08 40          	cmp    DWORD PTR [ebp+0x8],0x40
  100242:	7e 0d                	jle    100251 <isupper+0x16>
  100244:	83 7d 08 5a          	cmp    DWORD PTR [ebp+0x8],0x5a
  100248:	7f 07                	jg     100251 <isupper+0x16>
  10024a:	b8 01 00 00 00       	mov    eax,0x1
  10024f:	eb 05                	jmp    100256 <isupper+0x1b>
  100251:	b8 00 00 00 00       	mov    eax,0x0
  100256:	5d                   	pop    ebp
  100257:	c3                   	ret    

00100258 <isxdigit>:
  100258:	55                   	push   ebp
  100259:	89 e5                	mov    ebp,esp
  10025b:	83 7d 08 40          	cmp    DWORD PTR [ebp+0x8],0x40
  10025f:	7e 0d                	jle    10026e <isxdigit+0x16>
  100261:	83 7d 08 46          	cmp    DWORD PTR [ebp+0x8],0x46
  100265:	7f 07                	jg     10026e <isxdigit+0x16>
  100267:	b8 01 00 00 00       	mov    eax,0x1
  10026c:	eb 2b                	jmp    100299 <isxdigit+0x41>
  10026e:	83 7d 08 60          	cmp    DWORD PTR [ebp+0x8],0x60
  100272:	7e 0d                	jle    100281 <isxdigit+0x29>
  100274:	83 7d 08 66          	cmp    DWORD PTR [ebp+0x8],0x66
  100278:	7f 07                	jg     100281 <isxdigit+0x29>
  10027a:	b8 01 00 00 00       	mov    eax,0x1
  10027f:	eb 18                	jmp    100299 <isxdigit+0x41>
  100281:	83 7d 08 2f          	cmp    DWORD PTR [ebp+0x8],0x2f
  100285:	7e 0d                	jle    100294 <isxdigit+0x3c>
  100287:	83 7d 08 39          	cmp    DWORD PTR [ebp+0x8],0x39
  10028b:	7f 07                	jg     100294 <isxdigit+0x3c>
  10028d:	b8 01 00 00 00       	mov    eax,0x1
  100292:	eb 05                	jmp    100299 <isxdigit+0x41>
  100294:	b8 00 00 00 00       	mov    eax,0x0
  100299:	5d                   	pop    ebp
  10029a:	c3                   	ret    

0010029b <tolower>:
  10029b:	55                   	push   ebp
  10029c:	89 e5                	mov    ebp,esp
  10029e:	83 7d 08 40          	cmp    DWORD PTR [ebp+0x8],0x40
  1002a2:	7e 0e                	jle    1002b2 <tolower+0x17>
  1002a4:	83 7d 08 5a          	cmp    DWORD PTR [ebp+0x8],0x5a
  1002a8:	7f 08                	jg     1002b2 <tolower+0x17>
  1002aa:	8b 45 08             	mov    eax,DWORD PTR [ebp+0x8]
  1002ad:	83 c0 20             	add    eax,0x20
  1002b0:	eb 03                	jmp    1002b5 <tolower+0x1a>
  1002b2:	8b 45 08             	mov    eax,DWORD PTR [ebp+0x8]
  1002b5:	5d                   	pop    ebp
  1002b6:	c3                   	ret    

001002b7 <toupper>:
  1002b7:	55                   	push   ebp
  1002b8:	89 e5                	mov    ebp,esp
  1002ba:	83 7d 08 60          	cmp    DWORD PTR [ebp+0x8],0x60
  1002be:	7e 0e                	jle    1002ce <toupper+0x17>
  1002c0:	83 7d 08 7a          	cmp    DWORD PTR [ebp+0x8],0x7a
  1002c4:	7f 08                	jg     1002ce <toupper+0x17>
  1002c6:	8b 45 08             	mov    eax,DWORD PTR [ebp+0x8]
  1002c9:	83 e8 20             	sub    eax,0x20
  1002cc:	eb 03                	jmp    1002d1 <toupper+0x1a>
  1002ce:	8b 45 08             	mov    eax,DWORD PTR [ebp+0x8]
  1002d1:	5d                   	pop    ebp
  1002d2:	c3                   	ret    

001002d3 <strrevl>:
  1002d3:	55                   	push   ebp
  1002d4:	89 e5                	mov    ebp,esp
  1002d6:	83 ec 10             	sub    esp,0x10
  1002d9:	c7 45 fc 00 00 00 00 	mov    DWORD PTR [ebp-0x4],0x0
  1002e0:	8b 45 0c             	mov    eax,DWORD PTR [ebp+0xc]
  1002e3:	83 e8 01             	sub    eax,0x1
  1002e6:	89 45 f8             	mov    DWORD PTR [ebp-0x8],eax
  1002e9:	eb 3b                	jmp    100326 <strrevl+0x53>
  1002eb:	8b 55 fc             	mov    edx,DWORD PTR [ebp-0x4]
  1002ee:	8b 45 08             	mov    eax,DWORD PTR [ebp+0x8]
  1002f1:	01 d0                	add    eax,edx
  1002f3:	0f b6 00             	movzx  eax,BYTE PTR [eax]
  1002f6:	0f be c0             	movsx  eax,al
  1002f9:	89 45 f4             	mov    DWORD PTR [ebp-0xc],eax
  1002fc:	8b 55 f8             	mov    edx,DWORD PTR [ebp-0x8]
  1002ff:	8b 45 08             	mov    eax,DWORD PTR [ebp+0x8]
  100302:	01 d0                	add    eax,edx
  100304:	8b 4d fc             	mov    ecx,DWORD PTR [ebp-0x4]
  100307:	8b 55 08             	mov    edx,DWORD PTR [ebp+0x8]
  10030a:	01 ca                	add    edx,ecx
  10030c:	0f b6 00             	movzx  eax,BYTE PTR [eax]
  10030f:	88 02                	mov    BYTE PTR [edx],al
  100311:	8b 55 f8             	mov    edx,DWORD PTR [ebp-0x8]
  100314:	8b 45 08             	mov    eax,DWORD PTR [ebp+0x8]
  100317:	01 d0                	add    eax,edx
  100319:	8b 55 f4             	mov    edx,DWORD PTR [ebp-0xc]
  10031c:	88 10                	mov    BYTE PTR [eax],dl
  10031e:	83 45 fc 01          	add    DWORD PTR [ebp-0x4],0x1
  100322:	83 6d f8 01          	sub    DWORD PTR [ebp-0x8],0x1
  100326:	8b 45 fc             	mov    eax,DWORD PTR [ebp-0x4]
  100329:	3b 45 f8             	cmp    eax,DWORD PTR [ebp-0x8]
  10032c:	7c bd                	jl     1002eb <strrevl+0x18>
  10032e:	90                   	nop
  10032f:	c9                   	leave  
  100330:	c3                   	ret    

00100331 <int2str>:
  100331:	55                   	push   ebp
  100332:	89 e5                	mov    ebp,esp
  100334:	83 ec 10             	sub    esp,0x10
  100337:	c7 45 fc 00 00 00 00 	mov    DWORD PTR [ebp-0x4],0x0
  10033e:	eb 57                	jmp    100397 <int2str+0x66>
  100340:	8b 4d 08             	mov    ecx,DWORD PTR [ebp+0x8]
  100343:	ba 67 66 66 66       	mov    edx,0x66666667
  100348:	89 c8                	mov    eax,ecx
  10034a:	f7 ea                	imul   edx
  10034c:	c1 fa 02             	sar    edx,0x2
  10034f:	89 c8                	mov    eax,ecx
  100351:	c1 f8 1f             	sar    eax,0x1f
  100354:	29 c2                	sub    edx,eax
  100356:	89 d0                	mov    eax,edx
  100358:	c1 e0 02             	shl    eax,0x2
  10035b:	01 d0                	add    eax,edx
  10035d:	01 c0                	add    eax,eax
  10035f:	29 c1                	sub    ecx,eax
  100361:	89 ca                	mov    edx,ecx
  100363:	89 d0                	mov    eax,edx
  100365:	8d 48 30             	lea    ecx,[eax+0x30]
  100368:	8b 45 fc             	mov    eax,DWORD PTR [ebp-0x4]
  10036b:	8d 50 01             	lea    edx,[eax+0x1]
  10036e:	89 55 fc             	mov    DWORD PTR [ebp-0x4],edx
  100371:	89 c2                	mov    edx,eax
  100373:	8b 45 0c             	mov    eax,DWORD PTR [ebp+0xc]
  100376:	01 d0                	add    eax,edx
  100378:	89 ca                	mov    edx,ecx
  10037a:	88 10                	mov    BYTE PTR [eax],dl
  10037c:	8b 4d 08             	mov    ecx,DWORD PTR [ebp+0x8]
  10037f:	ba 67 66 66 66       	mov    edx,0x66666667
  100384:	89 c8                	mov    eax,ecx
  100386:	f7 ea                	imul   edx
  100388:	c1 fa 02             	sar    edx,0x2
  10038b:	89 c8                	mov    eax,ecx
  10038d:	c1 f8 1f             	sar    eax,0x1f
  100390:	29 c2                	sub    edx,eax
  100392:	89 d0                	mov    eax,edx
  100394:	89 45 08             	mov    DWORD PTR [ebp+0x8],eax
  100397:	83 7d 08 00          	cmp    DWORD PTR [ebp+0x8],0x0
  10039b:	75 a3                	jne    100340 <int2str+0xf>
  10039d:	eb 13                	jmp    1003b2 <int2str+0x81>
  10039f:	8b 45 fc             	mov    eax,DWORD PTR [ebp-0x4]
  1003a2:	8d 50 01             	lea    edx,[eax+0x1]
  1003a5:	89 55 fc             	mov    DWORD PTR [ebp-0x4],edx
  1003a8:	89 c2                	mov    edx,eax
  1003aa:	8b 45 0c             	mov    eax,DWORD PTR [ebp+0xc]
  1003ad:	01 d0                	add    eax,edx
  1003af:	c6 00 30             	mov    BYTE PTR [eax],0x30
  1003b2:	8b 45 fc             	mov    eax,DWORD PTR [ebp-0x4]
  1003b5:	3b 45 10             	cmp    eax,DWORD PTR [ebp+0x10]
  1003b8:	7c e5                	jl     10039f <int2str+0x6e>
  1003ba:	ff 75 fc             	push   DWORD PTR [ebp-0x4]
  1003bd:	ff 75 0c             	push   DWORD PTR [ebp+0xc]
  1003c0:	e8 0e ff ff ff       	call   1002d3 <strrevl>
  1003c5:	83 c4 08             	add    esp,0x8
  1003c8:	8b 55 fc             	mov    edx,DWORD PTR [ebp-0x4]
  1003cb:	8b 45 0c             	mov    eax,DWORD PTR [ebp+0xc]
  1003ce:	01 d0                	add    eax,edx
  1003d0:	c6 00 00             	mov    BYTE PTR [eax],0x0
  1003d3:	8b 45 fc             	mov    eax,DWORD PTR [ebp-0x4]
  1003d6:	c9                   	leave  
  1003d7:	c3                   	ret    

001003d8 <ftoa>:
  1003d8:	55                   	push   ebp
  1003d9:	89 e5                	mov    ebp,esp
  1003db:	83 ec 38             	sub    esp,0x38
  1003de:	d9 45 08             	fld    DWORD PTR [ebp+0x8]
  1003e1:	d9 7d e2             	fnstcw WORD PTR [ebp-0x1e]
  1003e4:	0f b7 45 e2          	movzx  eax,WORD PTR [ebp-0x1e]
  1003e8:	b4 0c                	mov    ah,0xc
  1003ea:	66 89 45 e0          	mov    WORD PTR [ebp-0x20],ax
  1003ee:	d9 6d e0             	fldcw  WORD PTR [ebp-0x20]
  1003f1:	db 5d f4             	fistp  DWORD PTR [ebp-0xc]
  1003f4:	d9 6d e2             	fldcw  WORD PTR [ebp-0x1e]
  1003f7:	db 45 f4             	fild   DWORD PTR [ebp-0xc]
  1003fa:	d9 45 08             	fld    DWORD PTR [ebp+0x8]
  1003fd:	de e1                	fsubrp st(1),st
  1003ff:	d9 5d f0             	fstp   DWORD PTR [ebp-0x10]
  100402:	6a 00                	push   0x0
  100404:	ff 75 0c             	push   DWORD PTR [ebp+0xc]
  100407:	ff 75 f4             	push   DWORD PTR [ebp-0xc]
  10040a:	e8 22 ff ff ff       	call   100331 <int2str>
  10040f:	83 c4 0c             	add    esp,0xc
  100412:	89 45 ec             	mov    DWORD PTR [ebp-0x14],eax
  100415:	83 7d 10 00          	cmp    DWORD PTR [ebp+0x10],0x0
  100419:	74 69                	je     100484 <ftoa+0xac>
  10041b:	8b 55 ec             	mov    edx,DWORD PTR [ebp-0x14]
  10041e:	8b 45 0c             	mov    eax,DWORD PTR [ebp+0xc]
  100421:	01 d0                	add    eax,edx
  100423:	c6 00 2e             	mov    BYTE PTR [eax],0x2e
  100426:	d9 45 f0             	fld    DWORD PTR [ebp-0x10]
  100429:	dd 5d d0             	fstp   QWORD PTR [ebp-0x30]
  10042c:	83 ec 04             	sub    esp,0x4
  10042f:	ff 75 10             	push   DWORD PTR [ebp+0x10]
  100432:	dd 05 f0 cb 10 00    	fld    QWORD PTR ds:0x10cbf0
  100438:	8d 64 24 f8          	lea    esp,[esp-0x8]
  10043c:	dd 1c 24             	fstp   QWORD PTR [esp]
  10043f:	e8 f8 fb ff ff       	call   10003c <powd>
  100444:	83 c4 10             	add    esp,0x10
  100447:	dc 4d d0             	fmul   QWORD PTR [ebp-0x30]
  10044a:	d9 5d f0             	fstp   DWORD PTR [ebp-0x10]
  10044d:	8b 45 ec             	mov    eax,DWORD PTR [ebp-0x14]
  100450:	8d 50 01             	lea    edx,[eax+0x1]
  100453:	8b 45 0c             	mov    eax,DWORD PTR [ebp+0xc]
  100456:	01 c2                	add    edx,eax
  100458:	d9 45 f0             	fld    DWORD PTR [ebp-0x10]
  10045b:	d9 7d e2             	fnstcw WORD PTR [ebp-0x1e]
  10045e:	0f b7 45 e2          	movzx  eax,WORD PTR [ebp-0x1e]
  100462:	b4 0c                	mov    ah,0xc
  100464:	66 89 45 e0          	mov    WORD PTR [ebp-0x20],ax
  100468:	d9 6d e0             	fldcw  WORD PTR [ebp-0x20]
  10046b:	db 5d dc             	fistp  DWORD PTR [ebp-0x24]
  10046e:	d9 6d e2             	fldcw  WORD PTR [ebp-0x1e]
  100471:	8b 45 dc             	mov    eax,DWORD PTR [ebp-0x24]
  100474:	83 ec 04             	sub    esp,0x4
  100477:	ff 75 10             	push   DWORD PTR [ebp+0x10]
  10047a:	52                   	push   edx
  10047b:	50                   	push   eax
  10047c:	e8 b0 fe ff ff       	call   100331 <int2str>
  100481:	83 c4 10             	add    esp,0x10
  100484:	8b 45 0c             	mov    eax,DWORD PTR [ebp+0xc]
  100487:	c9                   	leave  
  100488:	c3                   	ret    

00100489 <itoa>:
  100489:	55                   	push   ebp
  10048a:	89 e5                	mov    ebp,esp
  10048c:	83 ec 10             	sub    esp,0x10
  10048f:	83 7d 10 01          	cmp    DWORD PTR [ebp+0x10],0x1
  100493:	7e 06                	jle    10049b <itoa+0x12>
  100495:	83 7d 10 24          	cmp    DWORD PTR [ebp+0x10],0x24
  100499:	7e 0e                	jle    1004a9 <itoa+0x20>
  10049b:	8b 45 0c             	mov    eax,DWORD PTR [ebp+0xc]
  10049e:	c6 00 00             	mov    BYTE PTR [eax],0x0
  1004a1:	8b 45 0c             	mov    eax,DWORD PTR [ebp+0xc]
  1004a4:	e9 9e 00 00 00       	jmp    100547 <itoa+0xbe>
  1004a9:	8b 45 0c             	mov    eax,DWORD PTR [ebp+0xc]
  1004ac:	89 45 fc             	mov    DWORD PTR [ebp-0x4],eax
  1004af:	8b 45 0c             	mov    eax,DWORD PTR [ebp+0xc]
  1004b2:	89 45 f8             	mov    DWORD PTR [ebp-0x8],eax
  1004b5:	8b 45 08             	mov    eax,DWORD PTR [ebp+0x8]
  1004b8:	89 45 f4             	mov    DWORD PTR [ebp-0xc],eax
  1004bb:	8b 45 08             	mov    eax,DWORD PTR [ebp+0x8]
  1004be:	99                   	cdq    
  1004bf:	f7 7d 10             	idiv   DWORD PTR [ebp+0x10]
  1004c2:	89 45 08             	mov    DWORD PTR [ebp+0x8],eax
  1004c5:	8b 15 e0 b9 10 00    	mov    edx,DWORD PTR ds:0x10b9e0
  1004cb:	8b 45 08             	mov    eax,DWORD PTR [ebp+0x8]
  1004ce:	0f af 45 10          	imul   eax,DWORD PTR [ebp+0x10]
  1004d2:	8b 4d f4             	mov    ecx,DWORD PTR [ebp-0xc]
  1004d5:	29 c1                	sub    ecx,eax
  1004d7:	89 c8                	mov    eax,ecx
  1004d9:	83 c0 23             	add    eax,0x23
  1004dc:	8d 0c 02             	lea    ecx,[edx+eax*1]
  1004df:	8b 45 fc             	mov    eax,DWORD PTR [ebp-0x4]
  1004e2:	8d 50 01             	lea    edx,[eax+0x1]
  1004e5:	89 55 fc             	mov    DWORD PTR [ebp-0x4],edx
  1004e8:	0f b6 11             	movzx  edx,BYTE PTR [ecx]
  1004eb:	88 10                	mov    BYTE PTR [eax],dl
  1004ed:	83 7d 08 00          	cmp    DWORD PTR [ebp+0x8],0x0
  1004f1:	75 c2                	jne    1004b5 <itoa+0x2c>
  1004f3:	83 7d f4 00          	cmp    DWORD PTR [ebp-0xc],0x0
  1004f7:	79 0c                	jns    100505 <itoa+0x7c>
  1004f9:	8b 45 fc             	mov    eax,DWORD PTR [ebp-0x4]
  1004fc:	8d 50 01             	lea    edx,[eax+0x1]
  1004ff:	89 55 fc             	mov    DWORD PTR [ebp-0x4],edx
  100502:	c6 00 2d             	mov    BYTE PTR [eax],0x2d
  100505:	8b 45 fc             	mov    eax,DWORD PTR [ebp-0x4]
  100508:	8d 50 ff             	lea    edx,[eax-0x1]
  10050b:	89 55 fc             	mov    DWORD PTR [ebp-0x4],edx
  10050e:	c6 00 00             	mov    BYTE PTR [eax],0x0
  100511:	eb 29                	jmp    10053c <itoa+0xb3>
  100513:	8b 45 fc             	mov    eax,DWORD PTR [ebp-0x4]
  100516:	0f b6 00             	movzx  eax,BYTE PTR [eax]
  100519:	88 45 f3             	mov    BYTE PTR [ebp-0xd],al
  10051c:	8b 45 fc             	mov    eax,DWORD PTR [ebp-0x4]
  10051f:	8d 50 ff             	lea    edx,[eax-0x1]
  100522:	89 55 fc             	mov    DWORD PTR [ebp-0x4],edx
  100525:	8b 55 f8             	mov    edx,DWORD PTR [ebp-0x8]
  100528:	0f b6 12             	movzx  edx,BYTE PTR [edx]
  10052b:	88 10                	mov    BYTE PTR [eax],dl
  10052d:	8b 45 f8             	mov    eax,DWORD PTR [ebp-0x8]
  100530:	8d 50 01             	lea    edx,[eax+0x1]
  100533:	89 55 f8             	mov    DWORD PTR [ebp-0x8],edx
  100536:	0f b6 55 f3          	movzx  edx,BYTE PTR [ebp-0xd]
  10053a:	88 10                	mov    BYTE PTR [eax],dl
  10053c:	8b 45 f8             	mov    eax,DWORD PTR [ebp-0x8]
  10053f:	3b 45 fc             	cmp    eax,DWORD PTR [ebp-0x4]
  100542:	72 cf                	jb     100513 <itoa+0x8a>
  100544:	8b 45 0c             	mov    eax,DWORD PTR [ebp+0xc]
  100547:	c9                   	leave  
  100548:	c3                   	ret    

00100549 <ultoa>:
  100549:	55                   	push   ebp
  10054a:	89 e5                	mov    ebp,esp
  10054c:	53                   	push   ebx
  10054d:	83 ec 14             	sub    esp,0x14
  100550:	89 e0                	mov    eax,esp
  100552:	89 c3                	mov    ebx,eax
  100554:	b8 20 00 00 00       	mov    eax,0x20
  100559:	83 e8 01             	sub    eax,0x1
  10055c:	89 45 f0             	mov    DWORD PTR [ebp-0x10],eax
  10055f:	ba 20 00 00 00       	mov    edx,0x20
  100564:	b8 10 00 00 00       	mov    eax,0x10
  100569:	83 e8 01             	sub    eax,0x1
  10056c:	01 d0                	add    eax,edx
  10056e:	b9 10 00 00 00       	mov    ecx,0x10
  100573:	ba 00 00 00 00       	mov    edx,0x0
  100578:	f7 f1                	div    ecx
  10057a:	6b c0 10             	imul   eax,eax,0x10
  10057d:	29 c4                	sub    esp,eax
  10057f:	89 e0                	mov    eax,esp
  100581:	83 c0 00             	add    eax,0x0
  100584:	89 45 ec             	mov    DWORD PTR [ebp-0x14],eax
  100587:	b8 20 00 00 00       	mov    eax,0x20
  10058c:	88 45 f7             	mov    BYTE PTR [ebp-0x9],al
  10058f:	8b 4d 10             	mov    ecx,DWORD PTR [ebp+0x10]
  100592:	8b 45 08             	mov    eax,DWORD PTR [ebp+0x8]
  100595:	ba 00 00 00 00       	mov    edx,0x0
  10059a:	f7 f1                	div    ecx
  10059c:	89 d0                	mov    eax,edx
  10059e:	8d 50 30             	lea    edx,[eax+0x30]
  1005a1:	80 6d f7 01          	sub    BYTE PTR [ebp-0x9],0x1
  1005a5:	0f b6 45 f7          	movzx  eax,BYTE PTR [ebp-0x9]
  1005a9:	89 d1                	mov    ecx,edx
  1005ab:	8b 55 ec             	mov    edx,DWORD PTR [ebp-0x14]
  1005ae:	88 0c 02             	mov    BYTE PTR [edx+eax*1],cl
  1005b1:	0f b6 45 f7          	movzx  eax,BYTE PTR [ebp-0x9]
  1005b5:	8b 55 ec             	mov    edx,DWORD PTR [ebp-0x14]
  1005b8:	0f b6 04 02          	movzx  eax,BYTE PTR [edx+eax*1]
  1005bc:	3c 39                	cmp    al,0x39
  1005be:	7e 1a                	jle    1005da <ultoa+0x91>
  1005c0:	0f b6 45 f7          	movzx  eax,BYTE PTR [ebp-0x9]
  1005c4:	8b 55 ec             	mov    edx,DWORD PTR [ebp-0x14]
  1005c7:	0f b6 04 02          	movzx  eax,BYTE PTR [edx+eax*1]
  1005cb:	8d 50 07             	lea    edx,[eax+0x7]
  1005ce:	0f b6 45 f7          	movzx  eax,BYTE PTR [ebp-0x9]
  1005d2:	89 d1                	mov    ecx,edx
  1005d4:	8b 55 ec             	mov    edx,DWORD PTR [ebp-0x14]
  1005d7:	88 0c 02             	mov    BYTE PTR [edx+eax*1],cl
  1005da:	8b 4d 10             	mov    ecx,DWORD PTR [ebp+0x10]
  1005dd:	8b 45 08             	mov    eax,DWORD PTR [ebp+0x8]
  1005e0:	ba 00 00 00 00       	mov    edx,0x0
  1005e5:	f7 f1                	div    ecx
  1005e7:	89 45 08             	mov    DWORD PTR [ebp+0x8],eax
  1005ea:	83 7d 08 00          	cmp    DWORD PTR [ebp+0x8],0x0
  1005ee:	75 9f                	jne    10058f <ultoa+0x46>
  1005f0:	0f b6 45 f7          	movzx  eax,BYTE PTR [ebp-0x9]
  1005f4:	8d 50 01             	lea    edx,[eax+0x1]
  1005f7:	88 55 f7             	mov    BYTE PTR [ebp-0x9],dl
  1005fa:	0f b6 d0             	movzx  edx,al
  1005fd:	8b 45 0c             	mov    eax,DWORD PTR [ebp+0xc]
  100600:	8d 48 01             	lea    ecx,[eax+0x1]
  100603:	89 4d 0c             	mov    DWORD PTR [ebp+0xc],ecx
  100606:	8b 4d ec             	mov    ecx,DWORD PTR [ebp-0x14]
  100609:	0f b6 14 11          	movzx  edx,BYTE PTR [ecx+edx*1]
  10060d:	88 10                	mov    BYTE PTR [eax],dl
  10060f:	0f b6 45 f7          	movzx  eax,BYTE PTR [ebp-0x9]
  100613:	ba 20 00 00 00       	mov    edx,0x20
  100618:	39 d0                	cmp    eax,edx
  10061a:	72 d4                	jb     1005f0 <ultoa+0xa7>
  10061c:	8b 45 0c             	mov    eax,DWORD PTR [ebp+0xc]
  10061f:	c6 00 00             	mov    BYTE PTR [eax],0x0
  100622:	89 dc                	mov    esp,ebx
  100624:	90                   	nop
  100625:	8b 5d fc             	mov    ebx,DWORD PTR [ebp-0x4]
  100628:	c9                   	leave  
  100629:	c3                   	ret    

0010062a <ltoa>:
  10062a:	55                   	push   ebp
  10062b:	89 e5                	mov    ebp,esp
  10062d:	83 ec 08             	sub    esp,0x8
  100630:	83 ec 04             	sub    esp,0x4
  100633:	ff 75 10             	push   DWORD PTR [ebp+0x10]
  100636:	ff 75 0c             	push   DWORD PTR [ebp+0xc]
  100639:	ff 75 08             	push   DWORD PTR [ebp+0x8]
  10063c:	e8 08 ff ff ff       	call   100549 <ultoa>
  100641:	83 c4 10             	add    esp,0x10
  100644:	8b 45 0c             	mov    eax,DWORD PTR [ebp+0xc]
  100647:	c9                   	leave  
  100648:	c3                   	ret    

00100649 <atof>:
  100649:	55                   	push   ebp
  10064a:	89 e5                	mov    ebp,esp
  10064c:	d9 ee                	fldz   
  10064e:	5d                   	pop    ebp
  10064f:	c3                   	ret    

00100650 <atoi>:
  100650:	55                   	push   ebp
  100651:	89 e5                	mov    ebp,esp
  100653:	b8 00 00 00 00       	mov    eax,0x0
  100658:	5d                   	pop    ebp
  100659:	c3                   	ret    

0010065a <atol>:
  10065a:	55                   	push   ebp
  10065b:	89 e5                	mov    ebp,esp
  10065d:	83 ec 18             	sub    esp,0x18
  100660:	c7 45 f4 00 00 00 00 	mov    DWORD PTR [ebp-0xc],0x0
  100667:	eb 29                	jmp    100692 <atol+0x38>
  100669:	8b 55 08             	mov    edx,DWORD PTR [ebp+0x8]
  10066c:	8b 45 f4             	mov    eax,DWORD PTR [ebp-0xc]
  10066f:	01 d0                	add    eax,edx
  100671:	0f b6 00             	movzx  eax,BYTE PTR [eax]
  100674:	3c 2f                	cmp    al,0x2f
  100676:	7e 0f                	jle    100687 <atol+0x2d>
  100678:	8b 55 08             	mov    edx,DWORD PTR [ebp+0x8]
  10067b:	8b 45 f4             	mov    eax,DWORD PTR [ebp-0xc]
  10067e:	01 d0                	add    eax,edx
  100680:	0f b6 00             	movzx  eax,BYTE PTR [eax]
  100683:	3c 39                	cmp    al,0x39
  100685:	7e 07                	jle    10068e <atol+0x34>
  100687:	b8 00 00 00 00       	mov    eax,0x0
  10068c:	eb 61                	jmp    1006ef <atol+0x95>
  10068e:	83 45 f4 01          	add    DWORD PTR [ebp-0xc],0x1
  100692:	83 ec 0c             	sub    esp,0xc
  100695:	ff 75 08             	push   DWORD PTR [ebp+0x8]
  100698:	e8 58 5b 00 00       	call   1061f5 <strlen>
  10069d:	83 c4 10             	add    esp,0x10
  1006a0:	39 45 f4             	cmp    DWORD PTR [ebp-0xc],eax
  1006a3:	72 c4                	jb     100669 <atol+0xf>
  1006a5:	c7 45 f0 00 00 00 00 	mov    DWORD PTR [ebp-0x10],0x0
  1006ac:	c7 45 ec 00 00 00 00 	mov    DWORD PTR [ebp-0x14],0x0
  1006b3:	eb 28                	jmp    1006dd <atol+0x83>
  1006b5:	8b 55 f0             	mov    edx,DWORD PTR [ebp-0x10]
  1006b8:	89 d0                	mov    eax,edx
  1006ba:	c1 e0 02             	shl    eax,0x2
  1006bd:	01 d0                	add    eax,edx
  1006bf:	01 c0                	add    eax,eax
  1006c1:	89 c1                	mov    ecx,eax
  1006c3:	8b 55 ec             	mov    edx,DWORD PTR [ebp-0x14]
  1006c6:	8b 45 08             	mov    eax,DWORD PTR [ebp+0x8]
  1006c9:	01 d0                	add    eax,edx
  1006cb:	0f b6 00             	movzx  eax,BYTE PTR [eax]
  1006ce:	0f be c0             	movsx  eax,al
  1006d1:	01 c8                	add    eax,ecx
  1006d3:	83 e8 30             	sub    eax,0x30
  1006d6:	89 45 f0             	mov    DWORD PTR [ebp-0x10],eax
  1006d9:	83 45 ec 01          	add    DWORD PTR [ebp-0x14],0x1
  1006dd:	8b 55 ec             	mov    edx,DWORD PTR [ebp-0x14]
  1006e0:	8b 45 08             	mov    eax,DWORD PTR [ebp+0x8]
  1006e3:	01 d0                	add    eax,edx
  1006e5:	0f b6 00             	movzx  eax,BYTE PTR [eax]
  1006e8:	84 c0                	test   al,al
  1006ea:	75 c9                	jne    1006b5 <atol+0x5b>
  1006ec:	8b 45 f0             	mov    eax,DWORD PTR [ebp-0x10]
  1006ef:	c9                   	leave  
  1006f0:	c3                   	ret    

001006f1 <srand>:
  1006f1:	55                   	push   ebp
  1006f2:	89 e5                	mov    ebp,esp
  1006f4:	90                   	nop
  1006f5:	5d                   	pop    ebp
  1006f6:	c3                   	ret    

001006f7 <rand>:
  1006f7:	55                   	push   ebp
  1006f8:	89 e5                	mov    ebp,esp
  1006fa:	b8 00 00 00 00       	mov    eax,0x0
  1006ff:	5d                   	pop    ebp
  100700:	c3                   	ret    

00100701 <system>:
  100701:	55                   	push   ebp
  100702:	89 e5                	mov    ebp,esp
  100704:	b8 00 00 00 00       	mov    eax,0x0
  100709:	5d                   	pop    ebp
  10070a:	c3                   	ret    

0010070b <getchar>:
  10070b:	55                   	push   ebp
  10070c:	89 e5                	mov    ebp,esp
  10070e:	b8 00 00 00 00       	mov    eax,0x0
  100713:	5d                   	pop    ebp
  100714:	c3                   	ret    

00100715 <gets>:
  100715:	55                   	push   ebp
  100716:	89 e5                	mov    ebp,esp
  100718:	b8 00 00 00 00       	mov    eax,0x0
  10071d:	5d                   	pop    ebp
  10071e:	c3                   	ret    

0010071f <printf>:
  10071f:	55                   	push   ebp
  100720:	89 e5                	mov    ebp,esp
  100722:	b8 00 00 00 00       	mov    eax,0x0
  100727:	5d                   	pop    ebp
  100728:	c3                   	ret    

00100729 <putchar>:
  100729:	55                   	push   ebp
  10072a:	89 e5                	mov    ebp,esp
  10072c:	b8 00 00 00 00       	mov    eax,0x0
  100731:	5d                   	pop    ebp
  100732:	c3                   	ret    

00100733 <puts>:
  100733:	55                   	push   ebp
  100734:	89 e5                	mov    ebp,esp
  100736:	b8 00 00 00 00       	mov    eax,0x0
  10073b:	5d                   	pop    ebp
  10073c:	c3                   	ret    

0010073d <cli>:
  10073d:	55                   	push   ebp
  10073e:	89 e5                	mov    ebp,esp
  100740:	fa                   	cli    
  100741:	90                   	nop
  100742:	5d                   	pop    ebp
  100743:	c3                   	ret    

00100744 <hlt>:
  100744:	55                   	push   ebp
  100745:	89 e5                	mov    ebp,esp
  100747:	f4                   	hlt    
  100748:	90                   	nop
  100749:	5d                   	pop    ebp
  10074a:	c3                   	ret    

0010074b <debug_setmode>:
  10074b:	55                   	push   ebp
  10074c:	89 e5                	mov    ebp,esp
  10074e:	a1 04 20 51 00       	mov    eax,ds:0x512004
  100753:	a3 00 20 51 00       	mov    ds:0x512000,eax
  100758:	8b 45 08             	mov    eax,DWORD PTR [ebp+0x8]
  10075b:	a3 04 20 51 00       	mov    ds:0x512004,eax
  100760:	90                   	nop
  100761:	5d                   	pop    ebp
  100762:	c3                   	ret    

00100763 <debug_lastmode>:
  100763:	55                   	push   ebp
  100764:	89 e5                	mov    ebp,esp
  100766:	a1 00 20 51 00       	mov    eax,ds:0x512000
  10076b:	50                   	push   eax
  10076c:	e8 da ff ff ff       	call   10074b <debug_setmode>
  100771:	83 c4 04             	add    esp,0x4
  100774:	90                   	nop
  100775:	c9                   	leave  
  100776:	c3                   	ret    

00100777 <debug_getmode>:
  100777:	55                   	push   ebp
  100778:	89 e5                	mov    ebp,esp
  10077a:	a1 04 20 51 00       	mov    eax,ds:0x512004
  10077f:	5d                   	pop    ebp
  100780:	c3                   	ret    

00100781 <debug_halt>:
  100781:	55                   	push   ebp
  100782:	89 e5                	mov    ebp,esp
  100784:	e8 b4 ff ff ff       	call   10073d <cli>
  100789:	e8 b6 ff ff ff       	call   100744 <hlt>
  10078e:	90                   	nop
  10078f:	5d                   	pop    ebp
  100790:	c3                   	ret    

00100791 <debug_breakpoint>:
  100791:	55                   	push   ebp
  100792:	89 e5                	mov    ebp,esp
  100794:	66 87 db             	xchg   bx,bx
  100797:	90                   	nop
  100798:	5d                   	pop    ebp
  100799:	c3                   	ret    

0010079a <debug_isterm>:
  10079a:	55                   	push   ebp
  10079b:	89 e5                	mov    ebp,esp
  10079d:	a1 04 20 51 00       	mov    eax,ds:0x512004
  1007a2:	83 f8 02             	cmp    eax,0x2
  1007a5:	74 0a                	je     1007b1 <debug_isterm+0x17>
  1007a7:	a1 04 20 51 00       	mov    eax,ds:0x512004
  1007ac:	83 f8 03             	cmp    eax,0x3
  1007af:	75 07                	jne    1007b8 <debug_isterm+0x1e>
  1007b1:	b8 01 00 00 00       	mov    eax,0x1
  1007b6:	eb 05                	jmp    1007bd <debug_isterm+0x23>
  1007b8:	b8 00 00 00 00       	mov    eax,0x0
  1007bd:	5d                   	pop    ebp
  1007be:	c3                   	ret    

001007bf <debug_isserial>:
  1007bf:	55                   	push   ebp
  1007c0:	89 e5                	mov    ebp,esp
  1007c2:	a1 04 20 51 00       	mov    eax,ds:0x512004
  1007c7:	83 f8 01             	cmp    eax,0x1
  1007ca:	74 0a                	je     1007d6 <debug_isserial+0x17>
  1007cc:	a1 04 20 51 00       	mov    eax,ds:0x512004
  1007d1:	83 f8 03             	cmp    eax,0x3
  1007d4:	75 07                	jne    1007dd <debug_isserial+0x1e>
  1007d6:	b8 01 00 00 00       	mov    eax,0x1
  1007db:	eb 05                	jmp    1007e2 <debug_isserial+0x23>
  1007dd:	b8 00 00 00 00       	mov    eax,0x0
  1007e2:	5d                   	pop    ebp
  1007e3:	c3                   	ret    

001007e4 <debug_newline>:
  1007e4:	55                   	push   ebp
  1007e5:	89 e5                	mov    ebp,esp
  1007e7:	83 ec 08             	sub    esp,0x8
  1007ea:	e8 d0 ff ff ff       	call   1007bf <debug_isserial>
  1007ef:	84 c0                	test   al,al
  1007f1:	74 05                	je     1007f8 <debug_newline+0x14>
  1007f3:	e8 81 45 00 00       	call   104d79 <serial_newline>
  1007f8:	e8 9d ff ff ff       	call   10079a <debug_isterm>
  1007fd:	84 c0                	test   al,al
  1007ff:	74 05                	je     100806 <debug_newline+0x22>
  100801:	e8 ae 72 00 00       	call   107ab4 <vga_newline>
  100806:	90                   	nop
  100807:	c9                   	leave  
  100808:	c3                   	ret    

00100809 <debug_writechar>:
  100809:	55                   	push   ebp
  10080a:	89 e5                	mov    ebp,esp
  10080c:	83 ec 18             	sub    esp,0x18
  10080f:	8b 45 08             	mov    eax,DWORD PTR [ebp+0x8]
  100812:	88 45 f4             	mov    BYTE PTR [ebp-0xc],al
  100815:	e8 a5 ff ff ff       	call   1007bf <debug_isserial>
  10081a:	84 c0                	test   al,al
  10081c:	74 10                	je     10082e <debug_writechar+0x25>
  10081e:	0f be 45 f4          	movsx  eax,BYTE PTR [ebp-0xc]
  100822:	83 ec 0c             	sub    esp,0xc
  100825:	50                   	push   eax
  100826:	e8 ff 43 00 00       	call   104c2a <serial_writechar>
  10082b:	83 c4 10             	add    esp,0x10
  10082e:	e8 67 ff ff ff       	call   10079a <debug_isterm>
  100833:	84 c0                	test   al,al
  100835:	74 10                	je     100847 <debug_writechar+0x3e>
  100837:	0f be 45 f4          	movsx  eax,BYTE PTR [ebp-0xc]
  10083b:	83 ec 0c             	sub    esp,0xc
  10083e:	50                   	push   eax
  10083f:	e8 0a 75 00 00       	call   107d4e <vga_writechar>
  100844:	83 c4 10             	add    esp,0x10
  100847:	90                   	nop
  100848:	c9                   	leave  
  100849:	c3                   	ret    

0010084a <debug_write>:
  10084a:	55                   	push   ebp
  10084b:	89 e5                	mov    ebp,esp
  10084d:	83 ec 08             	sub    esp,0x8
  100850:	e8 6a ff ff ff       	call   1007bf <debug_isserial>
  100855:	84 c0                	test   al,al
  100857:	74 0e                	je     100867 <debug_write+0x1d>
  100859:	83 ec 0c             	sub    esp,0xc
  10085c:	ff 75 08             	push   DWORD PTR [ebp+0x8]
  10085f:	e8 4b 44 00 00       	call   104caf <serial_write>
  100864:	83 c4 10             	add    esp,0x10
  100867:	e8 2e ff ff ff       	call   10079a <debug_isterm>
  10086c:	84 c0                	test   al,al
  10086e:	74 0e                	je     10087e <debug_write+0x34>
  100870:	83 ec 0c             	sub    esp,0xc
  100873:	ff 75 08             	push   DWORD PTR [ebp+0x8]
  100876:	e8 f1 75 00 00       	call   107e6c <vga_write>
  10087b:	83 c4 10             	add    esp,0x10
  10087e:	90                   	nop
  10087f:	c9                   	leave  
  100880:	c3                   	ret    

00100881 <debug_write_col>:
  100881:	55                   	push   ebp
  100882:	89 e5                	mov    ebp,esp
  100884:	83 ec 18             	sub    esp,0x18
  100887:	8b 45 0c             	mov    eax,DWORD PTR [ebp+0xc]
  10088a:	88 45 f4             	mov    BYTE PTR [ebp-0xc],al
  10088d:	e8 2d ff ff ff       	call   1007bf <debug_isserial>
  100892:	84 c0                	test   al,al
  100894:	74 13                	je     1008a9 <debug_write_col+0x28>
  100896:	0f b6 45 f4          	movzx  eax,BYTE PTR [ebp-0xc]
  10089a:	83 ec 08             	sub    esp,0x8
  10089d:	50                   	push   eax
  10089e:	ff 75 08             	push   DWORD PTR [ebp+0x8]
  1008a1:	e8 53 44 00 00       	call   104cf9 <serial_write_col>
  1008a6:	83 c4 10             	add    esp,0x10
  1008a9:	e8 ec fe ff ff       	call   10079a <debug_isterm>
  1008ae:	84 c0                	test   al,al
  1008b0:	74 13                	je     1008c5 <debug_write_col+0x44>
  1008b2:	0f b6 45 f4          	movzx  eax,BYTE PTR [ebp-0xc]
  1008b6:	83 ec 08             	sub    esp,0x8
  1008b9:	50                   	push   eax
  1008ba:	ff 75 08             	push   DWORD PTR [ebp+0x8]
  1008bd:	e8 d7 75 00 00       	call   107e99 <vga_write_fg>
  1008c2:	83 c4 10             	add    esp,0x10
  1008c5:	90                   	nop
  1008c6:	c9                   	leave  
  1008c7:	c3                   	ret    

001008c8 <debug_writeln>:
  1008c8:	55                   	push   ebp
  1008c9:	89 e5                	mov    ebp,esp
  1008cb:	83 ec 08             	sub    esp,0x8
  1008ce:	e8 ec fe ff ff       	call   1007bf <debug_isserial>
  1008d3:	84 c0                	test   al,al
  1008d5:	74 0e                	je     1008e5 <debug_writeln+0x1d>
  1008d7:	83 ec 0c             	sub    esp,0xc
  1008da:	ff 75 08             	push   DWORD PTR [ebp+0x8]
  1008dd:	e8 54 44 00 00       	call   104d36 <serial_writeln>
  1008e2:	83 c4 10             	add    esp,0x10
  1008e5:	e8 b0 fe ff ff       	call   10079a <debug_isterm>
  1008ea:	84 c0                	test   al,al
  1008ec:	74 0e                	je     1008fc <debug_writeln+0x34>
  1008ee:	83 ec 0c             	sub    esp,0xc
  1008f1:	ff 75 08             	push   DWORD PTR [ebp+0x8]
  1008f4:	e8 51 76 00 00       	call   107f4a <vga_writeln>
  1008f9:	83 c4 10             	add    esp,0x10
  1008fc:	90                   	nop
  1008fd:	c9                   	leave  
  1008fe:	c3                   	ret    

001008ff <debug_writeln_col>:
  1008ff:	55                   	push   ebp
  100900:	89 e5                	mov    ebp,esp
  100902:	83 ec 18             	sub    esp,0x18
  100905:	8b 45 0c             	mov    eax,DWORD PTR [ebp+0xc]
  100908:	88 45 f4             	mov    BYTE PTR [ebp-0xc],al
  10090b:	e8 af fe ff ff       	call   1007bf <debug_isserial>
  100910:	84 c0                	test   al,al
  100912:	74 13                	je     100927 <debug_writeln_col+0x28>
  100914:	0f b6 45 f4          	movzx  eax,BYTE PTR [ebp-0xc]
  100918:	83 ec 08             	sub    esp,0x8
  10091b:	50                   	push   eax
  10091c:	ff 75 08             	push   DWORD PTR [ebp+0x8]
  10091f:	e8 2e 44 00 00       	call   104d52 <serial_writeln_col>
  100924:	83 c4 10             	add    esp,0x10
  100927:	e8 6e fe ff ff       	call   10079a <debug_isterm>
  10092c:	84 c0                	test   al,al
  10092e:	74 13                	je     100943 <debug_writeln_col+0x44>
  100930:	0f b6 45 f4          	movzx  eax,BYTE PTR [ebp-0xc]
  100934:	83 ec 08             	sub    esp,0x8
  100937:	50                   	push   eax
  100938:	ff 75 08             	push   DWORD PTR [ebp+0x8]
  10093b:	e8 37 76 00 00       	call   107f77 <vga_writeln_fg>
  100940:	83 c4 10             	add    esp,0x10
  100943:	90                   	nop
  100944:	c9                   	leave  
  100945:	c3                   	ret    

00100946 <debug_vprintf>:
  100946:	55                   	push   ebp
  100947:	89 e5                	mov    ebp,esp
  100949:	81 ec c8 00 00 00    	sub    esp,0xc8
  10094f:	e8 23 fe ff ff       	call   100777 <debug_getmode>
  100954:	89 45 f4             	mov    DWORD PTR [ebp-0xc],eax
  100957:	e9 bb 03 00 00       	jmp    100d17 <debug_vprintf+0x3d1>
  10095c:	8b 45 08             	mov    eax,DWORD PTR [ebp+0x8]
  10095f:	0f b6 00             	movzx  eax,BYTE PTR [eax]
  100962:	3c 25                	cmp    al,0x25
  100964:	0f 85 94 03 00 00    	jne    100cfe <debug_vprintf+0x3b8>
  10096a:	83 45 08 01          	add    DWORD PTR [ebp+0x8],0x1
  10096e:	8b 45 08             	mov    eax,DWORD PTR [ebp+0x8]
  100971:	0f b6 00             	movzx  eax,BYTE PTR [eax]
  100974:	3c 25                	cmp    al,0x25
  100976:	75 0d                	jne    100985 <debug_vprintf+0x3f>
  100978:	83 ec 0c             	sub    esp,0xc
  10097b:	6a 25                	push   0x25
  10097d:	e8 87 fe ff ff       	call   100809 <debug_writechar>
  100982:	83 c4 10             	add    esp,0x10
  100985:	8b 45 08             	mov    eax,DWORD PTR [ebp+0x8]
  100988:	0f b6 00             	movzx  eax,BYTE PTR [eax]
  10098b:	3c 63                	cmp    al,0x63
  10098d:	75 20                	jne    1009af <debug_vprintf+0x69>
  10098f:	83 45 0c 04          	add    DWORD PTR [ebp+0xc],0x4
  100993:	8b 45 0c             	mov    eax,DWORD PTR [ebp+0xc]
  100996:	83 e8 04             	sub    eax,0x4
  100999:	8b 00                	mov    eax,DWORD PTR [eax]
  10099b:	0f be c0             	movsx  eax,al
  10099e:	83 ec 0c             	sub    esp,0xc
  1009a1:	50                   	push   eax
  1009a2:	e8 62 fe ff ff       	call   100809 <debug_writechar>
  1009a7:	83 c4 10             	add    esp,0x10
  1009aa:	e9 64 03 00 00       	jmp    100d13 <debug_vprintf+0x3cd>
  1009af:	8b 45 08             	mov    eax,DWORD PTR [ebp+0x8]
  1009b2:	0f b6 00             	movzx  eax,BYTE PTR [eax]
  1009b5:	3c 64                	cmp    al,0x64
  1009b7:	74 0a                	je     1009c3 <debug_vprintf+0x7d>
  1009b9:	8b 45 08             	mov    eax,DWORD PTR [ebp+0x8]
  1009bc:	0f b6 00             	movzx  eax,BYTE PTR [eax]
  1009bf:	3c 75                	cmp    al,0x75
  1009c1:	75 45                	jne    100a08 <debug_vprintf+0xc2>
  1009c3:	83 45 0c 04          	add    DWORD PTR [ebp+0xc],0x4
  1009c7:	8b 45 0c             	mov    eax,DWORD PTR [ebp+0xc]
  1009ca:	8b 40 fc             	mov    eax,DWORD PTR [eax-0x4]
  1009cd:	89 45 c8             	mov    DWORD PTR [ebp-0x38],eax
  1009d0:	83 ec 04             	sub    esp,0x4
  1009d3:	6a 10                	push   0x10
  1009d5:	6a 00                	push   0x0
  1009d7:	8d 45 b8             	lea    eax,[ebp-0x48]
  1009da:	50                   	push   eax
  1009db:	e8 da 36 00 00       	call   1040ba <memset>
  1009e0:	83 c4 10             	add    esp,0x10
  1009e3:	83 ec 04             	sub    esp,0x4
  1009e6:	6a 0a                	push   0xa
  1009e8:	8d 45 b8             	lea    eax,[ebp-0x48]
  1009eb:	50                   	push   eax
  1009ec:	ff 75 c8             	push   DWORD PTR [ebp-0x38]
  1009ef:	e8 95 fa ff ff       	call   100489 <itoa>
  1009f4:	83 c4 10             	add    esp,0x10
  1009f7:	83 ec 0c             	sub    esp,0xc
  1009fa:	50                   	push   eax
  1009fb:	e8 4a fe ff ff       	call   10084a <debug_write>
  100a00:	83 c4 10             	add    esp,0x10
  100a03:	e9 0b 03 00 00       	jmp    100d13 <debug_vprintf+0x3cd>
  100a08:	8b 45 08             	mov    eax,DWORD PTR [ebp+0x8]
  100a0b:	0f b6 00             	movzx  eax,BYTE PTR [eax]
  100a0e:	3c 75                	cmp    al,0x75
  100a10:	75 45                	jne    100a57 <debug_vprintf+0x111>
  100a12:	83 45 0c 04          	add    DWORD PTR [ebp+0xc],0x4
  100a16:	8b 45 0c             	mov    eax,DWORD PTR [ebp+0xc]
  100a19:	8b 40 fc             	mov    eax,DWORD PTR [eax-0x4]
  100a1c:	89 45 cc             	mov    DWORD PTR [ebp-0x34],eax
  100a1f:	83 ec 04             	sub    esp,0x4
  100a22:	6a 10                	push   0x10
  100a24:	6a 00                	push   0x0
  100a26:	8d 45 a8             	lea    eax,[ebp-0x58]
  100a29:	50                   	push   eax
  100a2a:	e8 8b 36 00 00       	call   1040ba <memset>
  100a2f:	83 c4 10             	add    esp,0x10
  100a32:	83 ec 04             	sub    esp,0x4
  100a35:	6a 0a                	push   0xa
  100a37:	8d 45 a8             	lea    eax,[ebp-0x58]
  100a3a:	50                   	push   eax
  100a3b:	ff 75 cc             	push   DWORD PTR [ebp-0x34]
  100a3e:	e8 e7 fb ff ff       	call   10062a <ltoa>
  100a43:	83 c4 10             	add    esp,0x10
  100a46:	83 ec 0c             	sub    esp,0xc
  100a49:	50                   	push   eax
  100a4a:	e8 fb fd ff ff       	call   10084a <debug_write>
  100a4f:	83 c4 10             	add    esp,0x10
  100a52:	e9 bc 02 00 00       	jmp    100d13 <debug_vprintf+0x3cd>
  100a57:	8b 45 08             	mov    eax,DWORD PTR [ebp+0x8]
  100a5a:	0f b6 00             	movzx  eax,BYTE PTR [eax]
  100a5d:	3c 78                	cmp    al,0x78
  100a5f:	75 45                	jne    100aa6 <debug_vprintf+0x160>
  100a61:	83 45 0c 04          	add    DWORD PTR [ebp+0xc],0x4
  100a65:	8b 45 0c             	mov    eax,DWORD PTR [ebp+0xc]
  100a68:	8b 40 fc             	mov    eax,DWORD PTR [eax-0x4]
  100a6b:	89 45 d0             	mov    DWORD PTR [ebp-0x30],eax
  100a6e:	83 ec 04             	sub    esp,0x4
  100a71:	6a 10                	push   0x10
  100a73:	6a 00                	push   0x0
  100a75:	8d 45 98             	lea    eax,[ebp-0x68]
  100a78:	50                   	push   eax
  100a79:	e8 3c 36 00 00       	call   1040ba <memset>
  100a7e:	83 c4 10             	add    esp,0x10
  100a81:	83 ec 04             	sub    esp,0x4
  100a84:	6a 10                	push   0x10
  100a86:	8d 45 98             	lea    eax,[ebp-0x68]
  100a89:	50                   	push   eax
  100a8a:	ff 75 d0             	push   DWORD PTR [ebp-0x30]
  100a8d:	e8 98 fb ff ff       	call   10062a <ltoa>
  100a92:	83 c4 10             	add    esp,0x10
  100a95:	83 ec 0c             	sub    esp,0xc
  100a98:	50                   	push   eax
  100a99:	e8 ac fd ff ff       	call   10084a <debug_write>
  100a9e:	83 c4 10             	add    esp,0x10
  100aa1:	e9 6d 02 00 00       	jmp    100d13 <debug_vprintf+0x3cd>
  100aa6:	8b 45 08             	mov    eax,DWORD PTR [ebp+0x8]
  100aa9:	0f b6 00             	movzx  eax,BYTE PTR [eax]
  100aac:	3c 32                	cmp    al,0x32
  100aae:	75 76                	jne    100b26 <debug_vprintf+0x1e0>
  100ab0:	83 45 08 01          	add    DWORD PTR [ebp+0x8],0x1
  100ab4:	8b 45 08             	mov    eax,DWORD PTR [ebp+0x8]
  100ab7:	0f b6 00             	movzx  eax,BYTE PTR [eax]
  100aba:	3c 78                	cmp    al,0x78
  100abc:	74 24                	je     100ae2 <debug_vprintf+0x19c>
  100abe:	8b 45 08             	mov    eax,DWORD PTR [ebp+0x8]
  100ac1:	0f b6 00             	movzx  eax,BYTE PTR [eax]
  100ac4:	3c 58                	cmp    al,0x58
  100ac6:	74 1a                	je     100ae2 <debug_vprintf+0x19c>
  100ac8:	8b 45 08             	mov    eax,DWORD PTR [ebp+0x8]
  100acb:	0f b6 00             	movzx  eax,BYTE PTR [eax]
  100ace:	0f be c0             	movsx  eax,al
  100ad1:	83 ec 0c             	sub    esp,0xc
  100ad4:	50                   	push   eax
  100ad5:	e8 2f fd ff ff       	call   100809 <debug_writechar>
  100ada:	83 c4 10             	add    esp,0x10
  100add:	e9 31 02 00 00       	jmp    100d13 <debug_vprintf+0x3cd>
  100ae2:	83 45 0c 04          	add    DWORD PTR [ebp+0xc],0x4
  100ae6:	8b 45 0c             	mov    eax,DWORD PTR [ebp+0xc]
  100ae9:	8b 40 fc             	mov    eax,DWORD PTR [eax-0x4]
  100aec:	89 45 d4             	mov    DWORD PTR [ebp-0x2c],eax
  100aef:	83 ec 04             	sub    esp,0x4
  100af2:	6a 10                	push   0x10
  100af4:	6a 00                	push   0x0
  100af6:	8d 45 88             	lea    eax,[ebp-0x78]
  100af9:	50                   	push   eax
  100afa:	e8 bb 35 00 00       	call   1040ba <memset>
  100aff:	83 c4 10             	add    esp,0x10
  100b02:	6a 01                	push   0x1
  100b04:	6a 00                	push   0x0
  100b06:	8d 45 88             	lea    eax,[ebp-0x78]
  100b09:	50                   	push   eax
  100b0a:	ff 75 d4             	push   DWORD PTR [ebp-0x2c]
  100b0d:	e8 9e 58 00 00       	call   1063b0 <strhex>
  100b12:	83 c4 10             	add    esp,0x10
  100b15:	83 ec 0c             	sub    esp,0xc
  100b18:	50                   	push   eax
  100b19:	e8 2c fd ff ff       	call   10084a <debug_write>
  100b1e:	83 c4 10             	add    esp,0x10
  100b21:	e9 ed 01 00 00       	jmp    100d13 <debug_vprintf+0x3cd>
  100b26:	8b 45 08             	mov    eax,DWORD PTR [ebp+0x8]
  100b29:	0f b6 00             	movzx  eax,BYTE PTR [eax]
  100b2c:	3c 34                	cmp    al,0x34
  100b2e:	75 7c                	jne    100bac <debug_vprintf+0x266>
  100b30:	83 45 08 01          	add    DWORD PTR [ebp+0x8],0x1
  100b34:	8b 45 08             	mov    eax,DWORD PTR [ebp+0x8]
  100b37:	0f b6 00             	movzx  eax,BYTE PTR [eax]
  100b3a:	3c 78                	cmp    al,0x78
  100b3c:	74 24                	je     100b62 <debug_vprintf+0x21c>
  100b3e:	8b 45 08             	mov    eax,DWORD PTR [ebp+0x8]
  100b41:	0f b6 00             	movzx  eax,BYTE PTR [eax]
  100b44:	3c 58                	cmp    al,0x58
  100b46:	74 1a                	je     100b62 <debug_vprintf+0x21c>
  100b48:	8b 45 08             	mov    eax,DWORD PTR [ebp+0x8]
  100b4b:	0f b6 00             	movzx  eax,BYTE PTR [eax]
  100b4e:	0f be c0             	movsx  eax,al
  100b51:	83 ec 0c             	sub    esp,0xc
  100b54:	50                   	push   eax
  100b55:	e8 af fc ff ff       	call   100809 <debug_writechar>
  100b5a:	83 c4 10             	add    esp,0x10
  100b5d:	e9 b1 01 00 00       	jmp    100d13 <debug_vprintf+0x3cd>
  100b62:	83 45 0c 04          	add    DWORD PTR [ebp+0xc],0x4
  100b66:	8b 45 0c             	mov    eax,DWORD PTR [ebp+0xc]
  100b69:	8b 40 fc             	mov    eax,DWORD PTR [eax-0x4]
  100b6c:	89 45 d8             	mov    DWORD PTR [ebp-0x28],eax
  100b6f:	83 ec 04             	sub    esp,0x4
  100b72:	6a 10                	push   0x10
  100b74:	6a 00                	push   0x0
  100b76:	8d 85 78 ff ff ff    	lea    eax,[ebp-0x88]
  100b7c:	50                   	push   eax
  100b7d:	e8 38 35 00 00       	call   1040ba <memset>
  100b82:	83 c4 10             	add    esp,0x10
  100b85:	6a 02                	push   0x2
  100b87:	6a 00                	push   0x0
  100b89:	8d 85 78 ff ff ff    	lea    eax,[ebp-0x88]
  100b8f:	50                   	push   eax
  100b90:	ff 75 d8             	push   DWORD PTR [ebp-0x28]
  100b93:	e8 18 58 00 00       	call   1063b0 <strhex>
  100b98:	83 c4 10             	add    esp,0x10
  100b9b:	83 ec 0c             	sub    esp,0xc
  100b9e:	50                   	push   eax
  100b9f:	e8 a6 fc ff ff       	call   10084a <debug_write>
  100ba4:	83 c4 10             	add    esp,0x10
  100ba7:	e9 67 01 00 00       	jmp    100d13 <debug_vprintf+0x3cd>
  100bac:	8b 45 08             	mov    eax,DWORD PTR [ebp+0x8]
  100baf:	0f b6 00             	movzx  eax,BYTE PTR [eax]
  100bb2:	3c 38                	cmp    al,0x38
  100bb4:	75 7c                	jne    100c32 <debug_vprintf+0x2ec>
  100bb6:	83 45 08 01          	add    DWORD PTR [ebp+0x8],0x1
  100bba:	8b 45 08             	mov    eax,DWORD PTR [ebp+0x8]
  100bbd:	0f b6 00             	movzx  eax,BYTE PTR [eax]
  100bc0:	3c 78                	cmp    al,0x78
  100bc2:	74 24                	je     100be8 <debug_vprintf+0x2a2>
  100bc4:	8b 45 08             	mov    eax,DWORD PTR [ebp+0x8]
  100bc7:	0f b6 00             	movzx  eax,BYTE PTR [eax]
  100bca:	3c 58                	cmp    al,0x58
  100bcc:	74 1a                	je     100be8 <debug_vprintf+0x2a2>
  100bce:	8b 45 08             	mov    eax,DWORD PTR [ebp+0x8]
  100bd1:	0f b6 00             	movzx  eax,BYTE PTR [eax]
  100bd4:	0f be c0             	movsx  eax,al
  100bd7:	83 ec 0c             	sub    esp,0xc
  100bda:	50                   	push   eax
  100bdb:	e8 29 fc ff ff       	call   100809 <debug_writechar>
  100be0:	83 c4 10             	add    esp,0x10
  100be3:	e9 2b 01 00 00       	jmp    100d13 <debug_vprintf+0x3cd>
  100be8:	83 45 0c 04          	add    DWORD PTR [ebp+0xc],0x4
  100bec:	8b 45 0c             	mov    eax,DWORD PTR [ebp+0xc]
  100bef:	8b 40 fc             	mov    eax,DWORD PTR [eax-0x4]
  100bf2:	89 45 dc             	mov    DWORD PTR [ebp-0x24],eax
  100bf5:	83 ec 04             	sub    esp,0x4
  100bf8:	6a 10                	push   0x10
  100bfa:	6a 00                	push   0x0
  100bfc:	8d 85 68 ff ff ff    	lea    eax,[ebp-0x98]
  100c02:	50                   	push   eax
  100c03:	e8 b2 34 00 00       	call   1040ba <memset>
  100c08:	83 c4 10             	add    esp,0x10
  100c0b:	6a 04                	push   0x4
  100c0d:	6a 00                	push   0x0
  100c0f:	8d 85 68 ff ff ff    	lea    eax,[ebp-0x98]
  100c15:	50                   	push   eax
  100c16:	ff 75 dc             	push   DWORD PTR [ebp-0x24]
  100c19:	e8 92 57 00 00       	call   1063b0 <strhex>
  100c1e:	83 c4 10             	add    esp,0x10
  100c21:	83 ec 0c             	sub    esp,0xc
  100c24:	50                   	push   eax
  100c25:	e8 20 fc ff ff       	call   10084a <debug_write>
  100c2a:	83 c4 10             	add    esp,0x10
  100c2d:	e9 e1 00 00 00       	jmp    100d13 <debug_vprintf+0x3cd>
  100c32:	8b 45 08             	mov    eax,DWORD PTR [ebp+0x8]
  100c35:	0f b6 00             	movzx  eax,BYTE PTR [eax]
  100c38:	3c 66                	cmp    al,0x66
  100c3a:	75 5b                	jne    100c97 <debug_vprintf+0x351>
  100c3c:	83 45 0c 08          	add    DWORD PTR [ebp+0xc],0x8
  100c40:	8b 45 0c             	mov    eax,DWORD PTR [ebp+0xc]
  100c43:	dd 40 f8             	fld    QWORD PTR [eax-0x8]
  100c46:	dd 5d e0             	fstp   QWORD PTR [ebp-0x20]
  100c49:	83 ec 04             	sub    esp,0x4
  100c4c:	6a 20                	push   0x20
  100c4e:	6a 00                	push   0x0
  100c50:	8d 85 48 ff ff ff    	lea    eax,[ebp-0xb8]
  100c56:	50                   	push   eax
  100c57:	e8 5e 34 00 00       	call   1040ba <memset>
  100c5c:	83 c4 10             	add    esp,0x10
  100c5f:	dd 45 e0             	fld    QWORD PTR [ebp-0x20]
  100c62:	d9 9d 44 ff ff ff    	fstp   DWORD PTR [ebp-0xbc]
  100c68:	d9 85 44 ff ff ff    	fld    DWORD PTR [ebp-0xbc]
  100c6e:	83 ec 04             	sub    esp,0x4
  100c71:	6a 02                	push   0x2
  100c73:	8d 85 48 ff ff ff    	lea    eax,[ebp-0xb8]
  100c79:	50                   	push   eax
  100c7a:	8d 64 24 fc          	lea    esp,[esp-0x4]
  100c7e:	d9 1c 24             	fstp   DWORD PTR [esp]
  100c81:	e8 52 f7 ff ff       	call   1003d8 <ftoa>
  100c86:	83 c4 10             	add    esp,0x10
  100c89:	83 ec 0c             	sub    esp,0xc
  100c8c:	50                   	push   eax
  100c8d:	e8 b8 fb ff ff       	call   10084a <debug_write>
  100c92:	83 c4 10             	add    esp,0x10
  100c95:	eb 7c                	jmp    100d13 <debug_vprintf+0x3cd>
  100c97:	8b 45 08             	mov    eax,DWORD PTR [ebp+0x8]
  100c9a:	0f b6 00             	movzx  eax,BYTE PTR [eax]
  100c9d:	3c 73                	cmp    al,0x73
  100c9f:	75 1d                	jne    100cbe <debug_vprintf+0x378>
  100ca1:	83 45 0c 04          	add    DWORD PTR [ebp+0xc],0x4
  100ca5:	8b 45 0c             	mov    eax,DWORD PTR [ebp+0xc]
  100ca8:	8b 40 fc             	mov    eax,DWORD PTR [eax-0x4]
  100cab:	89 45 ec             	mov    DWORD PTR [ebp-0x14],eax
  100cae:	83 ec 0c             	sub    esp,0xc
  100cb1:	ff 75 ec             	push   DWORD PTR [ebp-0x14]
  100cb4:	e8 91 fb ff ff       	call   10084a <debug_write>
  100cb9:	83 c4 10             	add    esp,0x10
  100cbc:	eb 55                	jmp    100d13 <debug_vprintf+0x3cd>
  100cbe:	8b 45 08             	mov    eax,DWORD PTR [ebp+0x8]
  100cc1:	0f b6 00             	movzx  eax,BYTE PTR [eax]
  100cc4:	3c 61                	cmp    al,0x61
  100cc6:	75 1f                	jne    100ce7 <debug_vprintf+0x3a1>
  100cc8:	83 45 0c 04          	add    DWORD PTR [ebp+0xc],0x4
  100ccc:	8b 45 0c             	mov    eax,DWORD PTR [ebp+0xc]
  100ccf:	83 e8 04             	sub    eax,0x4
  100cd2:	8b 00                	mov    eax,DWORD PTR [eax]
  100cd4:	89 45 f0             	mov    DWORD PTR [ebp-0x10],eax
  100cd7:	83 ec 0c             	sub    esp,0xc
  100cda:	ff 75 f0             	push   DWORD PTR [ebp-0x10]
  100cdd:	e8 69 fa ff ff       	call   10074b <debug_setmode>
  100ce2:	83 c4 10             	add    esp,0x10
  100ce5:	eb 2c                	jmp    100d13 <debug_vprintf+0x3cd>
  100ce7:	8b 45 08             	mov    eax,DWORD PTR [ebp+0x8]
  100cea:	0f b6 00             	movzx  eax,BYTE PTR [eax]
  100ced:	0f be c0             	movsx  eax,al
  100cf0:	83 ec 0c             	sub    esp,0xc
  100cf3:	50                   	push   eax
  100cf4:	e8 10 fb ff ff       	call   100809 <debug_writechar>
  100cf9:	83 c4 10             	add    esp,0x10
  100cfc:	eb 15                	jmp    100d13 <debug_vprintf+0x3cd>
  100cfe:	8b 45 08             	mov    eax,DWORD PTR [ebp+0x8]
  100d01:	0f b6 00             	movzx  eax,BYTE PTR [eax]
  100d04:	0f be c0             	movsx  eax,al
  100d07:	83 ec 0c             	sub    esp,0xc
  100d0a:	50                   	push   eax
  100d0b:	e8 f9 fa ff ff       	call   100809 <debug_writechar>
  100d10:	83 c4 10             	add    esp,0x10
  100d13:	83 45 08 01          	add    DWORD PTR [ebp+0x8],0x1
  100d17:	8b 45 08             	mov    eax,DWORD PTR [ebp+0x8]
  100d1a:	0f b6 00             	movzx  eax,BYTE PTR [eax]
  100d1d:	84 c0                	test   al,al
  100d1f:	0f 85 37 fc ff ff    	jne    10095c <debug_vprintf+0x16>
  100d25:	83 ec 0c             	sub    esp,0xc
  100d28:	ff 75 f4             	push   DWORD PTR [ebp-0xc]
  100d2b:	e8 1b fa ff ff       	call   10074b <debug_setmode>
  100d30:	83 c4 10             	add    esp,0x10
  100d33:	90                   	nop
  100d34:	c9                   	leave  
  100d35:	c3                   	ret    

00100d36 <debug_printf>:
  100d36:	55                   	push   ebp
  100d37:	89 e5                	mov    ebp,esp
  100d39:	83 ec 18             	sub    esp,0x18
  100d3c:	8d 45 0c             	lea    eax,[ebp+0xc]
  100d3f:	89 45 f4             	mov    DWORD PTR [ebp-0xc],eax
  100d42:	8b 45 08             	mov    eax,DWORD PTR [ebp+0x8]
  100d45:	83 ec 08             	sub    esp,0x8
  100d48:	ff 75 f4             	push   DWORD PTR [ebp-0xc]
  100d4b:	50                   	push   eax
  100d4c:	e8 f5 fb ff ff       	call   100946 <debug_vprintf>
  100d51:	83 c4 10             	add    esp,0x10
  100d54:	90                   	nop
  100d55:	c9                   	leave  
  100d56:	c3                   	ret    

00100d57 <debug_header>:
  100d57:	55                   	push   ebp
  100d58:	89 e5                	mov    ebp,esp
  100d5a:	83 ec 18             	sub    esp,0x18
  100d5d:	8b 45 0c             	mov    eax,DWORD PTR [ebp+0xc]
  100d60:	88 45 f4             	mov    BYTE PTR [ebp-0xc],al
  100d63:	83 ec 0c             	sub    esp,0xc
  100d66:	68 bc ce 10 00       	push   0x10cebc
  100d6b:	e8 da fa ff ff       	call   10084a <debug_write>
  100d70:	83 c4 10             	add    esp,0x10
  100d73:	0f b6 45 f4          	movzx  eax,BYTE PTR [ebp-0xc]
  100d77:	83 ec 08             	sub    esp,0x8
  100d7a:	50                   	push   eax
  100d7b:	ff 75 08             	push   DWORD PTR [ebp+0x8]
  100d7e:	e8 fe fa ff ff       	call   100881 <debug_write_col>
  100d83:	83 c4 10             	add    esp,0x10
  100d86:	83 ec 0c             	sub    esp,0xc
  100d89:	68 be ce 10 00       	push   0x10cebe
  100d8e:	e8 b7 fa ff ff       	call   10084a <debug_write>
  100d93:	83 c4 10             	add    esp,0x10
  100d96:	90                   	nop
  100d97:	c9                   	leave  
  100d98:	c3                   	ret    

00100d99 <debug_headerf>:
  100d99:	55                   	push   ebp
  100d9a:	89 e5                	mov    ebp,esp
  100d9c:	83 ec 28             	sub    esp,0x28
  100d9f:	8b 45 0c             	mov    eax,DWORD PTR [ebp+0xc]
  100da2:	88 45 e4             	mov    BYTE PTR [ebp-0x1c],al
  100da5:	e8 cd f9 ff ff       	call   100777 <debug_getmode>
  100daa:	89 45 f4             	mov    DWORD PTR [ebp-0xc],eax
  100dad:	0f b6 45 e4          	movzx  eax,BYTE PTR [ebp-0x1c]
  100db1:	83 ec 08             	sub    esp,0x8
  100db4:	50                   	push   eax
  100db5:	ff 75 08             	push   DWORD PTR [ebp+0x8]
  100db8:	e8 9a ff ff ff       	call   100d57 <debug_header>
  100dbd:	83 c4 10             	add    esp,0x10
  100dc0:	83 ec 08             	sub    esp,0x8
  100dc3:	ff 75 14             	push   DWORD PTR [ebp+0x14]
  100dc6:	ff 75 10             	push   DWORD PTR [ebp+0x10]
  100dc9:	e8 78 fb ff ff       	call   100946 <debug_vprintf>
  100dce:	83 c4 10             	add    esp,0x10
  100dd1:	e8 0e fa ff ff       	call   1007e4 <debug_newline>
  100dd6:	83 ec 0c             	sub    esp,0xc
  100dd9:	ff 75 f4             	push   DWORD PTR [ebp-0xc]
  100ddc:	e8 6a f9 ff ff       	call   10074b <debug_setmode>
  100de1:	83 c4 10             	add    esp,0x10
  100de4:	90                   	nop
  100de5:	c9                   	leave  
  100de6:	c3                   	ret    

00100de7 <debug_ok>:
  100de7:	55                   	push   ebp
  100de8:	89 e5                	mov    ebp,esp
  100dea:	83 ec 18             	sub    esp,0x18
  100ded:	8d 45 0c             	lea    eax,[ebp+0xc]
  100df0:	89 45 f4             	mov    DWORD PTR [ebp-0xc],eax
  100df3:	8b 45 08             	mov    eax,DWORD PTR [ebp+0x8]
  100df6:	ff 75 f4             	push   DWORD PTR [ebp-0xc]
  100df9:	50                   	push   eax
  100dfa:	6a 0a                	push   0xa
  100dfc:	68 c1 ce 10 00       	push   0x10cec1
  100e01:	e8 93 ff ff ff       	call   100d99 <debug_headerf>
  100e06:	83 c4 10             	add    esp,0x10
  100e09:	90                   	nop
  100e0a:	c9                   	leave  
  100e0b:	c3                   	ret    

00100e0c <debug_info>:
  100e0c:	55                   	push   ebp
  100e0d:	89 e5                	mov    ebp,esp
  100e0f:	83 ec 18             	sub    esp,0x18
  100e12:	8d 45 0c             	lea    eax,[ebp+0xc]
  100e15:	89 45 f4             	mov    DWORD PTR [ebp-0xc],eax
  100e18:	8b 45 08             	mov    eax,DWORD PTR [ebp+0x8]
  100e1b:	ff 75 f4             	push   DWORD PTR [ebp-0xc]
  100e1e:	50                   	push   eax
  100e1f:	6a 0b                	push   0xb
  100e21:	68 c8 ce 10 00       	push   0x10cec8
  100e26:	e8 6e ff ff ff       	call   100d99 <debug_headerf>
  100e2b:	83 c4 10             	add    esp,0x10
  100e2e:	90                   	nop
  100e2f:	c9                   	leave  
  100e30:	c3                   	ret    

00100e31 <debug_warn>:
  100e31:	55                   	push   ebp
  100e32:	89 e5                	mov    ebp,esp
  100e34:	83 ec 18             	sub    esp,0x18
  100e37:	8d 45 0c             	lea    eax,[ebp+0xc]
  100e3a:	89 45 f4             	mov    DWORD PTR [ebp-0xc],eax
  100e3d:	8b 45 08             	mov    eax,DWORD PTR [ebp+0x8]
  100e40:	ff 75 f4             	push   DWORD PTR [ebp-0xc]
  100e43:	50                   	push   eax
  100e44:	6a 0e                	push   0xe
  100e46:	68 cf ce 10 00       	push   0x10cecf
  100e4b:	e8 49 ff ff ff       	call   100d99 <debug_headerf>
  100e50:	83 c4 10             	add    esp,0x10
  100e53:	90                   	nop
  100e54:	c9                   	leave  
  100e55:	c3                   	ret    

00100e56 <debug_error>:
  100e56:	55                   	push   ebp
  100e57:	89 e5                	mov    ebp,esp
  100e59:	83 ec 18             	sub    esp,0x18
  100e5c:	8d 45 0c             	lea    eax,[ebp+0xc]
  100e5f:	89 45 f4             	mov    DWORD PTR [ebp-0xc],eax
  100e62:	8b 45 08             	mov    eax,DWORD PTR [ebp+0x8]
  100e65:	ff 75 f4             	push   DWORD PTR [ebp-0xc]
  100e68:	50                   	push   eax
  100e69:	6a 0c                	push   0xc
  100e6b:	68 d6 ce 10 00       	push   0x10ced6
  100e70:	e8 24 ff ff ff       	call   100d99 <debug_headerf>
  100e75:	83 c4 10             	add    esp,0x10
  100e78:	90                   	nop
  100e79:	c9                   	leave  
  100e7a:	c3                   	ret    

00100e7b <debug_dumpmem>:
  100e7b:	55                   	push   ebp
  100e7c:	89 e5                	mov    ebp,esp
  100e7e:	53                   	push   ebx
  100e7f:	83 ec 34             	sub    esp,0x34
  100e82:	89 e0                	mov    eax,esp
  100e84:	89 c3                	mov    ebx,eax
  100e86:	e8 ec f8 ff ff       	call   100777 <debug_getmode>
  100e8b:	89 45 ec             	mov    DWORD PTR [ebp-0x14],eax
  100e8e:	ff 75 10             	push   DWORD PTR [ebp+0x10]
  100e91:	e8 b5 f8 ff ff       	call   10074b <debug_setmode>
  100e96:	83 c4 04             	add    esp,0x4
  100e99:	c7 45 e8 10 00 00 00 	mov    DWORD PTR [ebp-0x18],0x10
  100ea0:	8b 45 e8             	mov    eax,DWORD PTR [ebp-0x18]
  100ea3:	8d 50 ff             	lea    edx,[eax-0x1]
  100ea6:	89 55 e4             	mov    DWORD PTR [ebp-0x1c],edx
  100ea9:	89 c2                	mov    edx,eax
  100eab:	b8 10 00 00 00       	mov    eax,0x10
  100eb0:	83 e8 01             	sub    eax,0x1
  100eb3:	01 d0                	add    eax,edx
  100eb5:	b9 10 00 00 00       	mov    ecx,0x10
  100eba:	ba 00 00 00 00       	mov    edx,0x0
  100ebf:	f7 f1                	div    ecx
  100ec1:	6b c0 10             	imul   eax,eax,0x10
  100ec4:	29 c4                	sub    esp,eax
  100ec6:	89 e0                	mov    eax,esp
  100ec8:	83 c0 00             	add    eax,0x0
  100ecb:	89 45 e0             	mov    DWORD PTR [ebp-0x20],eax
  100ece:	83 ec 04             	sub    esp,0x4
  100ed1:	6a 10                	push   0x10
  100ed3:	6a 00                	push   0x0
  100ed5:	8d 45 c8             	lea    eax,[ebp-0x38]
  100ed8:	50                   	push   eax
  100ed9:	e8 dc 31 00 00       	call   1040ba <memset>
  100ede:	83 c4 10             	add    esp,0x10
  100ee1:	8b 55 e8             	mov    edx,DWORD PTR [ebp-0x18]
  100ee4:	8b 45 e0             	mov    eax,DWORD PTR [ebp-0x20]
  100ee7:	83 ec 04             	sub    esp,0x4
  100eea:	52                   	push   edx
  100eeb:	6a 00                	push   0x0
  100eed:	50                   	push   eax
  100eee:	e8 c7 31 00 00       	call   1040ba <memset>
  100ef3:	83 c4 10             	add    esp,0x10
  100ef6:	83 ec 0c             	sub    esp,0xc
  100ef9:	68 dd ce 10 00       	push   0x10cedd
  100efe:	e8 47 f9 ff ff       	call   10084a <debug_write>
  100f03:	83 c4 10             	add    esp,0x10
  100f06:	8b 45 08             	mov    eax,DWORD PTR [ebp+0x8]
  100f09:	6a 04                	push   0x4
  100f0b:	6a 00                	push   0x0
  100f0d:	8d 55 c8             	lea    edx,[ebp-0x38]
  100f10:	52                   	push   edx
  100f11:	50                   	push   eax
  100f12:	e8 99 54 00 00       	call   1063b0 <strhex>
  100f17:	83 c4 10             	add    esp,0x10
  100f1a:	83 ec 08             	sub    esp,0x8
  100f1d:	6a 0b                	push   0xb
  100f1f:	8d 45 c8             	lea    eax,[ebp-0x38]
  100f22:	50                   	push   eax
  100f23:	e8 59 f9 ff ff       	call   100881 <debug_write_col>
  100f28:	83 c4 10             	add    esp,0x10
  100f2b:	e8 b4 f8 ff ff       	call   1007e4 <debug_newline>
  100f30:	c7 45 dc 00 00 00 00 	mov    DWORD PTR [ebp-0x24],0x0
  100f37:	c7 45 d8 00 00 00 00 	mov    DWORD PTR [ebp-0x28],0x0
  100f3e:	c7 45 f0 00 00 00 00 	mov    DWORD PTR [ebp-0x10],0x0
  100f45:	e9 b3 01 00 00       	jmp    1010fd <debug_dumpmem+0x282>
  100f4a:	8b 45 e8             	mov    eax,DWORD PTR [ebp-0x18]
  100f4d:	8b 55 f0             	mov    edx,DWORD PTR [ebp-0x10]
  100f50:	0f af c2             	imul   eax,edx
  100f53:	89 45 d8             	mov    DWORD PTR [ebp-0x28],eax
  100f56:	8b 45 e0             	mov    eax,DWORD PTR [ebp-0x20]
  100f59:	c6 00 00             	mov    BYTE PTR [eax],0x0
  100f5c:	8b 55 08             	mov    edx,DWORD PTR [ebp+0x8]
  100f5f:	8b 45 d8             	mov    eax,DWORD PTR [ebp-0x28]
  100f62:	01 d0                	add    eax,edx
  100f64:	89 c2                	mov    edx,eax
  100f66:	6a 04                	push   0x4
  100f68:	6a 01                	push   0x1
  100f6a:	8d 45 c8             	lea    eax,[ebp-0x38]
  100f6d:	50                   	push   eax
  100f6e:	52                   	push   edx
  100f6f:	e8 3c 54 00 00       	call   1063b0 <strhex>
  100f74:	83 c4 10             	add    esp,0x10
  100f77:	83 ec 08             	sub    esp,0x8
  100f7a:	6a 0b                	push   0xb
  100f7c:	8d 45 c8             	lea    eax,[ebp-0x38]
  100f7f:	50                   	push   eax
  100f80:	e8 fc f8 ff ff       	call   100881 <debug_write_col>
  100f85:	83 c4 10             	add    esp,0x10
  100f88:	83 ec 0c             	sub    esp,0xc
  100f8b:	68 f1 ce 10 00       	push   0x10cef1
  100f90:	e8 b5 f8 ff ff       	call   10084a <debug_write>
  100f95:	83 c4 10             	add    esp,0x10
  100f98:	8b 55 e8             	mov    edx,DWORD PTR [ebp-0x18]
  100f9b:	8b 45 d8             	mov    eax,DWORD PTR [ebp-0x28]
  100f9e:	01 d0                	add    eax,edx
  100fa0:	8d 50 ff             	lea    edx,[eax-0x1]
  100fa3:	8b 45 08             	mov    eax,DWORD PTR [ebp+0x8]
  100fa6:	01 d0                	add    eax,edx
  100fa8:	89 c2                	mov    edx,eax
  100faa:	6a 04                	push   0x4
  100fac:	6a 00                	push   0x0
  100fae:	8d 45 c8             	lea    eax,[ebp-0x38]
  100fb1:	50                   	push   eax
  100fb2:	52                   	push   edx
  100fb3:	e8 f8 53 00 00       	call   1063b0 <strhex>
  100fb8:	83 c4 10             	add    esp,0x10
  100fbb:	83 ec 08             	sub    esp,0x8
  100fbe:	6a 0b                	push   0xb
  100fc0:	8d 45 c8             	lea    eax,[ebp-0x38]
  100fc3:	50                   	push   eax
  100fc4:	e8 b8 f8 ff ff       	call   100881 <debug_write_col>
  100fc9:	83 c4 10             	add    esp,0x10
  100fcc:	83 ec 0c             	sub    esp,0xc
  100fcf:	68 f3 ce 10 00       	push   0x10cef3
  100fd4:	e8 71 f8 ff ff       	call   10084a <debug_write>
  100fd9:	83 c4 10             	add    esp,0x10
  100fdc:	c7 45 f4 00 00 00 00 	mov    DWORD PTR [ebp-0xc],0x0
  100fe3:	e9 df 00 00 00       	jmp    1010c7 <debug_dumpmem+0x24c>
  100fe8:	83 ec 04             	sub    esp,0x4
  100feb:	6a 10                	push   0x10
  100fed:	6a 00                	push   0x0
  100fef:	8d 45 c8             	lea    eax,[ebp-0x38]
  100ff2:	50                   	push   eax
  100ff3:	e8 c2 30 00 00       	call   1040ba <memset>
  100ff8:	83 c4 10             	add    esp,0x10
  100ffb:	8b 55 d8             	mov    edx,DWORD PTR [ebp-0x28]
  100ffe:	8b 45 f4             	mov    eax,DWORD PTR [ebp-0xc]
  101001:	01 c2                	add    edx,eax
  101003:	8b 45 08             	mov    eax,DWORD PTR [ebp+0x8]
  101006:	01 d0                	add    eax,edx
  101008:	0f b6 00             	movzx  eax,BYTE PTR [eax]
  10100b:	0f b6 c0             	movzx  eax,al
  10100e:	6a 01                	push   0x1
  101010:	6a 00                	push   0x0
  101012:	8d 55 c8             	lea    edx,[ebp-0x38]
  101015:	52                   	push   edx
  101016:	50                   	push   eax
  101017:	e8 94 53 00 00       	call   1063b0 <strhex>
  10101c:	83 c4 10             	add    esp,0x10
  10101f:	8b 55 d8             	mov    edx,DWORD PTR [ebp-0x28]
  101022:	8b 45 f4             	mov    eax,DWORD PTR [ebp-0xc]
  101025:	01 c2                	add    edx,eax
  101027:	8b 45 08             	mov    eax,DWORD PTR [ebp+0x8]
  10102a:	01 d0                	add    eax,edx
  10102c:	0f b6 00             	movzx  eax,BYTE PTR [eax]
  10102f:	84 c0                	test   al,al
  101031:	74 11                	je     101044 <debug_dumpmem+0x1c9>
  101033:	83 ec 0c             	sub    esp,0xc
  101036:	8d 45 c8             	lea    eax,[ebp-0x38]
  101039:	50                   	push   eax
  10103a:	e8 0b f8 ff ff       	call   10084a <debug_write>
  10103f:	83 c4 10             	add    esp,0x10
  101042:	eb 11                	jmp    101055 <debug_dumpmem+0x1da>
  101044:	83 ec 08             	sub    esp,0x8
  101047:	6a 0c                	push   0xc
  101049:	8d 45 c8             	lea    eax,[ebp-0x38]
  10104c:	50                   	push   eax
  10104d:	e8 2f f8 ff ff       	call   100881 <debug_write_col>
  101052:	83 c4 10             	add    esp,0x10
  101055:	83 ec 0c             	sub    esp,0xc
  101058:	68 f8 ce 10 00       	push   0x10cef8
  10105d:	e8 e8 f7 ff ff       	call   10084a <debug_write>
  101062:	83 c4 10             	add    esp,0x10
  101065:	8b 55 d8             	mov    edx,DWORD PTR [ebp-0x28]
  101068:	8b 45 f4             	mov    eax,DWORD PTR [ebp-0xc]
  10106b:	01 c2                	add    edx,eax
  10106d:	8b 45 08             	mov    eax,DWORD PTR [ebp+0x8]
  101070:	01 d0                	add    eax,edx
  101072:	0f b6 00             	movzx  eax,BYTE PTR [eax]
  101075:	3c 1f                	cmp    al,0x1f
  101077:	76 39                	jbe    1010b2 <debug_dumpmem+0x237>
  101079:	8b 55 d8             	mov    edx,DWORD PTR [ebp-0x28]
  10107c:	8b 45 f4             	mov    eax,DWORD PTR [ebp-0xc]
  10107f:	01 c2                	add    edx,eax
  101081:	8b 45 08             	mov    eax,DWORD PTR [ebp+0x8]
  101084:	01 d0                	add    eax,edx
  101086:	0f b6 00             	movzx  eax,BYTE PTR [eax]
  101089:	3c 7e                	cmp    al,0x7e
  10108b:	77 25                	ja     1010b2 <debug_dumpmem+0x237>
  10108d:	8b 55 d8             	mov    edx,DWORD PTR [ebp-0x28]
  101090:	8b 45 f4             	mov    eax,DWORD PTR [ebp-0xc]
  101093:	01 c2                	add    edx,eax
  101095:	8b 45 08             	mov    eax,DWORD PTR [ebp+0x8]
  101098:	01 d0                	add    eax,edx
  10109a:	0f b6 00             	movzx  eax,BYTE PTR [eax]
  10109d:	0f b6 d0             	movzx  edx,al
  1010a0:	8b 45 e0             	mov    eax,DWORD PTR [ebp-0x20]
  1010a3:	83 ec 08             	sub    esp,0x8
  1010a6:	52                   	push   edx
  1010a7:	50                   	push   eax
  1010a8:	e8 f2 54 00 00       	call   10659f <stradd>
  1010ad:	83 c4 10             	add    esp,0x10
  1010b0:	eb 11                	jmp    1010c3 <debug_dumpmem+0x248>
  1010b2:	8b 45 e0             	mov    eax,DWORD PTR [ebp-0x20]
  1010b5:	83 ec 08             	sub    esp,0x8
  1010b8:	6a 2e                	push   0x2e
  1010ba:	50                   	push   eax
  1010bb:	e8 df 54 00 00       	call   10659f <stradd>
  1010c0:	83 c4 10             	add    esp,0x10
  1010c3:	83 45 f4 01          	add    DWORD PTR [ebp-0xc],0x1
  1010c7:	8b 45 e8             	mov    eax,DWORD PTR [ebp-0x18]
  1010ca:	39 45 f4             	cmp    DWORD PTR [ebp-0xc],eax
  1010cd:	0f 82 15 ff ff ff    	jb     100fe8 <debug_dumpmem+0x16d>
  1010d3:	83 ec 0c             	sub    esp,0xc
  1010d6:	68 f3 ce 10 00       	push   0x10cef3
  1010db:	e8 6a f7 ff ff       	call   10084a <debug_write>
  1010e0:	83 c4 10             	add    esp,0x10
  1010e3:	8b 45 e0             	mov    eax,DWORD PTR [ebp-0x20]
  1010e6:	83 ec 08             	sub    esp,0x8
  1010e9:	6a 0e                	push   0xe
  1010eb:	50                   	push   eax
  1010ec:	e8 90 f7 ff ff       	call   100881 <debug_write_col>
  1010f1:	83 c4 10             	add    esp,0x10
  1010f4:	e8 eb f6 ff ff       	call   1007e4 <debug_newline>
  1010f9:	83 45 f0 01          	add    DWORD PTR [ebp-0x10],0x1
  1010fd:	8b 4d e8             	mov    ecx,DWORD PTR [ebp-0x18]
  101100:	8b 45 0c             	mov    eax,DWORD PTR [ebp+0xc]
  101103:	ba 00 00 00 00       	mov    edx,0x0
  101108:	f7 f1                	div    ecx
  10110a:	39 45 f0             	cmp    DWORD PTR [ebp-0x10],eax
  10110d:	0f 82 37 fe ff ff    	jb     100f4a <debug_dumpmem+0xcf>
  101113:	83 ec 0c             	sub    esp,0xc
  101116:	ff 75 ec             	push   DWORD PTR [ebp-0x14]
  101119:	e8 2d f6 ff ff       	call   10074b <debug_setmode>
  10111e:	83 c4 10             	add    esp,0x10
  101121:	89 dc                	mov    esp,ebx
  101123:	90                   	nop
  101124:	8b 5d fc             	mov    ebx,DWORD PTR [ebp-0x4]
  101127:	c9                   	leave  
  101128:	c3                   	ret    

00101129 <debug_dumpregs>:
  101129:	55                   	push   ebp
  10112a:	89 e5                	mov    ebp,esp
  10112c:	83 ec 58             	sub    esp,0x58
  10112f:	e8 43 f6 ff ff       	call   100777 <debug_getmode>
  101134:	89 45 f4             	mov    DWORD PTR [ebp-0xc],eax
  101137:	ff 75 0c             	push   DWORD PTR [ebp+0xc]
  10113a:	e8 0c f6 ff ff       	call   10074b <debug_setmode>
  10113f:	83 c4 04             	add    esp,0x4
  101142:	83 ec 0c             	sub    esp,0xc
  101145:	68 fa ce 10 00       	push   0x10cefa
  10114a:	e8 79 f7 ff ff       	call   1008c8 <debug_writeln>
  10114f:	83 c4 10             	add    esp,0x10
  101152:	83 ec 04             	sub    esp,0x4
  101155:	6a 40                	push   0x40
  101157:	6a 00                	push   0x0
  101159:	8d 45 b4             	lea    eax,[ebp-0x4c]
  10115c:	50                   	push   eax
  10115d:	e8 58 2f 00 00       	call   1040ba <memset>
  101162:	83 c4 10             	add    esp,0x10
  101165:	83 ec 0c             	sub    esp,0xc
  101168:	68 05 cf 10 00       	push   0x10cf05
  10116d:	e8 d8 f6 ff ff       	call   10084a <debug_write>
  101172:	83 c4 10             	add    esp,0x10
  101175:	8b 45 08             	mov    eax,DWORD PTR [ebp+0x8]
  101178:	8b 40 20             	mov    eax,DWORD PTR [eax+0x20]
  10117b:	6a 04                	push   0x4
  10117d:	6a 01                	push   0x1
  10117f:	8d 55 b4             	lea    edx,[ebp-0x4c]
  101182:	52                   	push   edx
  101183:	50                   	push   eax
  101184:	e8 27 52 00 00       	call   1063b0 <strhex>
  101189:	83 c4 10             	add    esp,0x10
  10118c:	83 ec 0c             	sub    esp,0xc
  10118f:	50                   	push   eax
  101190:	e8 b5 f6 ff ff       	call   10084a <debug_write>
  101195:	83 c4 10             	add    esp,0x10
  101198:	83 ec 0c             	sub    esp,0xc
  10119b:	68 f8 ce 10 00       	push   0x10cef8
  1011a0:	e8 a5 f6 ff ff       	call   10084a <debug_write>
  1011a5:	83 c4 10             	add    esp,0x10
  1011a8:	83 ec 04             	sub    esp,0x4
  1011ab:	6a 40                	push   0x40
  1011ad:	6a 00                	push   0x0
  1011af:	8d 45 b4             	lea    eax,[ebp-0x4c]
  1011b2:	50                   	push   eax
  1011b3:	e8 02 2f 00 00       	call   1040ba <memset>
  1011b8:	83 c4 10             	add    esp,0x10
  1011bb:	83 ec 0c             	sub    esp,0xc
  1011be:	68 0b cf 10 00       	push   0x10cf0b
  1011c3:	e8 82 f6 ff ff       	call   10084a <debug_write>
  1011c8:	83 c4 10             	add    esp,0x10
  1011cb:	8b 45 08             	mov    eax,DWORD PTR [ebp+0x8]
  1011ce:	8b 40 14             	mov    eax,DWORD PTR [eax+0x14]
  1011d1:	6a 04                	push   0x4
  1011d3:	6a 01                	push   0x1
  1011d5:	8d 55 b4             	lea    edx,[ebp-0x4c]
  1011d8:	52                   	push   edx
  1011d9:	50                   	push   eax
  1011da:	e8 d1 51 00 00       	call   1063b0 <strhex>
  1011df:	83 c4 10             	add    esp,0x10
  1011e2:	83 ec 0c             	sub    esp,0xc
  1011e5:	50                   	push   eax
  1011e6:	e8 5f f6 ff ff       	call   10084a <debug_write>
  1011eb:	83 c4 10             	add    esp,0x10
  1011ee:	83 ec 0c             	sub    esp,0xc
  1011f1:	68 f8 ce 10 00       	push   0x10cef8
  1011f6:	e8 4f f6 ff ff       	call   10084a <debug_write>
  1011fb:	83 c4 10             	add    esp,0x10
  1011fe:	83 ec 04             	sub    esp,0x4
  101201:	6a 40                	push   0x40
  101203:	6a 00                	push   0x0
  101205:	8d 45 b4             	lea    eax,[ebp-0x4c]
  101208:	50                   	push   eax
  101209:	e8 ac 2e 00 00       	call   1040ba <memset>
  10120e:	83 c4 10             	add    esp,0x10
  101211:	83 ec 0c             	sub    esp,0xc
  101214:	68 11 cf 10 00       	push   0x10cf11
  101219:	e8 2c f6 ff ff       	call   10084a <debug_write>
  10121e:	83 c4 10             	add    esp,0x10
  101221:	8b 45 08             	mov    eax,DWORD PTR [ebp+0x8]
  101224:	8b 40 1c             	mov    eax,DWORD PTR [eax+0x1c]
  101227:	6a 04                	push   0x4
  101229:	6a 01                	push   0x1
  10122b:	8d 55 b4             	lea    edx,[ebp-0x4c]
  10122e:	52                   	push   edx
  10122f:	50                   	push   eax
  101230:	e8 7b 51 00 00       	call   1063b0 <strhex>
  101235:	83 c4 10             	add    esp,0x10
  101238:	83 ec 0c             	sub    esp,0xc
  10123b:	50                   	push   eax
  10123c:	e8 09 f6 ff ff       	call   10084a <debug_write>
  101241:	83 c4 10             	add    esp,0x10
  101244:	83 ec 0c             	sub    esp,0xc
  101247:	68 f8 ce 10 00       	push   0x10cef8
  10124c:	e8 f9 f5 ff ff       	call   10084a <debug_write>
  101251:	83 c4 10             	add    esp,0x10
  101254:	83 ec 04             	sub    esp,0x4
  101257:	6a 40                	push   0x40
  101259:	6a 00                	push   0x0
  10125b:	8d 45 b4             	lea    eax,[ebp-0x4c]
  10125e:	50                   	push   eax
  10125f:	e8 56 2e 00 00       	call   1040ba <memset>
  101264:	83 c4 10             	add    esp,0x10
  101267:	83 ec 0c             	sub    esp,0xc
  10126a:	68 17 cf 10 00       	push   0x10cf17
  10126f:	e8 d6 f5 ff ff       	call   10084a <debug_write>
  101274:	83 c4 10             	add    esp,0x10
  101277:	8b 45 08             	mov    eax,DWORD PTR [ebp+0x8]
  10127a:	8b 40 18             	mov    eax,DWORD PTR [eax+0x18]
  10127d:	6a 04                	push   0x4
  10127f:	6a 01                	push   0x1
  101281:	8d 55 b4             	lea    edx,[ebp-0x4c]
  101284:	52                   	push   edx
  101285:	50                   	push   eax
  101286:	e8 25 51 00 00       	call   1063b0 <strhex>
  10128b:	83 c4 10             	add    esp,0x10
  10128e:	83 ec 0c             	sub    esp,0xc
  101291:	50                   	push   eax
  101292:	e8 b3 f5 ff ff       	call   10084a <debug_write>
  101297:	83 c4 10             	add    esp,0x10
  10129a:	83 ec 0c             	sub    esp,0xc
  10129d:	68 f8 ce 10 00       	push   0x10cef8
  1012a2:	e8 a3 f5 ff ff       	call   10084a <debug_write>
  1012a7:	83 c4 10             	add    esp,0x10
  1012aa:	83 ec 04             	sub    esp,0x4
  1012ad:	6a 40                	push   0x40
  1012af:	6a 00                	push   0x0
  1012b1:	8d 45 b4             	lea    eax,[ebp-0x4c]
  1012b4:	50                   	push   eax
  1012b5:	e8 00 2e 00 00       	call   1040ba <memset>
  1012ba:	83 c4 10             	add    esp,0x10
  1012bd:	e8 22 f5 ff ff       	call   1007e4 <debug_newline>
  1012c2:	83 ec 0c             	sub    esp,0xc
  1012c5:	68 1d cf 10 00       	push   0x10cf1d
  1012ca:	e8 7b f5 ff ff       	call   10084a <debug_write>
  1012cf:	83 c4 10             	add    esp,0x10
  1012d2:	8b 45 08             	mov    eax,DWORD PTR [ebp+0x8]
  1012d5:	8b 40 10             	mov    eax,DWORD PTR [eax+0x10]
  1012d8:	6a 04                	push   0x4
  1012da:	6a 01                	push   0x1
  1012dc:	8d 55 b4             	lea    edx,[ebp-0x4c]
  1012df:	52                   	push   edx
  1012e0:	50                   	push   eax
  1012e1:	e8 ca 50 00 00       	call   1063b0 <strhex>
  1012e6:	83 c4 10             	add    esp,0x10
  1012e9:	83 ec 0c             	sub    esp,0xc
  1012ec:	50                   	push   eax
  1012ed:	e8 58 f5 ff ff       	call   10084a <debug_write>
  1012f2:	83 c4 10             	add    esp,0x10
  1012f5:	83 ec 0c             	sub    esp,0xc
  1012f8:	68 f8 ce 10 00       	push   0x10cef8
  1012fd:	e8 48 f5 ff ff       	call   10084a <debug_write>
  101302:	83 c4 10             	add    esp,0x10
  101305:	83 ec 04             	sub    esp,0x4
  101308:	6a 40                	push   0x40
  10130a:	6a 00                	push   0x0
  10130c:	8d 45 b4             	lea    eax,[ebp-0x4c]
  10130f:	50                   	push   eax
  101310:	e8 a5 2d 00 00       	call   1040ba <memset>
  101315:	83 c4 10             	add    esp,0x10
  101318:	83 ec 0c             	sub    esp,0xc
  10131b:	68 23 cf 10 00       	push   0x10cf23
  101320:	e8 25 f5 ff ff       	call   10084a <debug_write>
  101325:	83 c4 10             	add    esp,0x10
  101328:	8b 45 08             	mov    eax,DWORD PTR [ebp+0x8]
  10132b:	8b 40 0c             	mov    eax,DWORD PTR [eax+0xc]
  10132e:	6a 04                	push   0x4
  101330:	6a 01                	push   0x1
  101332:	8d 55 b4             	lea    edx,[ebp-0x4c]
  101335:	52                   	push   edx
  101336:	50                   	push   eax
  101337:	e8 74 50 00 00       	call   1063b0 <strhex>
  10133c:	83 c4 10             	add    esp,0x10
  10133f:	83 ec 0c             	sub    esp,0xc
  101342:	50                   	push   eax
  101343:	e8 02 f5 ff ff       	call   10084a <debug_write>
  101348:	83 c4 10             	add    esp,0x10
  10134b:	83 ec 0c             	sub    esp,0xc
  10134e:	68 f8 ce 10 00       	push   0x10cef8
  101353:	e8 f2 f4 ff ff       	call   10084a <debug_write>
  101358:	83 c4 10             	add    esp,0x10
  10135b:	83 ec 04             	sub    esp,0x4
  10135e:	6a 40                	push   0x40
  101360:	6a 00                	push   0x0
  101362:	8d 45 b4             	lea    eax,[ebp-0x4c]
  101365:	50                   	push   eax
  101366:	e8 4f 2d 00 00       	call   1040ba <memset>
  10136b:	83 c4 10             	add    esp,0x10
  10136e:	83 ec 0c             	sub    esp,0xc
  101371:	68 29 cf 10 00       	push   0x10cf29
  101376:	e8 cf f4 ff ff       	call   10084a <debug_write>
  10137b:	83 c4 10             	add    esp,0x10
  10137e:	8b 45 08             	mov    eax,DWORD PTR [ebp+0x8]
  101381:	8b 40 08             	mov    eax,DWORD PTR [eax+0x8]
  101384:	6a 04                	push   0x4
  101386:	6a 01                	push   0x1
  101388:	8d 55 b4             	lea    edx,[ebp-0x4c]
  10138b:	52                   	push   edx
  10138c:	50                   	push   eax
  10138d:	e8 1e 50 00 00       	call   1063b0 <strhex>
  101392:	83 c4 10             	add    esp,0x10
  101395:	83 ec 0c             	sub    esp,0xc
  101398:	50                   	push   eax
  101399:	e8 ac f4 ff ff       	call   10084a <debug_write>
  10139e:	83 c4 10             	add    esp,0x10
  1013a1:	83 ec 0c             	sub    esp,0xc
  1013a4:	68 f8 ce 10 00       	push   0x10cef8
  1013a9:	e8 9c f4 ff ff       	call   10084a <debug_write>
  1013ae:	83 c4 10             	add    esp,0x10
  1013b1:	83 ec 04             	sub    esp,0x4
  1013b4:	6a 40                	push   0x40
  1013b6:	6a 00                	push   0x0
  1013b8:	8d 45 b4             	lea    eax,[ebp-0x4c]
  1013bb:	50                   	push   eax
  1013bc:	e8 f9 2c 00 00       	call   1040ba <memset>
  1013c1:	83 c4 10             	add    esp,0x10
  1013c4:	83 ec 0c             	sub    esp,0xc
  1013c7:	68 2f cf 10 00       	push   0x10cf2f
  1013cc:	e8 79 f4 ff ff       	call   10084a <debug_write>
  1013d1:	83 c4 10             	add    esp,0x10
  1013d4:	8b 45 08             	mov    eax,DWORD PTR [ebp+0x8]
  1013d7:	8b 40 04             	mov    eax,DWORD PTR [eax+0x4]
  1013da:	6a 04                	push   0x4
  1013dc:	6a 01                	push   0x1
  1013de:	8d 55 b4             	lea    edx,[ebp-0x4c]
  1013e1:	52                   	push   edx
  1013e2:	50                   	push   eax
  1013e3:	e8 c8 4f 00 00       	call   1063b0 <strhex>
  1013e8:	83 c4 10             	add    esp,0x10
  1013eb:	83 ec 0c             	sub    esp,0xc
  1013ee:	50                   	push   eax
  1013ef:	e8 56 f4 ff ff       	call   10084a <debug_write>
  1013f4:	83 c4 10             	add    esp,0x10
  1013f7:	83 ec 0c             	sub    esp,0xc
  1013fa:	68 f8 ce 10 00       	push   0x10cef8
  1013ff:	e8 46 f4 ff ff       	call   10084a <debug_write>
  101404:	83 c4 10             	add    esp,0x10
  101407:	83 ec 04             	sub    esp,0x4
  10140a:	6a 40                	push   0x40
  10140c:	6a 00                	push   0x0
  10140e:	8d 45 b4             	lea    eax,[ebp-0x4c]
  101411:	50                   	push   eax
  101412:	e8 a3 2c 00 00       	call   1040ba <memset>
  101417:	83 c4 10             	add    esp,0x10
  10141a:	e8 c5 f3 ff ff       	call   1007e4 <debug_newline>
  10141f:	83 ec 0c             	sub    esp,0xc
  101422:	68 35 cf 10 00       	push   0x10cf35
  101427:	e8 1e f4 ff ff       	call   10084a <debug_write>
  10142c:	83 c4 10             	add    esp,0x10
  10142f:	8b 45 08             	mov    eax,DWORD PTR [ebp+0x8]
  101432:	8b 40 2c             	mov    eax,DWORD PTR [eax+0x2c]
  101435:	6a 04                	push   0x4
  101437:	6a 01                	push   0x1
  101439:	8d 55 b4             	lea    edx,[ebp-0x4c]
  10143c:	52                   	push   edx
  10143d:	50                   	push   eax
  10143e:	e8 6d 4f 00 00       	call   1063b0 <strhex>
  101443:	83 c4 10             	add    esp,0x10
  101446:	83 ec 0c             	sub    esp,0xc
  101449:	50                   	push   eax
  10144a:	e8 79 f4 ff ff       	call   1008c8 <debug_writeln>
  10144f:	83 c4 10             	add    esp,0x10
  101452:	83 ec 04             	sub    esp,0x4
  101455:	6a 40                	push   0x40
  101457:	6a 00                	push   0x0
  101459:	8d 45 b4             	lea    eax,[ebp-0x4c]
  10145c:	50                   	push   eax
  10145d:	e8 58 2c 00 00       	call   1040ba <memset>
  101462:	83 c4 10             	add    esp,0x10
  101465:	83 ec 0c             	sub    esp,0xc
  101468:	68 3b cf 10 00       	push   0x10cf3b
  10146d:	e8 d8 f3 ff ff       	call   10084a <debug_write>
  101472:	83 c4 10             	add    esp,0x10
  101475:	8b 45 08             	mov    eax,DWORD PTR [ebp+0x8]
  101478:	8b 40 34             	mov    eax,DWORD PTR [eax+0x34]
  10147b:	0f b7 c0             	movzx  eax,ax
  10147e:	6a 02                	push   0x2
  101480:	6a 01                	push   0x1
  101482:	8d 55 b4             	lea    edx,[ebp-0x4c]
  101485:	52                   	push   edx
  101486:	50                   	push   eax
  101487:	e8 24 4f 00 00       	call   1063b0 <strhex>
  10148c:	83 c4 10             	add    esp,0x10
  10148f:	83 ec 0c             	sub    esp,0xc
  101492:	50                   	push   eax
  101493:	e8 30 f4 ff ff       	call   1008c8 <debug_writeln>
  101498:	83 c4 10             	add    esp,0x10
  10149b:	83 ec 04             	sub    esp,0x4
  10149e:	6a 40                	push   0x40
  1014a0:	6a 00                	push   0x0
  1014a2:	8d 45 b4             	lea    eax,[ebp-0x4c]
  1014a5:	50                   	push   eax
  1014a6:	e8 0f 2c 00 00       	call   1040ba <memset>
  1014ab:	83 c4 10             	add    esp,0x10
  1014ae:	83 ec 0c             	sub    esp,0xc
  1014b1:	68 41 cf 10 00       	push   0x10cf41
  1014b6:	e8 8f f3 ff ff       	call   10084a <debug_write>
  1014bb:	83 c4 10             	add    esp,0x10
  1014be:	8b 45 08             	mov    eax,DWORD PTR [ebp+0x8]
  1014c1:	8b 40 30             	mov    eax,DWORD PTR [eax+0x30]
  1014c4:	0f b7 c0             	movzx  eax,ax
  1014c7:	6a 02                	push   0x2
  1014c9:	6a 01                	push   0x1
  1014cb:	8d 55 b4             	lea    edx,[ebp-0x4c]
  1014ce:	52                   	push   edx
  1014cf:	50                   	push   eax
  1014d0:	e8 db 4e 00 00       	call   1063b0 <strhex>
  1014d5:	83 c4 10             	add    esp,0x10
  1014d8:	83 ec 0c             	sub    esp,0xc
  1014db:	50                   	push   eax
  1014dc:	e8 e7 f3 ff ff       	call   1008c8 <debug_writeln>
  1014e1:	83 c4 10             	add    esp,0x10
  1014e4:	83 ec 04             	sub    esp,0x4
  1014e7:	6a 40                	push   0x40
  1014e9:	6a 00                	push   0x0
  1014eb:	8d 45 b4             	lea    eax,[ebp-0x4c]
  1014ee:	50                   	push   eax
  1014ef:	e8 c6 2b 00 00       	call   1040ba <memset>
  1014f4:	83 c4 10             	add    esp,0x10
  1014f7:	83 ec 0c             	sub    esp,0xc
  1014fa:	68 47 cf 10 00       	push   0x10cf47
  1014ff:	e8 46 f3 ff ff       	call   10084a <debug_write>
  101504:	83 c4 10             	add    esp,0x10
  101507:	8b 45 08             	mov    eax,DWORD PTR [ebp+0x8]
  10150a:	8b 00                	mov    eax,DWORD PTR [eax]
  10150c:	0f b7 c0             	movzx  eax,ax
  10150f:	6a 02                	push   0x2
  101511:	6a 01                	push   0x1
  101513:	8d 55 b4             	lea    edx,[ebp-0x4c]
  101516:	52                   	push   edx
  101517:	50                   	push   eax
  101518:	e8 93 4e 00 00       	call   1063b0 <strhex>
  10151d:	83 c4 10             	add    esp,0x10
  101520:	83 ec 0c             	sub    esp,0xc
  101523:	50                   	push   eax
  101524:	e8 9f f3 ff ff       	call   1008c8 <debug_writeln>
  101529:	83 c4 10             	add    esp,0x10
  10152c:	83 ec 04             	sub    esp,0x4
  10152f:	6a 40                	push   0x40
  101531:	6a 00                	push   0x0
  101533:	8d 45 b4             	lea    eax,[ebp-0x4c]
  101536:	50                   	push   eax
  101537:	e8 7e 2b 00 00       	call   1040ba <memset>
  10153c:	83 c4 10             	add    esp,0x10
  10153f:	83 ec 0c             	sub    esp,0xc
  101542:	68 4d cf 10 00       	push   0x10cf4d
  101547:	e8 fe f2 ff ff       	call   10084a <debug_write>
  10154c:	83 c4 10             	add    esp,0x10
  10154f:	8b 45 08             	mov    eax,DWORD PTR [ebp+0x8]
  101552:	8b 40 3c             	mov    eax,DWORD PTR [eax+0x3c]
  101555:	0f b7 c0             	movzx  eax,ax
  101558:	6a 02                	push   0x2
  10155a:	6a 01                	push   0x1
  10155c:	8d 55 b4             	lea    edx,[ebp-0x4c]
  10155f:	52                   	push   edx
  101560:	50                   	push   eax
  101561:	e8 4a 4e 00 00       	call   1063b0 <strhex>
  101566:	83 c4 10             	add    esp,0x10
  101569:	83 ec 0c             	sub    esp,0xc
  10156c:	50                   	push   eax
  10156d:	e8 56 f3 ff ff       	call   1008c8 <debug_writeln>
  101572:	83 c4 10             	add    esp,0x10
  101575:	83 ec 04             	sub    esp,0x4
  101578:	6a 40                	push   0x40
  10157a:	6a 00                	push   0x0
  10157c:	8d 45 b4             	lea    eax,[ebp-0x4c]
  10157f:	50                   	push   eax
  101580:	e8 35 2b 00 00       	call   1040ba <memset>
  101585:	83 c4 10             	add    esp,0x10
  101588:	83 ec 0c             	sub    esp,0xc
  10158b:	68 53 cf 10 00       	push   0x10cf53
  101590:	e8 b5 f2 ff ff       	call   10084a <debug_write>
  101595:	83 c4 10             	add    esp,0x10
  101598:	8b 45 08             	mov    eax,DWORD PTR [ebp+0x8]
  10159b:	8b 40 24             	mov    eax,DWORD PTR [eax+0x24]
  10159e:	0f b7 c0             	movzx  eax,ax
  1015a1:	6a 02                	push   0x2
  1015a3:	6a 01                	push   0x1
  1015a5:	8d 55 b4             	lea    edx,[ebp-0x4c]
  1015a8:	52                   	push   edx
  1015a9:	50                   	push   eax
  1015aa:	e8 01 4e 00 00       	call   1063b0 <strhex>
  1015af:	83 c4 10             	add    esp,0x10
  1015b2:	83 ec 0c             	sub    esp,0xc
  1015b5:	50                   	push   eax
  1015b6:	e8 0d f3 ff ff       	call   1008c8 <debug_writeln>
  1015bb:	83 c4 10             	add    esp,0x10
  1015be:	83 ec 04             	sub    esp,0x4
  1015c1:	6a 40                	push   0x40
  1015c3:	6a 00                	push   0x0
  1015c5:	8d 45 b4             	lea    eax,[ebp-0x4c]
  1015c8:	50                   	push   eax
  1015c9:	e8 ec 2a 00 00       	call   1040ba <memset>
  1015ce:	83 c4 10             	add    esp,0x10
  1015d1:	83 ec 0c             	sub    esp,0xc
  1015d4:	68 59 cf 10 00       	push   0x10cf59
  1015d9:	e8 6c f2 ff ff       	call   10084a <debug_write>
  1015de:	83 c4 10             	add    esp,0x10
  1015e1:	8b 45 08             	mov    eax,DWORD PTR [ebp+0x8]
  1015e4:	8b 40 28             	mov    eax,DWORD PTR [eax+0x28]
  1015e7:	0f b7 c0             	movzx  eax,ax
  1015ea:	6a 02                	push   0x2
  1015ec:	6a 01                	push   0x1
  1015ee:	8d 55 b4             	lea    edx,[ebp-0x4c]
  1015f1:	52                   	push   edx
  1015f2:	50                   	push   eax
  1015f3:	e8 b8 4d 00 00       	call   1063b0 <strhex>
  1015f8:	83 c4 10             	add    esp,0x10
  1015fb:	83 ec 0c             	sub    esp,0xc
  1015fe:	50                   	push   eax
  1015ff:	e8 c4 f2 ff ff       	call   1008c8 <debug_writeln>
  101604:	83 c4 10             	add    esp,0x10
  101607:	83 ec 04             	sub    esp,0x4
  10160a:	6a 40                	push   0x40
  10160c:	6a 00                	push   0x0
  10160e:	8d 45 b4             	lea    eax,[ebp-0x4c]
  101611:	50                   	push   eax
  101612:	e8 a3 2a 00 00       	call   1040ba <memset>
  101617:	83 c4 10             	add    esp,0x10
  10161a:	83 ec 0c             	sub    esp,0xc
  10161d:	ff 75 f4             	push   DWORD PTR [ebp-0xc]
  101620:	e8 26 f1 ff ff       	call   10074b <debug_setmode>
  101625:	83 c4 10             	add    esp,0x10
  101628:	90                   	nop
  101629:	c9                   	leave  
  10162a:	c3                   	ret    

0010162b <debug_dumpregs_raw>:
  10162b:	55                   	push   ebp
  10162c:	89 e5                	mov    ebp,esp
  10162e:	57                   	push   edi
  10162f:	56                   	push   esi
  101630:	53                   	push   ebx
  101631:	83 ec 6c             	sub    esp,0x6c
  101634:	e8 3e f1 ff ff       	call   100777 <debug_getmode>
  101639:	89 45 e4             	mov    DWORD PTR [ebp-0x1c],eax
  10163c:	ff 75 08             	push   DWORD PTR [ebp+0x8]
  10163f:	e8 07 f1 ff ff       	call   10074b <debug_setmode>
  101644:	83 c4 04             	add    esp,0x4
  101647:	83 ec 08             	sub    esp,0x8
  10164a:	6a 08                	push   0x8
  10164c:	68 5f cf 10 00       	push   0x10cf5f
  101651:	e8 2b f2 ff ff       	call   100881 <debug_write_col>
  101656:	83 c4 10             	add    esp,0x10
  101659:	83 ec 08             	sub    esp,0x8
  10165c:	6a 0e                	push   0xe
  10165e:	68 67 cf 10 00       	push   0x10cf67
  101663:	e8 19 f2 ff ff       	call   100881 <debug_write_col>
  101668:	83 c4 10             	add    esp,0x10
  10166b:	83 ec 08             	sub    esp,0x8
  10166e:	6a 08                	push   0x8
  101670:	68 74 cf 10 00       	push   0x10cf74
  101675:	e8 07 f2 ff ff       	call   100881 <debug_write_col>
  10167a:	83 c4 10             	add    esp,0x10
  10167d:	83 ec 04             	sub    esp,0x4
  101680:	6a 40                	push   0x40
  101682:	6a 00                	push   0x0
  101684:	8d 45 a4             	lea    eax,[ebp-0x5c]
  101687:	50                   	push   eax
  101688:	e8 2d 2a 00 00       	call   1040ba <memset>
  10168d:	83 c4 10             	add    esp,0x10
  101690:	83 ec 0c             	sub    esp,0xc
  101693:	68 23 cf 10 00       	push   0x10cf23
  101698:	e8 ad f1 ff ff       	call   10084a <debug_write>
  10169d:	83 c4 10             	add    esp,0x10
  1016a0:	89 6d 94             	mov    DWORD PTR [ebp-0x6c],ebp
  1016a3:	6a 04                	push   0x4
  1016a5:	6a 01                	push   0x1
  1016a7:	8d 45 a4             	lea    eax,[ebp-0x5c]
  1016aa:	50                   	push   eax
  1016ab:	ff 75 94             	push   DWORD PTR [ebp-0x6c]
  1016ae:	e8 fd 4c 00 00       	call   1063b0 <strhex>
  1016b3:	83 c4 10             	add    esp,0x10
  1016b6:	83 ec 0c             	sub    esp,0xc
  1016b9:	50                   	push   eax
  1016ba:	e8 8b f1 ff ff       	call   10084a <debug_write>
  1016bf:	83 c4 10             	add    esp,0x10
  1016c2:	83 ec 0c             	sub    esp,0xc
  1016c5:	68 f8 ce 10 00       	push   0x10cef8
  1016ca:	e8 7b f1 ff ff       	call   10084a <debug_write>
  1016cf:	83 c4 10             	add    esp,0x10
  1016d2:	83 ec 0c             	sub    esp,0xc
  1016d5:	68 1d cf 10 00       	push   0x10cf1d
  1016da:	e8 6b f1 ff ff       	call   10084a <debug_write>
  1016df:	83 c4 10             	add    esp,0x10
  1016e2:	89 65 94             	mov    DWORD PTR [ebp-0x6c],esp
  1016e5:	6a 04                	push   0x4
  1016e7:	6a 01                	push   0x1
  1016e9:	8d 45 a4             	lea    eax,[ebp-0x5c]
  1016ec:	50                   	push   eax
  1016ed:	ff 75 94             	push   DWORD PTR [ebp-0x6c]
  1016f0:	e8 bb 4c 00 00       	call   1063b0 <strhex>
  1016f5:	83 c4 10             	add    esp,0x10
  1016f8:	83 ec 0c             	sub    esp,0xc
  1016fb:	50                   	push   eax
  1016fc:	e8 49 f1 ff ff       	call   10084a <debug_write>
  101701:	83 c4 10             	add    esp,0x10
  101704:	83 ec 0c             	sub    esp,0xc
  101707:	68 f8 ce 10 00       	push   0x10cef8
  10170c:	e8 39 f1 ff ff       	call   10084a <debug_write>
  101711:	83 c4 10             	add    esp,0x10
  101714:	83 ec 0c             	sub    esp,0xc
  101717:	68 29 cf 10 00       	push   0x10cf29
  10171c:	e8 29 f1 ff ff       	call   10084a <debug_write>
  101721:	83 c4 10             	add    esp,0x10
  101724:	6a 04                	push   0x4
  101726:	6a 01                	push   0x1
  101728:	8d 45 a4             	lea    eax,[ebp-0x5c]
  10172b:	50                   	push   eax
  10172c:	56                   	push   esi
  10172d:	e8 7e 4c 00 00       	call   1063b0 <strhex>
  101732:	83 c4 10             	add    esp,0x10
  101735:	83 ec 0c             	sub    esp,0xc
  101738:	50                   	push   eax
  101739:	e8 0c f1 ff ff       	call   10084a <debug_write>
  10173e:	83 c4 10             	add    esp,0x10
  101741:	83 ec 0c             	sub    esp,0xc
  101744:	68 f8 ce 10 00       	push   0x10cef8
  101749:	e8 fc f0 ff ff       	call   10084a <debug_write>
  10174e:	83 c4 10             	add    esp,0x10
  101751:	83 ec 0c             	sub    esp,0xc
  101754:	68 2f cf 10 00       	push   0x10cf2f
  101759:	e8 ec f0 ff ff       	call   10084a <debug_write>
  10175e:	83 c4 10             	add    esp,0x10
  101761:	89 fe                	mov    esi,edi
  101763:	6a 04                	push   0x4
  101765:	6a 01                	push   0x1
  101767:	8d 45 a4             	lea    eax,[ebp-0x5c]
  10176a:	50                   	push   eax
  10176b:	56                   	push   esi
  10176c:	e8 3f 4c 00 00       	call   1063b0 <strhex>
  101771:	83 c4 10             	add    esp,0x10
  101774:	83 ec 0c             	sub    esp,0xc
  101777:	50                   	push   eax
  101778:	e8 cd f0 ff ff       	call   10084a <debug_write>
  10177d:	83 c4 10             	add    esp,0x10
  101780:	83 ec 0c             	sub    esp,0xc
  101783:	68 f8 ce 10 00       	push   0x10cef8
  101788:	e8 bd f0 ff ff       	call   10084a <debug_write>
  10178d:	83 c4 10             	add    esp,0x10
  101790:	83 ec 0c             	sub    esp,0xc
  101793:	68 0b cf 10 00       	push   0x10cf0b
  101798:	e8 ad f0 ff ff       	call   10084a <debug_write>
  10179d:	83 c4 10             	add    esp,0x10
  1017a0:	6a 04                	push   0x4
  1017a2:	6a 01                	push   0x1
  1017a4:	8d 45 a4             	lea    eax,[ebp-0x5c]
  1017a7:	50                   	push   eax
  1017a8:	53                   	push   ebx
  1017a9:	e8 02 4c 00 00       	call   1063b0 <strhex>
  1017ae:	83 c4 10             	add    esp,0x10
  1017b1:	89 c3                	mov    ebx,eax
  1017b3:	83 ec 0c             	sub    esp,0xc
  1017b6:	53                   	push   ebx
  1017b7:	e8 8e f0 ff ff       	call   10084a <debug_write>
  1017bc:	83 c4 10             	add    esp,0x10
  1017bf:	83 ec 0c             	sub    esp,0xc
  1017c2:	68 f8 ce 10 00       	push   0x10cef8
  1017c7:	e8 7e f0 ff ff       	call   10084a <debug_write>
  1017cc:	83 c4 10             	add    esp,0x10
  1017cf:	e8 10 f0 ff ff       	call   1007e4 <debug_newline>
  1017d4:	83 ec 0c             	sub    esp,0xc
  1017d7:	68 05 cf 10 00       	push   0x10cf05
  1017dc:	e8 69 f0 ff ff       	call   10084a <debug_write>
  1017e1:	83 c4 10             	add    esp,0x10
  1017e4:	89 c3                	mov    ebx,eax
  1017e6:	6a 04                	push   0x4
  1017e8:	6a 01                	push   0x1
  1017ea:	8d 45 a4             	lea    eax,[ebp-0x5c]
  1017ed:	50                   	push   eax
  1017ee:	53                   	push   ebx
  1017ef:	e8 bc 4b 00 00       	call   1063b0 <strhex>
  1017f4:	83 c4 10             	add    esp,0x10
  1017f7:	83 ec 0c             	sub    esp,0xc
  1017fa:	50                   	push   eax
  1017fb:	e8 4a f0 ff ff       	call   10084a <debug_write>
  101800:	83 c4 10             	add    esp,0x10
  101803:	83 ec 0c             	sub    esp,0xc
  101806:	68 f8 ce 10 00       	push   0x10cef8
  10180b:	e8 3a f0 ff ff       	call   10084a <debug_write>
  101810:	83 c4 10             	add    esp,0x10
  101813:	83 ec 0c             	sub    esp,0xc
  101816:	68 11 cf 10 00       	push   0x10cf11
  10181b:	e8 2a f0 ff ff       	call   10084a <debug_write>
  101820:	83 c4 10             	add    esp,0x10
  101823:	6a 04                	push   0x4
  101825:	6a 01                	push   0x1
  101827:	8d 45 a4             	lea    eax,[ebp-0x5c]
  10182a:	50                   	push   eax
  10182b:	51                   	push   ecx
  10182c:	e8 7f 4b 00 00       	call   1063b0 <strhex>
  101831:	83 c4 10             	add    esp,0x10
  101834:	83 ec 0c             	sub    esp,0xc
  101837:	50                   	push   eax
  101838:	e8 0d f0 ff ff       	call   10084a <debug_write>
  10183d:	83 c4 10             	add    esp,0x10
  101840:	83 ec 0c             	sub    esp,0xc
  101843:	68 f8 ce 10 00       	push   0x10cef8
  101848:	e8 fd ef ff ff       	call   10084a <debug_write>
  10184d:	83 c4 10             	add    esp,0x10
  101850:	83 ec 0c             	sub    esp,0xc
  101853:	68 17 cf 10 00       	push   0x10cf17
  101858:	e8 ed ef ff ff       	call   10084a <debug_write>
  10185d:	83 c4 10             	add    esp,0x10
  101860:	6a 04                	push   0x4
  101862:	6a 01                	push   0x1
  101864:	8d 45 a4             	lea    eax,[ebp-0x5c]
  101867:	50                   	push   eax
  101868:	52                   	push   edx
  101869:	e8 42 4b 00 00       	call   1063b0 <strhex>
  10186e:	83 c4 10             	add    esp,0x10
  101871:	83 ec 0c             	sub    esp,0xc
  101874:	50                   	push   eax
  101875:	e8 d0 ef ff ff       	call   10084a <debug_write>
  10187a:	83 c4 10             	add    esp,0x10
  10187d:	83 ec 0c             	sub    esp,0xc
  101880:	68 f8 ce 10 00       	push   0x10cef8
  101885:	e8 c0 ef ff ff       	call   10084a <debug_write>
  10188a:	83 c4 10             	add    esp,0x10
  10188d:	e8 52 ef ff ff       	call   1007e4 <debug_newline>
  101892:	83 ec 0c             	sub    esp,0xc
  101895:	ff 75 e4             	push   DWORD PTR [ebp-0x1c]
  101898:	e8 ae ee ff ff       	call   10074b <debug_setmode>
  10189d:	83 c4 10             	add    esp,0x10
  1018a0:	90                   	nop
  1018a1:	8d 65 f4             	lea    esp,[ebp-0xc]
  1018a4:	5b                   	pop    ebx
  1018a5:	5e                   	pop    esi
  1018a6:	5f                   	pop    edi
  1018a7:	5d                   	pop    ebp
  1018a8:	c3                   	ret    

001018a9 <error>:
  1018a9:	55                   	push   ebp
  1018aa:	89 e5                	mov    ebp,esp
  1018ac:	83 ec 08             	sub    esp,0x8
  1018af:	83 ec 08             	sub    esp,0x8
  1018b2:	6a 0c                	push   0xc
  1018b4:	68 d6 ce 10 00       	push   0x10ced6
  1018b9:	e8 99 f4 ff ff       	call   100d57 <debug_header>
  1018be:	83 c4 10             	add    esp,0x10
  1018c1:	8b 45 08             	mov    eax,DWORD PTR [ebp+0x8]
  1018c4:	8b 04 85 00 ba 10 00 	mov    eax,DWORD PTR [eax*4+0x10ba00]
  1018cb:	83 ec 0c             	sub    esp,0xc
  1018ce:	50                   	push   eax
  1018cf:	e8 f4 ef ff ff       	call   1008c8 <debug_writeln>
  1018d4:	83 c4 10             	add    esp,0x10
  1018d7:	90                   	nop
  1018d8:	c9                   	leave  
  1018d9:	c3                   	ret    

001018da <errorf>:
  1018da:	55                   	push   ebp
  1018db:	89 e5                	mov    ebp,esp
  1018dd:	83 ec 18             	sub    esp,0x18
  1018e0:	8d 45 0c             	lea    eax,[ebp+0xc]
  1018e3:	83 c0 04             	add    eax,0x4
  1018e6:	89 45 f4             	mov    DWORD PTR [ebp-0xc],eax
  1018e9:	8b 45 0c             	mov    eax,DWORD PTR [ebp+0xc]
  1018ec:	ff 75 f4             	push   DWORD PTR [ebp-0xc]
  1018ef:	50                   	push   eax
  1018f0:	6a 0c                	push   0xc
  1018f2:	68 d6 ce 10 00       	push   0x10ced6
  1018f7:	e8 9d f4 ff ff       	call   100d99 <debug_headerf>
  1018fc:	83 c4 10             	add    esp,0x10
  1018ff:	90                   	nop
  101900:	c9                   	leave  
  101901:	c3                   	ret    

00101902 <panic>:
  101902:	55                   	push   ebp
  101903:	89 e5                	mov    ebp,esp
  101905:	83 ec 08             	sub    esp,0x8
  101908:	e8 30 ee ff ff       	call   10073d <cli>
  10190d:	83 ec 0c             	sub    esp,0xc
  101910:	ff 75 08             	push   DWORD PTR [ebp+0x8]
  101913:	e8 91 ff ff ff       	call   1018a9 <error>
  101918:	83 c4 10             	add    esp,0x10
  10191b:	83 7d 0c 00          	cmp    DWORD PTR [ebp+0xc],0x0
  10191f:	74 16                	je     101937 <panic+0x35>
  101921:	a1 04 20 51 00       	mov    eax,ds:0x512004
  101926:	83 ec 08             	sub    esp,0x8
  101929:	50                   	push   eax
  10192a:	ff 75 0c             	push   DWORD PTR [ebp+0xc]
  10192d:	e8 f7 f7 ff ff       	call   101129 <debug_dumpregs>
  101932:	83 c4 10             	add    esp,0x10
  101935:	eb 11                	jmp    101948 <panic+0x46>
  101937:	a1 04 20 51 00       	mov    eax,ds:0x512004
  10193c:	83 ec 0c             	sub    esp,0xc
  10193f:	50                   	push   eax
  101940:	e8 e6 fc ff ff       	call   10162b <debug_dumpregs_raw>
  101945:	83 c4 10             	add    esp,0x10
  101948:	e8 34 ee ff ff       	call   100781 <debug_halt>
  10194d:	90                   	nop
  10194e:	c9                   	leave  
  10194f:	c3                   	ret    

00101950 <panici>:
  101950:	55                   	push   ebp
  101951:	89 e5                	mov    ebp,esp
  101953:	83 ec 08             	sub    esp,0x8
  101956:	e8 e2 ed ff ff       	call   10073d <cli>
  10195b:	83 ec 08             	sub    esp,0x8
  10195e:	6a 0c                	push   0xc
  101960:	68 d6 ce 10 00       	push   0x10ced6
  101965:	e8 ed f3 ff ff       	call   100d57 <debug_header>
  10196a:	83 c4 10             	add    esp,0x10
  10196d:	8b 45 08             	mov    eax,DWORD PTR [ebp+0x8]
  101970:	8b 04 85 40 ba 10 00 	mov    eax,DWORD PTR [eax*4+0x10ba40]
  101977:	83 ec 0c             	sub    esp,0xc
  10197a:	50                   	push   eax
  10197b:	e8 48 ef ff ff       	call   1008c8 <debug_writeln>
  101980:	83 c4 10             	add    esp,0x10
  101983:	83 7d 0c 00          	cmp    DWORD PTR [ebp+0xc],0x0
  101987:	74 16                	je     10199f <panici+0x4f>
  101989:	a1 04 20 51 00       	mov    eax,ds:0x512004
  10198e:	83 ec 08             	sub    esp,0x8
  101991:	50                   	push   eax
  101992:	ff 75 0c             	push   DWORD PTR [ebp+0xc]
  101995:	e8 8f f7 ff ff       	call   101129 <debug_dumpregs>
  10199a:	83 c4 10             	add    esp,0x10
  10199d:	eb 11                	jmp    1019b0 <panici+0x60>
  10199f:	a1 04 20 51 00       	mov    eax,ds:0x512004
  1019a4:	83 ec 0c             	sub    esp,0xc
  1019a7:	50                   	push   eax
  1019a8:	e8 7e fc ff ff       	call   10162b <debug_dumpregs_raw>
  1019ad:	83 c4 10             	add    esp,0x10
  1019b0:	e8 cc ed ff ff       	call   100781 <debug_halt>
  1019b5:	90                   	nop
  1019b6:	c9                   	leave  
  1019b7:	c3                   	ret    

001019b8 <panicf>:
  1019b8:	55                   	push   ebp
  1019b9:	89 e5                	mov    ebp,esp
  1019bb:	83 ec 18             	sub    esp,0x18
  1019be:	e8 7a ed ff ff       	call   10073d <cli>
  1019c3:	8d 45 10             	lea    eax,[ebp+0x10]
  1019c6:	83 c0 04             	add    eax,0x4
  1019c9:	89 45 f4             	mov    DWORD PTR [ebp-0xc],eax
  1019cc:	83 ec 0c             	sub    esp,0xc
  1019cf:	ff 75 08             	push   DWORD PTR [ebp+0x8]
  1019d2:	e8 d2 fe ff ff       	call   1018a9 <error>
  1019d7:	83 c4 10             	add    esp,0x10
  1019da:	83 ec 08             	sub    esp,0x8
  1019dd:	6a 0c                	push   0xc
  1019df:	68 9f cf 10 00       	push   0x10cf9f
  1019e4:	e8 6e f3 ff ff       	call   100d57 <debug_header>
  1019e9:	83 c4 10             	add    esp,0x10
  1019ec:	8b 45 10             	mov    eax,DWORD PTR [ebp+0x10]
  1019ef:	83 ec 08             	sub    esp,0x8
  1019f2:	ff 75 f4             	push   DWORD PTR [ebp-0xc]
  1019f5:	50                   	push   eax
  1019f6:	e8 4b ef ff ff       	call   100946 <debug_vprintf>
  1019fb:	83 c4 10             	add    esp,0x10
  1019fe:	e8 e1 ed ff ff       	call   1007e4 <debug_newline>
  101a03:	83 7d 0c 00          	cmp    DWORD PTR [ebp+0xc],0x0
  101a07:	74 16                	je     101a1f <panicf+0x67>
  101a09:	a1 04 20 51 00       	mov    eax,ds:0x512004
  101a0e:	83 ec 08             	sub    esp,0x8
  101a11:	50                   	push   eax
  101a12:	ff 75 0c             	push   DWORD PTR [ebp+0xc]
  101a15:	e8 0f f7 ff ff       	call   101129 <debug_dumpregs>
  101a1a:	83 c4 10             	add    esp,0x10
  101a1d:	eb 11                	jmp    101a30 <panicf+0x78>
  101a1f:	a1 04 20 51 00       	mov    eax,ds:0x512004
  101a24:	83 ec 0c             	sub    esp,0xc
  101a27:	50                   	push   eax
  101a28:	e8 fe fb ff ff       	call   10162b <debug_dumpregs_raw>
  101a2d:	83 c4 10             	add    esp,0x10
  101a30:	e8 4c ed ff ff       	call   100781 <debug_halt>
  101a35:	90                   	nop
  101a36:	c9                   	leave  
  101a37:	c3                   	ret    

00101a38 <gdt_clear>:
  101a38:	55                   	push   ebp
  101a39:	89 e5                	mov    ebp,esp
  101a3b:	83 ec 10             	sub    esp,0x10
  101a3e:	c6 45 ff 00          	mov    BYTE PTR [ebp-0x1],0x0
  101a42:	eb 42                	jmp    101a86 <gdt_clear+0x4e>
  101a44:	0f b6 45 ff          	movzx  eax,BYTE PTR [ebp-0x1]
  101a48:	66 c7 04 c5 40 20 51 00 00 00 	mov    WORD PTR [eax*8+0x512040],0x0
  101a52:	66 c7 04 c5 42 20 51 00 00 00 	mov    WORD PTR [eax*8+0x512042],0x0
  101a5c:	c6 04 c5 44 20 51 00 00 	mov    BYTE PTR [eax*8+0x512044],0x0
  101a64:	c6 04 c5 45 20 51 00 00 	mov    BYTE PTR [eax*8+0x512045],0x0
  101a6c:	c6 04 c5 46 20 51 00 00 	mov    BYTE PTR [eax*8+0x512046],0x0
  101a74:	c6 04 c5 47 20 51 00 00 	mov    BYTE PTR [eax*8+0x512047],0x0
  101a7c:	0f b6 45 ff          	movzx  eax,BYTE PTR [ebp-0x1]
  101a80:	83 c0 01             	add    eax,0x1
  101a83:	88 45 ff             	mov    BYTE PTR [ebp-0x1],al
  101a86:	80 7d ff 04          	cmp    BYTE PTR [ebp-0x1],0x4
  101a8a:	76 b8                	jbe    101a44 <gdt_clear+0xc>
  101a8c:	90                   	nop
  101a8d:	c9                   	leave  
  101a8e:	c3                   	ret    

00101a8f <idt_clear>:
  101a8f:	55                   	push   ebp
  101a90:	89 e5                	mov    ebp,esp
  101a92:	83 ec 10             	sub    esp,0x10
  101a95:	66 c7 45 fe 00 00    	mov    WORD PTR [ebp-0x2],0x0
  101a9b:	eb 3d                	jmp    101ada <idt_clear+0x4b>
  101a9d:	0f b7 45 fe          	movzx  eax,WORD PTR [ebp-0x2]
  101aa1:	66 c7 04 c5 80 20 51 00 00 00 	mov    WORD PTR [eax*8+0x512080],0x0
  101aab:	66 c7 04 c5 82 20 51 00 00 00 	mov    WORD PTR [eax*8+0x512082],0x0
  101ab5:	c6 04 c5 84 20 51 00 00 	mov    BYTE PTR [eax*8+0x512084],0x0
  101abd:	c6 04 c5 85 20 51 00 00 	mov    BYTE PTR [eax*8+0x512085],0x0
  101ac5:	66 c7 04 c5 86 20 51 00 00 00 	mov    WORD PTR [eax*8+0x512086],0x0
  101acf:	0f b7 45 fe          	movzx  eax,WORD PTR [ebp-0x2]
  101ad3:	83 c0 01             	add    eax,0x1
  101ad6:	66 89 45 fe          	mov    WORD PTR [ebp-0x2],ax
  101ada:	66 81 7d fe ff 00    	cmp    WORD PTR [ebp-0x2],0xff
  101ae0:	76 bb                	jbe    101a9d <idt_clear+0xe>
  101ae2:	90                   	nop
  101ae3:	c9                   	leave  
  101ae4:	c3                   	ret    

00101ae5 <gdt_init>:
  101ae5:	55                   	push   ebp
  101ae6:	89 e5                	mov    ebp,esp
  101ae8:	83 ec 08             	sub    esp,0x8
  101aeb:	e8 48 ff ff ff       	call   101a38 <gdt_clear>
  101af0:	66 c7 05 80 28 51 00 27 00 	mov    WORD PTR ds:0x512880,0x27
  101af9:	b8 40 20 51 00       	mov    eax,0x512040
  101afe:	a3 82 28 51 00       	mov    ds:0x512882,eax
  101b03:	e8 75 00 00 00       	call   101b7d <gdt_set>
  101b08:	b8 80 28 51 00       	mov    eax,0x512880
  101b0d:	83 ec 0c             	sub    esp,0xc
  101b10:	50                   	push   eax
  101b11:	e8 aa 07 00 00       	call   1022c0 <gdt_flush>
  101b16:	83 c4 10             	add    esp,0x10
  101b19:	83 ec 0c             	sub    esp,0xc
  101b1c:	68 b8 cf 10 00       	push   0x10cfb8
  101b21:	e8 c1 f2 ff ff       	call   100de7 <debug_ok>
  101b26:	83 c4 10             	add    esp,0x10
  101b29:	90                   	nop
  101b2a:	c9                   	leave  
  101b2b:	c3                   	ret    

00101b2c <idt_init>:
  101b2c:	55                   	push   ebp
  101b2d:	89 e5                	mov    ebp,esp
  101b2f:	83 ec 08             	sub    esp,0x8
  101b32:	e8 58 ff ff ff       	call   101a8f <idt_clear>
  101b37:	66 c7 05 20 20 51 00 ff 07 	mov    WORD PTR ds:0x512020,0x7ff
  101b40:	b8 80 20 51 00       	mov    eax,0x512080
  101b45:	a3 22 20 51 00       	mov    ds:0x512022,eax
  101b4a:	e8 c4 00 00 00       	call   101c13 <idt_set_isrs>
  101b4f:	e8 d7 27 00 00       	call   10432b <pic_init>
  101b54:	e8 a3 03 00 00       	call   101efc <idt_set_irqs>
  101b59:	b8 20 20 51 00       	mov    eax,0x512020
  101b5e:	83 ec 0c             	sub    esp,0xc
  101b61:	50                   	push   eax
  101b62:	e8 76 07 00 00       	call   1022dd <idt_flush>
  101b67:	83 c4 10             	add    esp,0x10
  101b6a:	83 ec 0c             	sub    esp,0xc
  101b6d:	68 d0 cf 10 00       	push   0x10cfd0
  101b72:	e8 70 f2 ff ff       	call   100de7 <debug_ok>
  101b77:	83 c4 10             	add    esp,0x10
  101b7a:	90                   	nop
  101b7b:	c9                   	leave  
  101b7c:	c3                   	ret    

00101b7d <gdt_set>:
  101b7d:	55                   	push   ebp
  101b7e:	89 e5                	mov    ebp,esp
  101b80:	83 ec 08             	sub    esp,0x8
  101b83:	83 ec 0c             	sub    esp,0xc
  101b86:	6a 00                	push   0x0
  101b88:	6a 00                	push   0x0
  101b8a:	6a 00                	push   0x0
  101b8c:	6a 00                	push   0x0
  101b8e:	6a 00                	push   0x0
  101b90:	e8 41 05 00 00       	call   1020d6 <gdt_set_descriptor>
  101b95:	83 c4 20             	add    esp,0x20
  101b98:	83 ec 0c             	sub    esp,0xc
  101b9b:	68 cf 00 00 00       	push   0xcf
  101ba0:	68 9a 00 00 00       	push   0x9a
  101ba5:	68 ff ff 0f 00       	push   0xfffff
  101baa:	6a 00                	push   0x0
  101bac:	6a 01                	push   0x1
  101bae:	e8 23 05 00 00       	call   1020d6 <gdt_set_descriptor>
  101bb3:	83 c4 20             	add    esp,0x20
  101bb6:	83 ec 0c             	sub    esp,0xc
  101bb9:	68 cf 00 00 00       	push   0xcf
  101bbe:	68 92 00 00 00       	push   0x92
  101bc3:	68 ff ff 0f 00       	push   0xfffff
  101bc8:	6a 00                	push   0x0
  101bca:	6a 02                	push   0x2
  101bcc:	e8 05 05 00 00       	call   1020d6 <gdt_set_descriptor>
  101bd1:	83 c4 20             	add    esp,0x20
  101bd4:	83 ec 0c             	sub    esp,0xc
  101bd7:	68 cf 00 00 00       	push   0xcf
  101bdc:	68 fa 00 00 00       	push   0xfa
  101be1:	68 ff ff 0f 00       	push   0xfffff
  101be6:	6a 00                	push   0x0
  101be8:	6a 03                	push   0x3
  101bea:	e8 e7 04 00 00       	call   1020d6 <gdt_set_descriptor>
  101bef:	83 c4 20             	add    esp,0x20
  101bf2:	83 ec 0c             	sub    esp,0xc
  101bf5:	68 cf 00 00 00       	push   0xcf
  101bfa:	68 f2 00 00 00       	push   0xf2
  101bff:	68 ff ff 0f 00       	push   0xfffff
  101c04:	6a 00                	push   0x0
  101c06:	6a 04                	push   0x4
  101c08:	e8 c9 04 00 00       	call   1020d6 <gdt_set_descriptor>
  101c0d:	83 c4 20             	add    esp,0x20
  101c10:	90                   	nop
  101c11:	c9                   	leave  
  101c12:	c3                   	ret    

00101c13 <idt_set_isrs>:
  101c13:	55                   	push   ebp
  101c14:	89 e5                	mov    ebp,esp
  101c16:	83 ec 08             	sub    esp,0x8
  101c19:	b8 68 23 10 00       	mov    eax,0x102368
  101c1e:	68 8e 00 00 00       	push   0x8e
  101c23:	6a 08                	push   0x8
  101c25:	50                   	push   eax
  101c26:	6a 00                	push   0x0
  101c28:	e8 48 04 00 00       	call   102075 <idt_set_descriptor>
  101c2d:	83 c4 10             	add    esp,0x10
  101c30:	b8 6e 23 10 00       	mov    eax,0x10236e
  101c35:	68 8e 00 00 00       	push   0x8e
  101c3a:	6a 08                	push   0x8
  101c3c:	50                   	push   eax
  101c3d:	6a 01                	push   0x1
  101c3f:	e8 31 04 00 00       	call   102075 <idt_set_descriptor>
  101c44:	83 c4 10             	add    esp,0x10
  101c47:	b8 74 23 10 00       	mov    eax,0x102374
  101c4c:	68 8e 00 00 00       	push   0x8e
  101c51:	6a 08                	push   0x8
  101c53:	50                   	push   eax
  101c54:	6a 02                	push   0x2
  101c56:	e8 1a 04 00 00       	call   102075 <idt_set_descriptor>
  101c5b:	83 c4 10             	add    esp,0x10
  101c5e:	b8 7a 23 10 00       	mov    eax,0x10237a
  101c63:	68 8e 00 00 00       	push   0x8e
  101c68:	6a 08                	push   0x8
  101c6a:	50                   	push   eax
  101c6b:	6a 03                	push   0x3
  101c6d:	e8 03 04 00 00       	call   102075 <idt_set_descriptor>
  101c72:	83 c4 10             	add    esp,0x10
  101c75:	b8 83 23 10 00       	mov    eax,0x102383
  101c7a:	68 8e 00 00 00       	push   0x8e
  101c7f:	6a 08                	push   0x8
  101c81:	50                   	push   eax
  101c82:	6a 04                	push   0x4
  101c84:	e8 ec 03 00 00       	call   102075 <idt_set_descriptor>
  101c89:	83 c4 10             	add    esp,0x10
  101c8c:	b8 8c 23 10 00       	mov    eax,0x10238c
  101c91:	68 8e 00 00 00       	push   0x8e
  101c96:	6a 08                	push   0x8
  101c98:	50                   	push   eax
  101c99:	6a 05                	push   0x5
  101c9b:	e8 d5 03 00 00       	call   102075 <idt_set_descriptor>
  101ca0:	83 c4 10             	add    esp,0x10
  101ca3:	b8 95 23 10 00       	mov    eax,0x102395
  101ca8:	68 8e 00 00 00       	push   0x8e
  101cad:	6a 08                	push   0x8
  101caf:	50                   	push   eax
  101cb0:	6a 06                	push   0x6
  101cb2:	e8 be 03 00 00       	call   102075 <idt_set_descriptor>
  101cb7:	83 c4 10             	add    esp,0x10
  101cba:	b8 9e 23 10 00       	mov    eax,0x10239e
  101cbf:	68 8e 00 00 00       	push   0x8e
  101cc4:	6a 08                	push   0x8
  101cc6:	50                   	push   eax
  101cc7:	6a 07                	push   0x7
  101cc9:	e8 a7 03 00 00       	call   102075 <idt_set_descriptor>
  101cce:	83 c4 10             	add    esp,0x10
  101cd1:	b8 a7 23 10 00       	mov    eax,0x1023a7
  101cd6:	68 8e 00 00 00       	push   0x8e
  101cdb:	6a 08                	push   0x8
  101cdd:	50                   	push   eax
  101cde:	6a 08                	push   0x8
  101ce0:	e8 90 03 00 00       	call   102075 <idt_set_descriptor>
  101ce5:	83 c4 10             	add    esp,0x10
  101ce8:	b8 ae 23 10 00       	mov    eax,0x1023ae
  101ced:	68 8e 00 00 00       	push   0x8e
  101cf2:	6a 08                	push   0x8
  101cf4:	50                   	push   eax
  101cf5:	6a 09                	push   0x9
  101cf7:	e8 79 03 00 00       	call   102075 <idt_set_descriptor>
  101cfc:	83 c4 10             	add    esp,0x10
  101cff:	b8 b7 23 10 00       	mov    eax,0x1023b7
  101d04:	68 8e 00 00 00       	push   0x8e
  101d09:	6a 08                	push   0x8
  101d0b:	50                   	push   eax
  101d0c:	6a 0a                	push   0xa
  101d0e:	e8 62 03 00 00       	call   102075 <idt_set_descriptor>
  101d13:	83 c4 10             	add    esp,0x10
  101d16:	b8 be 23 10 00       	mov    eax,0x1023be
  101d1b:	68 8e 00 00 00       	push   0x8e
  101d20:	6a 08                	push   0x8
  101d22:	50                   	push   eax
  101d23:	6a 0b                	push   0xb
  101d25:	e8 4b 03 00 00       	call   102075 <idt_set_descriptor>
  101d2a:	83 c4 10             	add    esp,0x10
  101d2d:	b8 c5 23 10 00       	mov    eax,0x1023c5
  101d32:	68 8e 00 00 00       	push   0x8e
  101d37:	6a 08                	push   0x8
  101d39:	50                   	push   eax
  101d3a:	6a 0c                	push   0xc
  101d3c:	e8 34 03 00 00       	call   102075 <idt_set_descriptor>
  101d41:	83 c4 10             	add    esp,0x10
  101d44:	b8 cc 23 10 00       	mov    eax,0x1023cc
  101d49:	68 8e 00 00 00       	push   0x8e
  101d4e:	6a 08                	push   0x8
  101d50:	50                   	push   eax
  101d51:	6a 0d                	push   0xd
  101d53:	e8 1d 03 00 00       	call   102075 <idt_set_descriptor>
  101d58:	83 c4 10             	add    esp,0x10
  101d5b:	b8 d3 23 10 00       	mov    eax,0x1023d3
  101d60:	68 8e 00 00 00       	push   0x8e
  101d65:	6a 08                	push   0x8
  101d67:	50                   	push   eax
  101d68:	6a 0e                	push   0xe
  101d6a:	e8 06 03 00 00       	call   102075 <idt_set_descriptor>
  101d6f:	83 c4 10             	add    esp,0x10
  101d72:	b8 da 23 10 00       	mov    eax,0x1023da
  101d77:	68 8e 00 00 00       	push   0x8e
  101d7c:	6a 08                	push   0x8
  101d7e:	50                   	push   eax
  101d7f:	6a 0f                	push   0xf
  101d81:	e8 ef 02 00 00       	call   102075 <idt_set_descriptor>
  101d86:	83 c4 10             	add    esp,0x10
  101d89:	b8 e3 23 10 00       	mov    eax,0x1023e3
  101d8e:	68 8e 00 00 00       	push   0x8e
  101d93:	6a 08                	push   0x8
  101d95:	50                   	push   eax
  101d96:	6a 10                	push   0x10
  101d98:	e8 d8 02 00 00       	call   102075 <idt_set_descriptor>
  101d9d:	83 c4 10             	add    esp,0x10
  101da0:	b8 ec 23 10 00       	mov    eax,0x1023ec
  101da5:	68 8e 00 00 00       	push   0x8e
  101daa:	6a 08                	push   0x8
  101dac:	50                   	push   eax
  101dad:	6a 11                	push   0x11
  101daf:	e8 c1 02 00 00       	call   102075 <idt_set_descriptor>
  101db4:	83 c4 10             	add    esp,0x10
  101db7:	b8 f3 23 10 00       	mov    eax,0x1023f3
  101dbc:	68 8e 00 00 00       	push   0x8e
  101dc1:	6a 08                	push   0x8
  101dc3:	50                   	push   eax
  101dc4:	6a 12                	push   0x12
  101dc6:	e8 aa 02 00 00       	call   102075 <idt_set_descriptor>
  101dcb:	83 c4 10             	add    esp,0x10
  101dce:	b8 fc 23 10 00       	mov    eax,0x1023fc
  101dd3:	68 8e 00 00 00       	push   0x8e
  101dd8:	6a 08                	push   0x8
  101dda:	50                   	push   eax
  101ddb:	6a 13                	push   0x13
  101ddd:	e8 93 02 00 00       	call   102075 <idt_set_descriptor>
  101de2:	83 c4 10             	add    esp,0x10
  101de5:	b8 05 24 10 00       	mov    eax,0x102405
  101dea:	68 8e 00 00 00       	push   0x8e
  101def:	6a 08                	push   0x8
  101df1:	50                   	push   eax
  101df2:	6a 14                	push   0x14
  101df4:	e8 7c 02 00 00       	call   102075 <idt_set_descriptor>
  101df9:	83 c4 10             	add    esp,0x10
  101dfc:	b8 0e 24 10 00       	mov    eax,0x10240e
  101e01:	68 8e 00 00 00       	push   0x8e
  101e06:	6a 08                	push   0x8
  101e08:	50                   	push   eax
  101e09:	6a 15                	push   0x15
  101e0b:	e8 65 02 00 00       	call   102075 <idt_set_descriptor>
  101e10:	83 c4 10             	add    esp,0x10
  101e13:	b8 15 24 10 00       	mov    eax,0x102415
  101e18:	68 8e 00 00 00       	push   0x8e
  101e1d:	6a 08                	push   0x8
  101e1f:	50                   	push   eax
  101e20:	6a 16                	push   0x16
  101e22:	e8 4e 02 00 00       	call   102075 <idt_set_descriptor>
  101e27:	83 c4 10             	add    esp,0x10
  101e2a:	b8 1e 24 10 00       	mov    eax,0x10241e
  101e2f:	68 8e 00 00 00       	push   0x8e
  101e34:	6a 08                	push   0x8
  101e36:	50                   	push   eax
  101e37:	6a 17                	push   0x17
  101e39:	e8 37 02 00 00       	call   102075 <idt_set_descriptor>
  101e3e:	83 c4 10             	add    esp,0x10
  101e41:	b8 27 24 10 00       	mov    eax,0x102427
  101e46:	68 8e 00 00 00       	push   0x8e
  101e4b:	6a 08                	push   0x8
  101e4d:	50                   	push   eax
  101e4e:	6a 18                	push   0x18
  101e50:	e8 20 02 00 00       	call   102075 <idt_set_descriptor>
  101e55:	83 c4 10             	add    esp,0x10
  101e58:	b8 30 24 10 00       	mov    eax,0x102430
  101e5d:	68 8e 00 00 00       	push   0x8e
  101e62:	6a 08                	push   0x8
  101e64:	50                   	push   eax
  101e65:	6a 19                	push   0x19
  101e67:	e8 09 02 00 00       	call   102075 <idt_set_descriptor>
  101e6c:	83 c4 10             	add    esp,0x10
  101e6f:	b8 39 24 10 00       	mov    eax,0x102439
  101e74:	68 8e 00 00 00       	push   0x8e
  101e79:	6a 08                	push   0x8
  101e7b:	50                   	push   eax
  101e7c:	6a 1a                	push   0x1a
  101e7e:	e8 f2 01 00 00       	call   102075 <idt_set_descriptor>
  101e83:	83 c4 10             	add    esp,0x10
  101e86:	b8 42 24 10 00       	mov    eax,0x102442
  101e8b:	68 8e 00 00 00       	push   0x8e
  101e90:	6a 08                	push   0x8
  101e92:	50                   	push   eax
  101e93:	6a 1b                	push   0x1b
  101e95:	e8 db 01 00 00       	call   102075 <idt_set_descriptor>
  101e9a:	83 c4 10             	add    esp,0x10
  101e9d:	b8 4b 24 10 00       	mov    eax,0x10244b
  101ea2:	68 8e 00 00 00       	push   0x8e
  101ea7:	6a 08                	push   0x8
  101ea9:	50                   	push   eax
  101eaa:	6a 1c                	push   0x1c
  101eac:	e8 c4 01 00 00       	call   102075 <idt_set_descriptor>
  101eb1:	83 c4 10             	add    esp,0x10
  101eb4:	b8 54 24 10 00       	mov    eax,0x102454
  101eb9:	68 8e 00 00 00       	push   0x8e
  101ebe:	6a 08                	push   0x8
  101ec0:	50                   	push   eax
  101ec1:	6a 1d                	push   0x1d
  101ec3:	e8 ad 01 00 00       	call   102075 <idt_set_descriptor>
  101ec8:	83 c4 10             	add    esp,0x10
  101ecb:	b8 5d 24 10 00       	mov    eax,0x10245d
  101ed0:	68 8e 00 00 00       	push   0x8e
  101ed5:	6a 08                	push   0x8
  101ed7:	50                   	push   eax
  101ed8:	6a 1e                	push   0x1e
  101eda:	e8 96 01 00 00       	call   102075 <idt_set_descriptor>
  101edf:	83 c4 10             	add    esp,0x10
  101ee2:	b8 66 24 10 00       	mov    eax,0x102466
  101ee7:	68 8e 00 00 00       	push   0x8e
  101eec:	6a 08                	push   0x8
  101eee:	50                   	push   eax
  101eef:	6a 1f                	push   0x1f
  101ef1:	e8 7f 01 00 00       	call   102075 <idt_set_descriptor>
  101ef6:	83 c4 10             	add    esp,0x10
  101ef9:	90                   	nop
  101efa:	c9                   	leave  
  101efb:	c3                   	ret    

00101efc <idt_set_irqs>:
  101efc:	55                   	push   ebp
  101efd:	89 e5                	mov    ebp,esp
  101eff:	83 ec 08             	sub    esp,0x8
  101f02:	b8 6f 24 10 00       	mov    eax,0x10246f
  101f07:	68 8e 00 00 00       	push   0x8e
  101f0c:	6a 08                	push   0x8
  101f0e:	50                   	push   eax
  101f0f:	6a 20                	push   0x20
  101f11:	e8 5f 01 00 00       	call   102075 <idt_set_descriptor>
  101f16:	83 c4 10             	add    esp,0x10
  101f19:	b8 78 24 10 00       	mov    eax,0x102478
  101f1e:	68 8e 00 00 00       	push   0x8e
  101f23:	6a 08                	push   0x8
  101f25:	50                   	push   eax
  101f26:	6a 21                	push   0x21
  101f28:	e8 48 01 00 00       	call   102075 <idt_set_descriptor>
  101f2d:	83 c4 10             	add    esp,0x10
  101f30:	b8 81 24 10 00       	mov    eax,0x102481
  101f35:	68 8e 00 00 00       	push   0x8e
  101f3a:	6a 08                	push   0x8
  101f3c:	50                   	push   eax
  101f3d:	6a 22                	push   0x22
  101f3f:	e8 31 01 00 00       	call   102075 <idt_set_descriptor>
  101f44:	83 c4 10             	add    esp,0x10
  101f47:	b8 8a 24 10 00       	mov    eax,0x10248a
  101f4c:	68 8e 00 00 00       	push   0x8e
  101f51:	6a 08                	push   0x8
  101f53:	50                   	push   eax
  101f54:	6a 23                	push   0x23
  101f56:	e8 1a 01 00 00       	call   102075 <idt_set_descriptor>
  101f5b:	83 c4 10             	add    esp,0x10
  101f5e:	b8 93 24 10 00       	mov    eax,0x102493
  101f63:	68 8e 00 00 00       	push   0x8e
  101f68:	6a 08                	push   0x8
  101f6a:	50                   	push   eax
  101f6b:	6a 24                	push   0x24
  101f6d:	e8 03 01 00 00       	call   102075 <idt_set_descriptor>
  101f72:	83 c4 10             	add    esp,0x10
  101f75:	b8 9c 24 10 00       	mov    eax,0x10249c
  101f7a:	68 8e 00 00 00       	push   0x8e
  101f7f:	6a 08                	push   0x8
  101f81:	50                   	push   eax
  101f82:	6a 25                	push   0x25
  101f84:	e8 ec 00 00 00       	call   102075 <idt_set_descriptor>
  101f89:	83 c4 10             	add    esp,0x10
  101f8c:	b8 a5 24 10 00       	mov    eax,0x1024a5
  101f91:	68 8e 00 00 00       	push   0x8e
  101f96:	6a 08                	push   0x8
  101f98:	50                   	push   eax
  101f99:	6a 26                	push   0x26
  101f9b:	e8 d5 00 00 00       	call   102075 <idt_set_descriptor>
  101fa0:	83 c4 10             	add    esp,0x10
  101fa3:	b8 ae 24 10 00       	mov    eax,0x1024ae
  101fa8:	68 8e 00 00 00       	push   0x8e
  101fad:	6a 08                	push   0x8
  101faf:	50                   	push   eax
  101fb0:	6a 27                	push   0x27
  101fb2:	e8 be 00 00 00       	call   102075 <idt_set_descriptor>
  101fb7:	83 c4 10             	add    esp,0x10
  101fba:	b8 b7 24 10 00       	mov    eax,0x1024b7
  101fbf:	68 8e 00 00 00       	push   0x8e
  101fc4:	6a 08                	push   0x8
  101fc6:	50                   	push   eax
  101fc7:	6a 28                	push   0x28
  101fc9:	e8 a7 00 00 00       	call   102075 <idt_set_descriptor>
  101fce:	83 c4 10             	add    esp,0x10
  101fd1:	b8 c0 24 10 00       	mov    eax,0x1024c0
  101fd6:	68 8e 00 00 00       	push   0x8e
  101fdb:	6a 08                	push   0x8
  101fdd:	50                   	push   eax
  101fde:	6a 29                	push   0x29
  101fe0:	e8 90 00 00 00       	call   102075 <idt_set_descriptor>
  101fe5:	83 c4 10             	add    esp,0x10
  101fe8:	b8 c9 24 10 00       	mov    eax,0x1024c9
  101fed:	68 8e 00 00 00       	push   0x8e
  101ff2:	6a 08                	push   0x8
  101ff4:	50                   	push   eax
  101ff5:	6a 2a                	push   0x2a
  101ff7:	e8 79 00 00 00       	call   102075 <idt_set_descriptor>
  101ffc:	83 c4 10             	add    esp,0x10
  101fff:	b8 d2 24 10 00       	mov    eax,0x1024d2
  102004:	68 8e 00 00 00       	push   0x8e
  102009:	6a 08                	push   0x8
  10200b:	50                   	push   eax
  10200c:	6a 2b                	push   0x2b
  10200e:	e8 62 00 00 00       	call   102075 <idt_set_descriptor>
  102013:	83 c4 10             	add    esp,0x10
  102016:	b8 db 24 10 00       	mov    eax,0x1024db
  10201b:	68 8e 00 00 00       	push   0x8e
  102020:	6a 08                	push   0x8
  102022:	50                   	push   eax
  102023:	6a 2c                	push   0x2c
  102025:	e8 4b 00 00 00       	call   102075 <idt_set_descriptor>
  10202a:	83 c4 10             	add    esp,0x10
  10202d:	b8 e4 24 10 00       	mov    eax,0x1024e4
  102032:	68 8e 00 00 00       	push   0x8e
  102037:	6a 08                	push   0x8
  102039:	50                   	push   eax
  10203a:	6a 2d                	push   0x2d
  10203c:	e8 34 00 00 00       	call   102075 <idt_set_descriptor>
  102041:	83 c4 10             	add    esp,0x10
  102044:	b8 ed 24 10 00       	mov    eax,0x1024ed
  102049:	68 8e 00 00 00       	push   0x8e
  10204e:	6a 08                	push   0x8
  102050:	50                   	push   eax
  102051:	6a 2e                	push   0x2e
  102053:	e8 1d 00 00 00       	call   102075 <idt_set_descriptor>
  102058:	83 c4 10             	add    esp,0x10
  10205b:	b8 f6 24 10 00       	mov    eax,0x1024f6
  102060:	68 8e 00 00 00       	push   0x8e
  102065:	6a 08                	push   0x8
  102067:	50                   	push   eax
  102068:	6a 2f                	push   0x2f
  10206a:	e8 06 00 00 00       	call   102075 <idt_set_descriptor>
  10206f:	83 c4 10             	add    esp,0x10
  102072:	90                   	nop
  102073:	c9                   	leave  
  102074:	c3                   	ret    

00102075 <idt_set_descriptor>:
  102075:	55                   	push   ebp
  102076:	89 e5                	mov    ebp,esp
  102078:	83 ec 08             	sub    esp,0x8
  10207b:	8b 55 10             	mov    edx,DWORD PTR [ebp+0x10]
  10207e:	8b 45 14             	mov    eax,DWORD PTR [ebp+0x14]
  102081:	66 89 55 fc          	mov    WORD PTR [ebp-0x4],dx
  102085:	88 45 f8             	mov    BYTE PTR [ebp-0x8],al
  102088:	8b 45 0c             	mov    eax,DWORD PTR [ebp+0xc]
  10208b:	89 c2                	mov    edx,eax
  10208d:	8b 45 08             	mov    eax,DWORD PTR [ebp+0x8]
  102090:	66 89 14 c5 80 20 51 00 	mov    WORD PTR [eax*8+0x512080],dx
  102098:	8b 45 0c             	mov    eax,DWORD PTR [ebp+0xc]
  10209b:	c1 e8 10             	shr    eax,0x10
  10209e:	89 c2                	mov    edx,eax
  1020a0:	8b 45 08             	mov    eax,DWORD PTR [ebp+0x8]
  1020a3:	66 89 14 c5 86 20 51 00 	mov    WORD PTR [eax*8+0x512086],dx
  1020ab:	8b 45 08             	mov    eax,DWORD PTR [ebp+0x8]
  1020ae:	0f b7 55 fc          	movzx  edx,WORD PTR [ebp-0x4]
  1020b2:	66 89 14 c5 82 20 51 00 	mov    WORD PTR [eax*8+0x512082],dx
  1020ba:	8b 45 08             	mov    eax,DWORD PTR [ebp+0x8]
  1020bd:	c6 04 c5 84 20 51 00 00 	mov    BYTE PTR [eax*8+0x512084],0x0
  1020c5:	8b 45 08             	mov    eax,DWORD PTR [ebp+0x8]
  1020c8:	0f b6 55 f8          	movzx  edx,BYTE PTR [ebp-0x8]
  1020cc:	88 14 c5 85 20 51 00 	mov    BYTE PTR [eax*8+0x512085],dl
  1020d3:	90                   	nop
  1020d4:	c9                   	leave  
  1020d5:	c3                   	ret    

001020d6 <gdt_set_descriptor>:
  1020d6:	55                   	push   ebp
  1020d7:	89 e5                	mov    ebp,esp
  1020d9:	83 ec 08             	sub    esp,0x8
  1020dc:	8b 55 14             	mov    edx,DWORD PTR [ebp+0x14]
  1020df:	8b 45 18             	mov    eax,DWORD PTR [ebp+0x18]
  1020e2:	88 55 fc             	mov    BYTE PTR [ebp-0x4],dl
  1020e5:	88 45 f8             	mov    BYTE PTR [ebp-0x8],al
  1020e8:	8b 45 0c             	mov    eax,DWORD PTR [ebp+0xc]
  1020eb:	89 c2                	mov    edx,eax
  1020ed:	8b 45 08             	mov    eax,DWORD PTR [ebp+0x8]
  1020f0:	66 89 14 c5 42 20 51 00 	mov    WORD PTR [eax*8+0x512042],dx
  1020f8:	8b 45 0c             	mov    eax,DWORD PTR [ebp+0xc]
  1020fb:	c1 e8 10             	shr    eax,0x10
  1020fe:	89 c2                	mov    edx,eax
  102100:	8b 45 08             	mov    eax,DWORD PTR [ebp+0x8]
  102103:	88 14 c5 44 20 51 00 	mov    BYTE PTR [eax*8+0x512044],dl
  10210a:	8b 45 0c             	mov    eax,DWORD PTR [ebp+0xc]
  10210d:	c1 e8 18             	shr    eax,0x18
  102110:	89 c2                	mov    edx,eax
  102112:	8b 45 08             	mov    eax,DWORD PTR [ebp+0x8]
  102115:	88 14 c5 47 20 51 00 	mov    BYTE PTR [eax*8+0x512047],dl
  10211c:	8b 45 10             	mov    eax,DWORD PTR [ebp+0x10]
  10211f:	89 c2                	mov    edx,eax
  102121:	8b 45 08             	mov    eax,DWORD PTR [ebp+0x8]
  102124:	66 89 14 c5 40 20 51 00 	mov    WORD PTR [eax*8+0x512040],dx
  10212c:	8b 45 10             	mov    eax,DWORD PTR [ebp+0x10]
  10212f:	c1 e8 10             	shr    eax,0x10
  102132:	83 e0 0f             	and    eax,0xf
  102135:	89 c2                	mov    edx,eax
  102137:	8b 45 08             	mov    eax,DWORD PTR [ebp+0x8]
  10213a:	88 14 c5 46 20 51 00 	mov    BYTE PTR [eax*8+0x512046],dl
  102141:	8b 45 08             	mov    eax,DWORD PTR [ebp+0x8]
  102144:	0f b6 04 c5 46 20 51 00 	movzx  eax,BYTE PTR [eax*8+0x512046]
  10214c:	89 c2                	mov    edx,eax
  10214e:	0f b6 45 f8          	movzx  eax,BYTE PTR [ebp-0x8]
  102152:	83 e0 f0             	and    eax,0xfffffff0
  102155:	09 d0                	or     eax,edx
  102157:	89 c2                	mov    edx,eax
  102159:	8b 45 08             	mov    eax,DWORD PTR [ebp+0x8]
  10215c:	88 14 c5 46 20 51 00 	mov    BYTE PTR [eax*8+0x512046],dl
  102163:	8b 45 08             	mov    eax,DWORD PTR [ebp+0x8]
  102166:	0f b6 55 fc          	movzx  edx,BYTE PTR [ebp-0x4]
  10216a:	88 14 c5 45 20 51 00 	mov    BYTE PTR [eax*8+0x512045],dl
  102171:	90                   	nop
  102172:	c9                   	leave  
  102173:	c3                   	ret    

00102174 <cli>:
  102174:	55                   	push   ebp
  102175:	89 e5                	mov    ebp,esp
  102177:	fa                   	cli    
  102178:	90                   	nop
  102179:	5d                   	pop    ebp
  10217a:	c3                   	ret    

0010217b <sti>:
  10217b:	55                   	push   ebp
  10217c:	89 e5                	mov    ebp,esp
  10217e:	fb                   	sti    
  10217f:	90                   	nop
  102180:	5d                   	pop    ebp
  102181:	c3                   	ret    

00102182 <isr_clear>:
  102182:	55                   	push   ebp
  102183:	89 e5                	mov    ebp,esp
  102185:	83 ec 10             	sub    esp,0x10
  102188:	c7 45 fc 00 00 00 00 	mov    DWORD PTR [ebp-0x4],0x0
  10218f:	eb 12                	jmp    1021a3 <isr_clear+0x21>
  102191:	8b 45 fc             	mov    eax,DWORD PTR [ebp-0x4]
  102194:	c7 04 85 a0 28 51 00 00 00 00 00 	mov    DWORD PTR [eax*4+0x5128a0],0x0
  10219f:	83 45 fc 01          	add    DWORD PTR [ebp-0x4],0x1
  1021a3:	81 7d fc ff 00 00 00 	cmp    DWORD PTR [ebp-0x4],0xff
  1021aa:	76 e5                	jbe    102191 <isr_clear+0xf>
  1021ac:	90                   	nop
  1021ad:	c9                   	leave  
  1021ae:	c3                   	ret    

001021af <isr_init>:
  1021af:	55                   	push   ebp
  1021b0:	89 e5                	mov    ebp,esp
  1021b2:	83 ec 08             	sub    esp,0x8
  1021b5:	e8 c8 ff ff ff       	call   102182 <isr_clear>
  1021ba:	83 ec 0c             	sub    esp,0xc
  1021bd:	68 d0 d2 10 00       	push   0x10d2d0
  1021c2:	e8 20 ec ff ff       	call   100de7 <debug_ok>
  1021c7:	83 c4 10             	add    esp,0x10
  1021ca:	90                   	nop
  1021cb:	c9                   	leave  
  1021cc:	c3                   	ret    

001021cd <irq_register>:
  1021cd:	55                   	push   ebp
  1021ce:	89 e5                	mov    ebp,esp
  1021d0:	83 ec 04             	sub    esp,0x4
  1021d3:	8b 45 08             	mov    eax,DWORD PTR [ebp+0x8]
  1021d6:	88 45 fc             	mov    BYTE PTR [ebp-0x4],al
  1021d9:	83 7d 0c 00          	cmp    DWORD PTR [ebp+0xc],0x0
  1021dd:	74 10                	je     1021ef <irq_register+0x22>
  1021df:	0f b6 45 fc          	movzx  eax,BYTE PTR [ebp-0x4]
  1021e3:	8b 55 0c             	mov    edx,DWORD PTR [ebp+0xc]
  1021e6:	89 14 85 a0 28 51 00 	mov    DWORD PTR [eax*4+0x5128a0],edx
  1021ed:	eb 01                	jmp    1021f0 <irq_register+0x23>
  1021ef:	90                   	nop
  1021f0:	c9                   	leave  
  1021f1:	c3                   	ret    

001021f2 <irq_unregister>:
  1021f2:	55                   	push   ebp
  1021f3:	89 e5                	mov    ebp,esp
  1021f5:	83 ec 04             	sub    esp,0x4
  1021f8:	8b 45 08             	mov    eax,DWORD PTR [ebp+0x8]
  1021fb:	88 45 fc             	mov    BYTE PTR [ebp-0x4],al
  1021fe:	e8 71 ff ff ff       	call   102174 <cli>
  102203:	0f b6 45 fc          	movzx  eax,BYTE PTR [ebp-0x4]
  102207:	c7 04 85 a0 28 51 00 00 00 00 00 	mov    DWORD PTR [eax*4+0x5128a0],0x0
  102212:	e8 64 ff ff ff       	call   10217b <sti>
  102217:	90                   	nop
  102218:	c9                   	leave  
  102219:	c3                   	ret    

0010221a <isr_handler>:
  10221a:	55                   	push   ebp
  10221b:	89 e5                	mov    ebp,esp
  10221d:	83 ec 08             	sub    esp,0x8
  102220:	8b 45 08             	mov    eax,DWORD PTR [ebp+0x8]
  102223:	8b 40 24             	mov    eax,DWORD PTR [eax+0x24]
  102226:	83 ec 08             	sub    esp,0x8
  102229:	ff 75 08             	push   DWORD PTR [ebp+0x8]
  10222c:	50                   	push   eax
  10222d:	e8 1e f7 ff ff       	call   101950 <panici>
  102232:	83 c4 10             	add    esp,0x10
  102235:	90                   	nop
  102236:	c9                   	leave  
  102237:	c3                   	ret    

00102238 <irq_handler>:
  102238:	55                   	push   ebp
  102239:	89 e5                	mov    ebp,esp
  10223b:	83 ec 08             	sub    esp,0x8
  10223e:	8b 45 08             	mov    eax,DWORD PTR [ebp+0x8]
  102241:	8b 40 24             	mov    eax,DWORD PTR [eax+0x24]
  102244:	8b 04 85 a0 28 51 00 	mov    eax,DWORD PTR [eax*4+0x5128a0]
  10224b:	85 c0                	test   eax,eax
  10224d:	74 18                	je     102267 <irq_handler+0x2f>
  10224f:	8b 45 08             	mov    eax,DWORD PTR [ebp+0x8]
  102252:	8b 40 24             	mov    eax,DWORD PTR [eax+0x24]
  102255:	8b 04 85 a0 28 51 00 	mov    eax,DWORD PTR [eax*4+0x5128a0]
  10225c:	83 ec 0c             	sub    esp,0xc
  10225f:	ff 75 08             	push   DWORD PTR [ebp+0x8]
  102262:	ff d0                	call   eax
  102264:	83 c4 10             	add    esp,0x10
  102267:	8b 45 08             	mov    eax,DWORD PTR [ebp+0x8]
  10226a:	8b 40 24             	mov    eax,DWORD PTR [eax+0x24]
  10226d:	83 f8 27             	cmp    eax,0x27
  102270:	76 12                	jbe    102284 <irq_handler+0x4c>
  102272:	83 ec 08             	sub    esp,0x8
  102275:	6a 20                	push   0x20
  102277:	68 a0 00 00 00       	push   0xa0
  10227c:	e8 85 23 00 00       	call   104606 <port_outb>
  102281:	83 c4 10             	add    esp,0x10
  102284:	83 ec 08             	sub    esp,0x8
  102287:	6a 20                	push   0x20
  102289:	6a 20                	push   0x20
  10228b:	e8 76 23 00 00       	call   104606 <port_outb>
  102290:	83 c4 10             	add    esp,0x10
  102293:	90                   	nop
  102294:	c9                   	leave  
  102295:	c3                   	ret    

00102296 <pit_handler>:
  102296:	55                   	push   ebp
  102297:	89 e5                	mov    ebp,esp
  102299:	83 ec 08             	sub    esp,0x8
  10229c:	83 ec 08             	sub    esp,0x8
  10229f:	6a 20                	push   0x20
  1022a1:	6a 20                	push   0x20
  1022a3:	e8 5e 23 00 00       	call   104606 <port_outb>
  1022a8:	83 c4 10             	add    esp,0x10
  1022ab:	e8 fa 21 00 00       	call   1044aa <pit_calculate>
  1022b0:	e8 7c 4c 00 00       	call   106f31 <taskmgr_schedule>
  1022b5:	90                   	nop
  1022b6:	c9                   	leave  
  1022b7:	c3                   	ret    
  1022b8:	66 90                	xchg   ax,ax
  1022ba:	66 90                	xchg   ax,ax
  1022bc:	66 90                	xchg   ax,ax
  1022be:	66 90                	xchg   ax,ax

001022c0 <gdt_flush>:
  1022c0:	8b 44 24 04          	mov    eax,DWORD PTR [esp+0x4]
  1022c4:	0f 01 10             	lgdtd  [eax]
  1022c7:	66 b8 10 00          	mov    ax,0x10
  1022cb:	8e d8                	mov    ds,eax
  1022cd:	8e c0                	mov    es,eax
  1022cf:	8e e0                	mov    fs,eax
  1022d1:	8e e8                	mov    gs,eax
  1022d3:	8e d0                	mov    ss,eax
  1022d5:	ea dc 22 10 00 08 00 	jmp    0x8:0x1022dc

001022dc <gdt_flush.gdt_flush_end>:
  1022dc:	c3                   	ret    

001022dd <idt_flush>:
  1022dd:	8b 44 24 04          	mov    eax,DWORD PTR [esp+0x4]
  1022e1:	0f 01 18             	lidtd  [eax]
  1022e4:	66 b8 10 00          	mov    ax,0x10
  1022e8:	8e d8                	mov    ds,eax
  1022ea:	8e c0                	mov    es,eax
  1022ec:	8e e0                	mov    fs,eax
  1022ee:	8e e8                	mov    gs,eax
  1022f0:	8e d0                	mov    ss,eax
  1022f2:	ea f9 22 10 00 08 00 	jmp    0x8:0x1022f9

001022f9 <idt_flush.idt_flush_end>:
  1022f9:	c3                   	ret    

001022fa <isr_common_stub>:
  1022fa:	60                   	pusha  
  1022fb:	66 8c d8             	mov    ax,ds
  1022fe:	50                   	push   eax
  1022ff:	66 b8 10 00          	mov    ax,0x10
  102303:	8e d8                	mov    ds,eax
  102305:	8e c0                	mov    es,eax
  102307:	8e e0                	mov    fs,eax
  102309:	8e e8                	mov    gs,eax
  10230b:	8e d0                	mov    ss,eax
  10230d:	54                   	push   esp
  10230e:	e8 07 ff ff ff       	call   10221a <isr_handler>
  102313:	83 c4 04             	add    esp,0x4
  102316:	5b                   	pop    ebx
  102317:	8e db                	mov    ds,ebx
  102319:	8e c3                	mov    es,ebx
  10231b:	8e e3                	mov    fs,ebx
  10231d:	8e eb                	mov    gs,ebx
  10231f:	8e d3                	mov    ss,ebx
  102321:	61                   	popa   
  102322:	83 c4 08             	add    esp,0x8
  102325:	cf                   	iret   

00102326 <irq_common_stub>:
  102326:	60                   	pusha  
  102327:	66 8c d8             	mov    ax,ds
  10232a:	50                   	push   eax
  10232b:	66 b8 10 00          	mov    ax,0x10
  10232f:	8e d8                	mov    ds,eax
  102331:	8e c0                	mov    es,eax
  102333:	8e e0                	mov    fs,eax
  102335:	8e e8                	mov    gs,eax
  102337:	8e d0                	mov    ss,eax
  102339:	54                   	push   esp
  10233a:	e8 f9 fe ff ff       	call   102238 <irq_handler>
  10233f:	83 c4 04             	add    esp,0x4
  102342:	5b                   	pop    ebx
  102343:	8e db                	mov    ds,ebx
  102345:	8e c3                	mov    es,ebx
  102347:	8e e3                	mov    fs,ebx
  102349:	8e eb                	mov    gs,ebx
  10234b:	8e d3                	mov    ss,ebx
  10234d:	61                   	popa   
  10234e:	83 c4 08             	add    esp,0x8
  102351:	cf                   	iret   

00102352 <irq_common_stub.end>:
  102352:	60                   	pusha  
  102353:	66 8c d8             	mov    ax,ds
  102356:	50                   	push   eax
  102357:	54                   	push   esp
  102358:	e8 39 ff ff ff       	call   102296 <pit_handler>
  10235d:	83 c4 04             	add    esp,0x4
  102360:	5b                   	pop    ebx
  102361:	8e db                	mov    ds,ebx
  102363:	61                   	popa   
  102364:	83 c4 08             	add    esp,0x8
  102367:	cf                   	iret   

00102368 <isr0>:
  102368:	6a 00                	push   0x0
  10236a:	6a 00                	push   0x0
  10236c:	eb 8c                	jmp    1022fa <isr_common_stub>

0010236e <isr1>:
  10236e:	6a 00                	push   0x0
  102370:	6a 01                	push   0x1
  102372:	eb 86                	jmp    1022fa <isr_common_stub>

00102374 <isr2>:
  102374:	6a 00                	push   0x0
  102376:	6a 02                	push   0x2
  102378:	eb 80                	jmp    1022fa <isr_common_stub>

0010237a <isr3>:
  10237a:	6a 00                	push   0x0
  10237c:	6a 03                	push   0x3
  10237e:	e9 77 ff ff ff       	jmp    1022fa <isr_common_stub>

00102383 <isr4>:
  102383:	6a 00                	push   0x0
  102385:	6a 04                	push   0x4
  102387:	e9 6e ff ff ff       	jmp    1022fa <isr_common_stub>

0010238c <isr5>:
  10238c:	6a 00                	push   0x0
  10238e:	6a 05                	push   0x5
  102390:	e9 65 ff ff ff       	jmp    1022fa <isr_common_stub>

00102395 <isr6>:
  102395:	6a 00                	push   0x0
  102397:	6a 06                	push   0x6
  102399:	e9 5c ff ff ff       	jmp    1022fa <isr_common_stub>

0010239e <isr7>:
  10239e:	6a 00                	push   0x0
  1023a0:	6a 07                	push   0x7
  1023a2:	e9 53 ff ff ff       	jmp    1022fa <isr_common_stub>

001023a7 <isr8>:
  1023a7:	6a 08                	push   0x8
  1023a9:	e9 4c ff ff ff       	jmp    1022fa <isr_common_stub>

001023ae <isr9>:
  1023ae:	6a 00                	push   0x0
  1023b0:	6a 09                	push   0x9
  1023b2:	e9 43 ff ff ff       	jmp    1022fa <isr_common_stub>

001023b7 <isr10>:
  1023b7:	6a 0a                	push   0xa
  1023b9:	e9 3c ff ff ff       	jmp    1022fa <isr_common_stub>

001023be <isr11>:
  1023be:	6a 0b                	push   0xb
  1023c0:	e9 35 ff ff ff       	jmp    1022fa <isr_common_stub>

001023c5 <isr12>:
  1023c5:	6a 0c                	push   0xc
  1023c7:	e9 2e ff ff ff       	jmp    1022fa <isr_common_stub>

001023cc <isr13>:
  1023cc:	6a 0d                	push   0xd
  1023ce:	e9 27 ff ff ff       	jmp    1022fa <isr_common_stub>

001023d3 <isr14>:
  1023d3:	6a 0e                	push   0xe
  1023d5:	e9 20 ff ff ff       	jmp    1022fa <isr_common_stub>

001023da <isr15>:
  1023da:	6a 00                	push   0x0
  1023dc:	6a 0f                	push   0xf
  1023de:	e9 17 ff ff ff       	jmp    1022fa <isr_common_stub>

001023e3 <isr16>:
  1023e3:	6a 00                	push   0x0
  1023e5:	6a 10                	push   0x10
  1023e7:	e9 0e ff ff ff       	jmp    1022fa <isr_common_stub>

001023ec <isr17>:
  1023ec:	6a 11                	push   0x11
  1023ee:	e9 07 ff ff ff       	jmp    1022fa <isr_common_stub>

001023f3 <isr18>:
  1023f3:	6a 00                	push   0x0
  1023f5:	6a 12                	push   0x12
  1023f7:	e9 fe fe ff ff       	jmp    1022fa <isr_common_stub>

001023fc <isr19>:
  1023fc:	6a 00                	push   0x0
  1023fe:	6a 13                	push   0x13
  102400:	e9 f5 fe ff ff       	jmp    1022fa <isr_common_stub>

00102405 <isr20>:
  102405:	6a 00                	push   0x0
  102407:	6a 14                	push   0x14
  102409:	e9 ec fe ff ff       	jmp    1022fa <isr_common_stub>

0010240e <isr21>:
  10240e:	6a 15                	push   0x15
  102410:	e9 e5 fe ff ff       	jmp    1022fa <isr_common_stub>

00102415 <isr22>:
  102415:	6a 00                	push   0x0
  102417:	6a 16                	push   0x16
  102419:	e9 dc fe ff ff       	jmp    1022fa <isr_common_stub>

0010241e <isr23>:
  10241e:	6a 00                	push   0x0
  102420:	6a 17                	push   0x17
  102422:	e9 d3 fe ff ff       	jmp    1022fa <isr_common_stub>

00102427 <isr24>:
  102427:	6a 00                	push   0x0
  102429:	6a 18                	push   0x18
  10242b:	e9 ca fe ff ff       	jmp    1022fa <isr_common_stub>

00102430 <isr25>:
  102430:	6a 00                	push   0x0
  102432:	6a 19                	push   0x19
  102434:	e9 c1 fe ff ff       	jmp    1022fa <isr_common_stub>

00102439 <isr26>:
  102439:	6a 00                	push   0x0
  10243b:	6a 1a                	push   0x1a
  10243d:	e9 b8 fe ff ff       	jmp    1022fa <isr_common_stub>

00102442 <isr27>:
  102442:	6a 00                	push   0x0
  102444:	6a 1b                	push   0x1b
  102446:	e9 af fe ff ff       	jmp    1022fa <isr_common_stub>

0010244b <isr28>:
  10244b:	6a 00                	push   0x0
  10244d:	6a 1c                	push   0x1c
  10244f:	e9 a6 fe ff ff       	jmp    1022fa <isr_common_stub>

00102454 <isr29>:
  102454:	6a 00                	push   0x0
  102456:	6a 1d                	push   0x1d
  102458:	e9 9d fe ff ff       	jmp    1022fa <isr_common_stub>

0010245d <isr30>:
  10245d:	6a 00                	push   0x0
  10245f:	6a 1e                	push   0x1e
  102461:	e9 94 fe ff ff       	jmp    1022fa <isr_common_stub>

00102466 <isr31>:
  102466:	6a 00                	push   0x0
  102468:	6a 1f                	push   0x1f
  10246a:	e9 8b fe ff ff       	jmp    1022fa <isr_common_stub>

0010246f <irq0>:
  10246f:	6a 00                	push   0x0
  102471:	6a 00                	push   0x0
  102473:	e9 da fe ff ff       	jmp    102352 <irq_common_stub.end>

00102478 <irq1>:
  102478:	6a 01                	push   0x1
  10247a:	6a 21                	push   0x21
  10247c:	e9 a5 fe ff ff       	jmp    102326 <irq_common_stub>

00102481 <irq2>:
  102481:	6a 02                	push   0x2
  102483:	6a 22                	push   0x22
  102485:	e9 9c fe ff ff       	jmp    102326 <irq_common_stub>

0010248a <irq3>:
  10248a:	6a 03                	push   0x3
  10248c:	6a 23                	push   0x23
  10248e:	e9 93 fe ff ff       	jmp    102326 <irq_common_stub>

00102493 <irq4>:
  102493:	6a 04                	push   0x4
  102495:	6a 24                	push   0x24
  102497:	e9 8a fe ff ff       	jmp    102326 <irq_common_stub>

0010249c <irq5>:
  10249c:	6a 05                	push   0x5
  10249e:	6a 25                	push   0x25
  1024a0:	e9 81 fe ff ff       	jmp    102326 <irq_common_stub>

001024a5 <irq6>:
  1024a5:	6a 06                	push   0x6
  1024a7:	6a 26                	push   0x26
  1024a9:	e9 78 fe ff ff       	jmp    102326 <irq_common_stub>

001024ae <irq7>:
  1024ae:	6a 07                	push   0x7
  1024b0:	6a 27                	push   0x27
  1024b2:	e9 6f fe ff ff       	jmp    102326 <irq_common_stub>

001024b7 <irq8>:
  1024b7:	6a 08                	push   0x8
  1024b9:	6a 28                	push   0x28
  1024bb:	e9 66 fe ff ff       	jmp    102326 <irq_common_stub>

001024c0 <irq9>:
  1024c0:	6a 09                	push   0x9
  1024c2:	6a 29                	push   0x29
  1024c4:	e9 5d fe ff ff       	jmp    102326 <irq_common_stub>

001024c9 <irq10>:
  1024c9:	6a 0a                	push   0xa
  1024cb:	6a 2a                	push   0x2a
  1024cd:	e9 54 fe ff ff       	jmp    102326 <irq_common_stub>

001024d2 <irq11>:
  1024d2:	6a 0b                	push   0xb
  1024d4:	6a 2b                	push   0x2b
  1024d6:	e9 4b fe ff ff       	jmp    102326 <irq_common_stub>

001024db <irq12>:
  1024db:	6a 0c                	push   0xc
  1024dd:	6a 2c                	push   0x2c
  1024df:	e9 42 fe ff ff       	jmp    102326 <irq_common_stub>

001024e4 <irq13>:
  1024e4:	6a 0d                	push   0xd
  1024e6:	6a 2d                	push   0x2d
  1024e8:	e9 39 fe ff ff       	jmp    102326 <irq_common_stub>

001024ed <irq14>:
  1024ed:	6a 0e                	push   0xe
  1024ef:	6a 2e                	push   0x2e
  1024f1:	e9 30 fe ff ff       	jmp    102326 <irq_common_stub>

001024f6 <irq15>:
  1024f6:	6a 0f                	push   0xf
  1024f8:	6a 2f                	push   0x2f
  1024fa:	e9 27 fe ff ff       	jmp    102326 <irq_common_stub>

001024ff <kernel_entry>:
  1024ff:	55                   	push   ebp
  102500:	89 e5                	mov    ebp,esp
  102502:	83 ec 08             	sub    esp,0x8
  102505:	8b 45 08             	mov    eax,DWORD PTR [ebp+0x8]
  102508:	a3 a0 2c 51 00       	mov    ds:0x512ca0,eax
  10250d:	e8 11 00 00 00       	call   102523 <kernel_boot>
  102512:	e8 7a 00 00 00       	call   102591 <kernel_before_run>
  102517:	e8 77 44 00 00       	call   106993 <sysinfo_print_info>
  10251c:	e8 ff 00 00 00       	call   102620 <kernel_run>
  102521:	eb f9                	jmp    10251c <kernel_entry+0x1d>

00102523 <kernel_boot>:
  102523:	55                   	push   ebp
  102524:	89 e5                	mov    ebp,esp
  102526:	83 ec 08             	sub    esp,0x8
  102529:	83 ec 0c             	sub    esp,0xc
  10252c:	68 f8 03 00 00       	push   0x3f8
  102531:	e8 28 25 00 00       	call   104a5e <serial_setport>
  102536:	83 c4 10             	add    esp,0x10
  102539:	83 ec 0c             	sub    esp,0xc
  10253c:	6a 01                	push   0x1
  10253e:	e8 08 e2 ff ff       	call   10074b <debug_setmode>
  102543:	83 c4 10             	add    esp,0x10
  102546:	83 ec 0c             	sub    esp,0xc
  102549:	68 d0 d5 10 00       	push   0x10d5d0
  10254e:	e8 94 e8 ff ff       	call   100de7 <debug_ok>
  102553:	83 c4 10             	add    esp,0x10
  102556:	e8 8a f5 ff ff       	call   101ae5 <gdt_init>
  10255b:	e8 cc f5 ff ff       	call   101b2c <idt_init>
  102560:	e8 4a fc ff ff       	call   1021af <isr_init>
  102565:	e8 1b 1d 00 00       	call   104285 <mboot_read>
  10256a:	e8 54 07 00 00       	call   102cc3 <mm_init>
  10256f:	e8 cf 2d 00 00       	call   105343 <service_initmgr>
  102574:	e8 24 54 00 00       	call   10799d <vga_init>
  102579:	e8 4c 21 00 00       	call   1046ca <rtc_init>
  10257e:	83 ec 0c             	sub    esp,0xc
  102581:	68 88 13 00 00       	push   0x1388
  102586:	e8 80 1e 00 00       	call   10440b <pit_init>
  10258b:	83 c4 10             	add    esp,0x10
  10258e:	90                   	nop
  10258f:	c9                   	leave  
  102590:	c3                   	ret    

00102591 <kernel_before_run>:
  102591:	55                   	push   ebp
  102592:	89 e5                	mov    ebp,esp
  102594:	83 ec 18             	sub    esp,0x18
  102597:	e8 c9 4a 00 00       	call   107065 <thread_initial>
  10259c:	a3 b4 2c 51 00       	mov    ds:0x512cb4,eax
  1025a1:	c7 05 a8 2c 51 00 ff ff ff ff 	mov    DWORD PTR ds:0x512ca8,0xffffffff
  1025ab:	c7 05 b0 2c 51 00 00 00 00 00 	mov    DWORD PTR ds:0x512cb0,0x0
  1025b5:	a1 b4 2c 51 00       	mov    eax,ds:0x512cb4
  1025ba:	83 ec 0c             	sub    esp,0xc
  1025bd:	50                   	push   eax
  1025be:	e8 b6 46 00 00       	call   106c79 <taskmgr_init>
  1025c3:	83 c4 10             	add    esp,0x10
  1025c6:	83 ec 08             	sub    esp,0x8
  1025c9:	68 00 20 00 00       	push   0x2000
  1025ce:	68 82 27 10 00       	push   0x102782
  1025d3:	e8 e7 4a 00 00       	call   1070bf <thread_create>
  1025d8:	83 c4 10             	add    esp,0x10
  1025db:	a3 a4 2c 51 00       	mov    ds:0x512ca4,eax
  1025e0:	e8 46 02 00 00       	call   10282b <kbps2_init>
  1025e5:	8d 45 ec             	lea    eax,[ebp-0x14]
  1025e8:	83 ec 04             	sub    esp,0x4
  1025eb:	6a 00                	push   0x0
  1025ed:	68 00 04 00 00       	push   0x400
  1025f2:	50                   	push   eax
  1025f3:	e8 66 36 00 00       	call   105c5e <bytestream_create>
  1025f8:	83 c4 0c             	add    esp,0xc
  1025fb:	83 ec 0c             	sub    esp,0xc
  1025fe:	8d 45 ec             	lea    eax,[ebp-0x14]
  102601:	50                   	push   eax
  102602:	e8 a4 06 00 00       	call   102cab <kbps2_set_stream>
  102607:	83 c4 10             	add    esp,0x10
  10260a:	83 ec 0c             	sub    esp,0xc
  10260d:	6a 01                	push   0x1
  10260f:	e8 7f 06 00 00       	call   102c93 <kbps2_toggle_vga_output>
  102614:	83 c4 10             	add    esp,0x10
  102617:	e8 b3 46 00 00       	call   106ccf <taskmgr_start>
  10261c:	fb                   	sti    
  10261d:	90                   	nop
  10261e:	c9                   	leave  
  10261f:	c3                   	ret    

00102620 <kernel_run>:
  102620:	55                   	push   ebp
  102621:	89 e5                	mov    ebp,esp
  102623:	81 ec c8 00 00 00    	sub    esp,0xc8
  102629:	a1 b4 2c 51 00       	mov    eax,ds:0x512cb4
  10262e:	83 ec 0c             	sub    esp,0xc
  102631:	50                   	push   eax
  102632:	e8 81 4b 00 00       	call   1071b8 <thread_monitor>
  102637:	83 c4 10             	add    esp,0x10
  10263a:	e8 0d 1f 00 00       	call   10454c <pit_get_seconds_total>
  10263f:	a3 a8 2c 51 00       	mov    ds:0x512ca8,eax
  102644:	8b 15 a8 2c 51 00    	mov    edx,DWORD PTR ds:0x512ca8
  10264a:	a1 b0 2c 51 00       	mov    eax,ds:0x512cb0
  10264f:	39 c2                	cmp    edx,eax
  102651:	0f 84 28 01 00 00    	je     10277f <kernel_run+0x15f>
  102657:	e8 83 47 00 00       	call   106ddf <tlock>
  10265c:	a1 a8 2c 51 00       	mov    eax,ds:0x512ca8
  102661:	a3 b0 2c 51 00       	mov    ds:0x512cb0,eax
  102666:	e8 96 47 00 00       	call   106e01 <taskmgr_calculate_cpu_usage>
  10266b:	83 ec 04             	sub    esp,0x4
  10266e:	6a 40                	push   0x40
  102670:	6a 00                	push   0x0
  102672:	8d 85 38 ff ff ff    	lea    eax,[ebp-0xc8]
  102678:	50                   	push   eax
  102679:	e8 3c 1a 00 00       	call   1040ba <memset>
  10267e:	83 c4 10             	add    esp,0x10
  102681:	83 ec 04             	sub    esp,0x4
  102684:	6a 40                	push   0x40
  102686:	6a 00                	push   0x0
  102688:	8d 85 78 ff ff ff    	lea    eax,[ebp-0x88]
  10268e:	50                   	push   eax
  10268f:	e8 26 1a 00 00       	call   1040ba <memset>
  102694:	83 c4 10             	add    esp,0x10
  102697:	83 ec 04             	sub    esp,0x4
  10269a:	6a 40                	push   0x40
  10269c:	6a 00                	push   0x0
  10269e:	8d 45 b8             	lea    eax,[ebp-0x48]
  1026a1:	50                   	push   eax
  1026a2:	e8 13 1a 00 00       	call   1040ba <memset>
  1026a7:	83 c4 10             	add    esp,0x10
  1026aa:	83 ec 08             	sub    esp,0x8
  1026ad:	68 f0 d5 10 00       	push   0x10d5f0
  1026b2:	8d 85 38 ff ff ff    	lea    eax,[ebp-0xc8]
  1026b8:	50                   	push   eax
  1026b9:	e8 1c 39 00 00       	call   105fda <strcat>
  1026be:	83 c4 10             	add    esp,0x10
  1026c1:	a1 b4 2c 51 00       	mov    eax,ds:0x512cb4
  1026c6:	8b 40 35             	mov    eax,DWORD PTR [eax+0x35]
  1026c9:	83 ec 04             	sub    esp,0x4
  1026cc:	6a 0a                	push   0xa
  1026ce:	8d 55 b8             	lea    edx,[ebp-0x48]
  1026d1:	52                   	push   edx
  1026d2:	50                   	push   eax
  1026d3:	e8 52 df ff ff       	call   10062a <ltoa>
  1026d8:	83 c4 10             	add    esp,0x10
  1026db:	83 ec 08             	sub    esp,0x8
  1026de:	50                   	push   eax
  1026df:	8d 85 38 ff ff ff    	lea    eax,[ebp-0xc8]
  1026e5:	50                   	push   eax
  1026e6:	e8 ef 38 00 00       	call   105fda <strcat>
  1026eb:	83 c4 10             	add    esp,0x10
  1026ee:	83 ec 08             	sub    esp,0x8
  1026f1:	68 fd d5 10 00       	push   0x10d5fd
  1026f6:	8d 85 78 ff ff ff    	lea    eax,[ebp-0x88]
  1026fc:	50                   	push   eax
  1026fd:	e8 d8 38 00 00       	call   105fda <strcat>
  102702:	83 c4 10             	add    esp,0x10
  102705:	a1 a4 2c 51 00       	mov    eax,ds:0x512ca4
  10270a:	8b 40 35             	mov    eax,DWORD PTR [eax+0x35]
  10270d:	83 ec 04             	sub    esp,0x4
  102710:	6a 0a                	push   0xa
  102712:	8d 55 b8             	lea    edx,[ebp-0x48]
  102715:	52                   	push   edx
  102716:	50                   	push   eax
  102717:	e8 0e df ff ff       	call   10062a <ltoa>
  10271c:	83 c4 10             	add    esp,0x10
  10271f:	83 ec 08             	sub    esp,0x8
  102722:	50                   	push   eax
  102723:	8d 85 78 ff ff ff    	lea    eax,[ebp-0x88]
  102729:	50                   	push   eax
  10272a:	e8 ab 38 00 00       	call   105fda <strcat>
  10272f:	83 c4 10             	add    esp,0x10
  102732:	e8 43 5f 00 00       	call   10867a <vga_get_height>
  102737:	83 e8 01             	sub    eax,0x1
  10273a:	0f b7 c0             	movzx  eax,ax
  10273d:	83 ec 0c             	sub    esp,0xc
  102740:	6a 01                	push   0x1
  102742:	6a 0f                	push   0xf
  102744:	8d 95 38 ff ff ff    	lea    edx,[ebp-0xc8]
  10274a:	52                   	push   edx
  10274b:	50                   	push   eax
  10274c:	6a 00                	push   0x0
  10274e:	e8 7c 55 00 00       	call   107ccf <vga_putstr>
  102753:	83 c4 20             	add    esp,0x20
  102756:	e8 1f 5f 00 00       	call   10867a <vga_get_height>
  10275b:	83 e8 02             	sub    eax,0x2
  10275e:	0f b7 c0             	movzx  eax,ax
  102761:	83 ec 0c             	sub    esp,0xc
  102764:	6a 01                	push   0x1
  102766:	6a 0f                	push   0xf
  102768:	8d 95 78 ff ff ff    	lea    edx,[ebp-0x88]
  10276e:	52                   	push   edx
  10276f:	50                   	push   eax
  102770:	6a 00                	push   0x0
  102772:	e8 58 55 00 00       	call   107ccf <vga_putstr>
  102777:	83 c4 20             	add    esp,0x20
  10277a:	e8 71 46 00 00       	call   106df0 <tunlock>
  10277f:	90                   	nop
  102780:	c9                   	leave  
  102781:	c3                   	ret    

00102782 <idle_main>:
  102782:	55                   	push   ebp
  102783:	89 e5                	mov    ebp,esp
  102785:	83 ec 08             	sub    esp,0x8
  102788:	83 ec 0c             	sub    esp,0xc
  10278b:	ff 75 08             	push   DWORD PTR [ebp+0x8]
  10278e:	e8 25 4a 00 00       	call   1071b8 <thread_monitor>
  102793:	83 c4 10             	add    esp,0x10
  102796:	eb f0                	jmp    102788 <idle_main+0x6>

00102798 <kernel_get_thread>:
  102798:	55                   	push   ebp
  102799:	89 e5                	mov    ebp,esp
  10279b:	a1 b4 2c 51 00       	mov    eax,ds:0x512cb4
  1027a0:	5d                   	pop    ebp
  1027a1:	c3                   	ret    

001027a2 <idle_get_thread>:
  1027a2:	55                   	push   ebp
  1027a3:	89 e5                	mov    ebp,esp
  1027a5:	a1 a4 2c 51 00       	mov    eax,ds:0x512ca4
  1027aa:	5d                   	pop    ebp
  1027ab:	c3                   	ret    

001027ac <kernel_address_start>:
  1027ac:	55                   	push   ebp
  1027ad:	89 e5                	mov    ebp,esp
  1027af:	b8 00 00 00 00       	mov    eax,0x0
  1027b4:	5d                   	pop    ebp
  1027b5:	c3                   	ret    

001027b6 <kernel_address_end>:
  1027b6:	55                   	push   ebp
  1027b7:	89 e5                	mov    ebp,esp
  1027b9:	b8 f8 2d 51 00       	mov    eax,0x512df8
  1027be:	5d                   	pop    ebp
  1027bf:	c3                   	ret    

001027c0 <kernel_mboot_address_start>:
  1027c0:	55                   	push   ebp
  1027c1:	89 e5                	mov    ebp,esp
  1027c3:	a1 a0 2c 51 00       	mov    eax,ds:0x512ca0
  1027c8:	5d                   	pop    ebp
  1027c9:	c3                   	ret    

001027ca <kbps2_start>:
  1027ca:	55                   	push   ebp
  1027cb:	89 e5                	mov    ebp,esp
  1027cd:	83 ec 08             	sub    esp,0x8
  1027d0:	c6 05 c2 2c 51 00 00 	mov    BYTE PTR ds:0x512cc2,0x0
  1027d7:	83 ec 08             	sub    esp,0x8
  1027da:	6a 05                	push   0x5
  1027dc:	68 00 01 00 00       	push   0x100
  1027e1:	e8 fd 19 00 00       	call   1041e3 <tcalloc>
  1027e6:	83 c4 10             	add    esp,0x10
  1027e9:	a3 c8 2c 51 00       	mov    ds:0x512cc8,eax
  1027ee:	e8 1c 04 00 00       	call   102c0f <kbps2_keymap_clear>
  1027f3:	83 ec 08             	sub    esp,0x8
  1027f6:	68 85 28 10 00       	push   0x102885
  1027fb:	6a 21                	push   0x21
  1027fd:	e8 cb f9 ff ff       	call   1021cd <irq_register>
  102802:	83 c4 10             	add    esp,0x10
  102805:	90                   	nop
  102806:	c9                   	leave  
  102807:	c3                   	ret    

00102808 <kbps2_stop>:
  102808:	55                   	push   ebp
  102809:	89 e5                	mov    ebp,esp
  10280b:	83 ec 08             	sub    esp,0x8
  10280e:	a1 c8 2c 51 00       	mov    eax,ds:0x512cc8
  102813:	85 c0                	test   eax,eax
  102815:	74 11                	je     102828 <kbps2_stop+0x20>
  102817:	a1 c8 2c 51 00       	mov    eax,ds:0x512cc8
  10281c:	83 ec 0c             	sub    esp,0xc
  10281f:	50                   	push   eax
  102820:	e8 eb 19 00 00       	call   104210 <free>
  102825:	83 c4 10             	add    esp,0x10
  102828:	90                   	nop
  102829:	c9                   	leave  
  10282a:	c3                   	ret    

0010282b <kbps2_init>:
  10282b:	55                   	push   ebp
  10282c:	89 e5                	mov    ebp,esp
  10282e:	83 ec 08             	sub    esp,0x8
  102831:	68 08 28 10 00       	push   0x102808
  102836:	68 ca 27 10 00       	push   0x1027ca
  10283b:	6a 01                	push   0x1
  10283d:	68 ee d8 10 00       	push   0x10d8ee
  102842:	e8 4b 2c 00 00       	call   105492 <service_create>
  102847:	83 c4 10             	add    esp,0x10
  10284a:	a3 d0 2c 51 00       	mov    ds:0x512cd0,eax
  10284f:	a1 d0 2c 51 00       	mov    eax,ds:0x512cd0
  102854:	83 ec 0c             	sub    esp,0xc
  102857:	50                   	push   eax
  102858:	e8 e2 2c 00 00       	call   10553f <service_register>
  10285d:	83 c4 10             	add    esp,0x10
  102860:	84 c0                	test   al,al
  102862:	74 1e                	je     102882 <kbps2_init+0x57>
  102864:	a1 d0 2c 51 00       	mov    eax,ds:0x512cd0
  102869:	c6 40 08 01          	mov    BYTE PTR [eax+0x8],0x1
  10286d:	a1 d0 2c 51 00       	mov    eax,ds:0x512cd0
  102872:	83 ec 0c             	sub    esp,0xc
  102875:	50                   	push   eax
  102876:	e8 42 2d 00 00       	call   1055bd <service_start>
  10287b:	83 c4 10             	add    esp,0x10
  10287e:	84 c0                	test   al,al
  102880:	eb 01                	jmp    102883 <kbps2_init+0x58>
  102882:	90                   	nop
  102883:	c9                   	leave  
  102884:	c3                   	ret    

00102885 <kbps2_callback>:
  102885:	55                   	push   ebp
  102886:	89 e5                	mov    ebp,esp
  102888:	83 ec 18             	sub    esp,0x18
  10288b:	83 ec 0c             	sub    esp,0xc
  10288e:	6a 64                	push   0x64
  102890:	e8 e5 1c 00 00       	call   10457a <port_inb>
  102895:	83 c4 10             	add    esp,0x10
  102898:	88 45 f7             	mov    BYTE PTR [ebp-0x9],al
  10289b:	83 ec 0c             	sub    esp,0xc
  10289e:	6a 60                	push   0x60
  1028a0:	e8 d5 1c 00 00       	call   10457a <port_inb>
  1028a5:	83 c4 10             	add    esp,0x10
  1028a8:	a2 c2 2c 51 00       	mov    ds:0x512cc2,al
  1028ad:	0f b6 05 c2 2c 51 00 	movzx  eax,BYTE PTR ds:0x512cc2
  1028b4:	0f b6 c0             	movzx  eax,al
  1028b7:	83 ec 0c             	sub    esp,0xc
  1028ba:	50                   	push   eax
  1028bb:	e8 05 00 00 00       	call   1028c5 <kbps2_handle_scancode>
  1028c0:	83 c4 10             	add    esp,0x10
  1028c3:	c9                   	leave  
  1028c4:	c3                   	ret    

001028c5 <kbps2_handle_scancode>:
  1028c5:	55                   	push   ebp
  1028c6:	89 e5                	mov    ebp,esp
  1028c8:	83 ec 28             	sub    esp,0x28
  1028cb:	8b 45 08             	mov    eax,DWORD PTR [ebp+0x8]
  1028ce:	88 45 e4             	mov    BYTE PTR [ebp-0x1c],al
  1028d1:	c6 45 f7 00          	mov    BYTE PTR [ebp-0x9],0x0
  1028d5:	e8 56 03 00 00       	call   102c30 <kbps2_keymap_update>
  1028da:	0f b6 45 e4          	movzx  eax,BYTE PTR [ebp-0x1c]
  1028de:	83 f8 3a             	cmp    eax,0x3a
  1028e1:	0f 84 b8 00 00 00    	je     10299f <kbps2_handle_scancode+0xda>
  1028e7:	83 f8 3a             	cmp    eax,0x3a
  1028ea:	7f 45                	jg     102931 <kbps2_handle_scancode+0x6c>
  1028ec:	83 f8 1d             	cmp    eax,0x1d
  1028ef:	0f 84 27 01 00 00    	je     102a1c <kbps2_handle_scancode+0x157>
  1028f5:	83 f8 1d             	cmp    eax,0x1d
  1028f8:	7f 17                	jg     102911 <kbps2_handle_scancode+0x4c>
  1028fa:	83 f8 0e             	cmp    eax,0xe
  1028fd:	0f 84 84 00 00 00    	je     102987 <kbps2_handle_scancode+0xc2>
  102903:	83 f8 1c             	cmp    eax,0x1c
  102906:	0f 84 ab 00 00 00    	je     1029b7 <kbps2_handle_scancode+0xf2>
  10290c:	e9 3b 01 00 00       	jmp    102a4c <kbps2_handle_scancode+0x187>
  102911:	83 f8 36             	cmp    eax,0x36
  102914:	0f 84 ea 00 00 00    	je     102a04 <kbps2_handle_scancode+0x13f>
  10291a:	83 f8 38             	cmp    eax,0x38
  10291d:	0f 84 11 01 00 00    	je     102a34 <kbps2_handle_scancode+0x16f>
  102923:	83 f8 2a             	cmp    eax,0x2a
  102926:	0f 84 c0 00 00 00    	je     1029ec <kbps2_handle_scancode+0x127>
  10292c:	e9 1b 01 00 00       	jmp    102a4c <kbps2_handle_scancode+0x187>
  102931:	3d aa 00 00 00       	cmp    eax,0xaa
  102936:	0f 84 bc 00 00 00    	je     1029f8 <kbps2_handle_scancode+0x133>
  10293c:	3d aa 00 00 00       	cmp    eax,0xaa
  102941:	7f 22                	jg     102965 <kbps2_handle_scancode+0xa0>
  102943:	3d 9c 00 00 00       	cmp    eax,0x9c
  102948:	0f 84 92 00 00 00    	je     1029e0 <kbps2_handle_scancode+0x11b>
  10294e:	3d 9d 00 00 00       	cmp    eax,0x9d
  102953:	0f 84 cf 00 00 00    	je     102a28 <kbps2_handle_scancode+0x163>
  102959:	3d 8e 00 00 00       	cmp    eax,0x8e
  10295e:	74 33                	je     102993 <kbps2_handle_scancode+0xce>
  102960:	e9 e7 00 00 00       	jmp    102a4c <kbps2_handle_scancode+0x187>
  102965:	3d b8 00 00 00       	cmp    eax,0xb8
  10296a:	0f 84 d0 00 00 00    	je     102a40 <kbps2_handle_scancode+0x17b>
  102970:	3d ba 00 00 00       	cmp    eax,0xba
  102975:	74 34                	je     1029ab <kbps2_handle_scancode+0xe6>
  102977:	3d b6 00 00 00       	cmp    eax,0xb6
  10297c:	0f 84 8e 00 00 00    	je     102a10 <kbps2_handle_scancode+0x14b>
  102982:	e9 c5 00 00 00       	jmp    102a4c <kbps2_handle_scancode+0x187>
  102987:	c6 05 c0 2c 51 00 01 	mov    BYTE PTR ds:0x512cc0,0x1
  10298e:	e9 45 01 00 00       	jmp    102ad8 <kbps2_handle_scancode+0x213>
  102993:	c6 05 c0 2c 51 00 00 	mov    BYTE PTR ds:0x512cc0,0x0
  10299a:	e9 39 01 00 00       	jmp    102ad8 <kbps2_handle_scancode+0x213>
  10299f:	c6 05 b8 2c 51 00 01 	mov    BYTE PTR ds:0x512cb8,0x1
  1029a6:	e9 2d 01 00 00       	jmp    102ad8 <kbps2_handle_scancode+0x213>
  1029ab:	c6 05 b8 2c 51 00 00 	mov    BYTE PTR ds:0x512cb8,0x0
  1029b2:	e9 21 01 00 00       	jmp    102ad8 <kbps2_handle_scancode+0x213>
  1029b7:	a1 d8 2c 51 00       	mov    eax,ds:0x512cd8
  1029bc:	85 c0                	test   eax,eax
  1029be:	74 14                	je     1029d4 <kbps2_handle_scancode+0x10f>
  1029c0:	a1 d8 2c 51 00       	mov    eax,ds:0x512cd8
  1029c5:	8b 15 bc 2c 51 00    	mov    edx,DWORD PTR ds:0x512cbc
  1029cb:	83 ec 0c             	sub    esp,0xc
  1029ce:	52                   	push   edx
  1029cf:	ff d0                	call   eax
  1029d1:	83 c4 10             	add    esp,0x10
  1029d4:	c6 05 c4 2c 51 00 01 	mov    BYTE PTR ds:0x512cc4,0x1
  1029db:	e9 f8 00 00 00       	jmp    102ad8 <kbps2_handle_scancode+0x213>
  1029e0:	c6 05 c4 2c 51 00 00 	mov    BYTE PTR ds:0x512cc4,0x0
  1029e7:	e9 ec 00 00 00       	jmp    102ad8 <kbps2_handle_scancode+0x213>
  1029ec:	c6 05 cc 2c 51 00 01 	mov    BYTE PTR ds:0x512ccc,0x1
  1029f3:	e9 e0 00 00 00       	jmp    102ad8 <kbps2_handle_scancode+0x213>
  1029f8:	c6 05 cc 2c 51 00 00 	mov    BYTE PTR ds:0x512ccc,0x0
  1029ff:	e9 d4 00 00 00       	jmp    102ad8 <kbps2_handle_scancode+0x213>
  102a04:	c6 05 d4 2c 51 00 01 	mov    BYTE PTR ds:0x512cd4,0x1
  102a0b:	e9 c8 00 00 00       	jmp    102ad8 <kbps2_handle_scancode+0x213>
  102a10:	c6 05 d4 2c 51 00 00 	mov    BYTE PTR ds:0x512cd4,0x0
  102a17:	e9 bc 00 00 00       	jmp    102ad8 <kbps2_handle_scancode+0x213>
  102a1c:	c6 05 b9 2c 51 00 01 	mov    BYTE PTR ds:0x512cb9,0x1
  102a23:	e9 b0 00 00 00       	jmp    102ad8 <kbps2_handle_scancode+0x213>
  102a28:	c6 05 b9 2c 51 00 00 	mov    BYTE PTR ds:0x512cb9,0x0
  102a2f:	e9 a4 00 00 00       	jmp    102ad8 <kbps2_handle_scancode+0x213>
  102a34:	c6 05 c1 2c 51 00 01 	mov    BYTE PTR ds:0x512cc1,0x1
  102a3b:	e9 98 00 00 00       	jmp    102ad8 <kbps2_handle_scancode+0x213>
  102a40:	c6 05 c1 2c 51 00 00 	mov    BYTE PTR ds:0x512cc1,0x0
  102a47:	e9 8c 00 00 00       	jmp    102ad8 <kbps2_handle_scancode+0x213>
  102a4c:	0f b6 05 cc 2c 51 00 	movzx  eax,BYTE PTR ds:0x512ccc
  102a53:	84 c0                	test   al,al
  102a55:	75 0b                	jne    102a62 <kbps2_handle_scancode+0x19d>
  102a57:	0f b6 05 d4 2c 51 00 	movzx  eax,BYTE PTR ds:0x512cd4
  102a5e:	84 c0                	test   al,al
  102a60:	74 0b                	je     102a6d <kbps2_handle_scancode+0x1a8>
  102a62:	0f b6 05 b8 2c 51 00 	movzx  eax,BYTE PTR ds:0x512cb8
  102a69:	84 c0                	test   al,al
  102a6b:	74 21                	je     102a8e <kbps2_handle_scancode+0x1c9>
  102a6d:	0f b6 05 cc 2c 51 00 	movzx  eax,BYTE PTR ds:0x512ccc
  102a74:	84 c0                	test   al,al
  102a76:	75 1d                	jne    102a95 <kbps2_handle_scancode+0x1d0>
  102a78:	0f b6 05 d4 2c 51 00 	movzx  eax,BYTE PTR ds:0x512cd4
  102a7f:	84 c0                	test   al,al
  102a81:	75 12                	jne    102a95 <kbps2_handle_scancode+0x1d0>
  102a83:	0f b6 05 b8 2c 51 00 	movzx  eax,BYTE PTR ds:0x512cb8
  102a8a:	84 c0                	test   al,al
  102a8c:	74 07                	je     102a95 <kbps2_handle_scancode+0x1d0>
  102a8e:	b8 01 00 00 00       	mov    eax,0x1
  102a93:	eb 05                	jmp    102a9a <kbps2_handle_scancode+0x1d5>
  102a95:	b8 00 00 00 00       	mov    eax,0x0
  102a9a:	88 45 f6             	mov    BYTE PTR [ebp-0xa],al
  102a9d:	80 7d f6 00          	cmp    BYTE PTR [ebp-0xa],0x0
  102aa1:	74 10                	je     102ab3 <kbps2_handle_scancode+0x1ee>
  102aa3:	0f b6 45 e4          	movzx  eax,BYTE PTR [ebp-0x1c]
  102aa7:	0f b6 80 44 d6 10 00 	movzx  eax,BYTE PTR [eax+0x10d644]
  102aae:	88 45 f7             	mov    BYTE PTR [ebp-0x9],al
  102ab1:	eb 0e                	jmp    102ac1 <kbps2_handle_scancode+0x1fc>
  102ab3:	0f b6 45 e4          	movzx  eax,BYTE PTR [ebp-0x1c]
  102ab7:	0f b6 80 80 d6 10 00 	movzx  eax,BYTE PTR [eax+0x10d680]
  102abe:	88 45 f7             	mov    BYTE PTR [ebp-0x9],al
  102ac1:	80 7d e4 35          	cmp    BYTE PTR [ebp-0x1c],0x35
  102ac5:	74 06                	je     102acd <kbps2_handle_scancode+0x208>
  102ac7:	80 7d f7 3f          	cmp    BYTE PTR [ebp-0x9],0x3f
  102acb:	74 06                	je     102ad3 <kbps2_handle_scancode+0x20e>
  102acd:	80 7d e4 39          	cmp    BYTE PTR [ebp-0x1c],0x39
  102ad1:	76 04                	jbe    102ad7 <kbps2_handle_scancode+0x212>
  102ad3:	c6 45 f7 00          	mov    BYTE PTR [ebp-0x9],0x0
  102ad7:	90                   	nop
  102ad8:	0f be 45 f7          	movsx  eax,BYTE PTR [ebp-0x9]
  102adc:	83 ec 0c             	sub    esp,0xc
  102adf:	50                   	push   eax
  102ae0:	e8 06 00 00 00       	call   102aeb <kbps2_handle_char>
  102ae5:	83 c4 10             	add    esp,0x10
  102ae8:	90                   	nop
  102ae9:	c9                   	leave  
  102aea:	c3                   	ret    

00102aeb <kbps2_handle_char>:
  102aeb:	55                   	push   ebp
  102aec:	89 e5                	mov    ebp,esp
  102aee:	53                   	push   ebx
  102aef:	83 ec 24             	sub    esp,0x24
  102af2:	8b 45 08             	mov    eax,DWORD PTR [ebp+0x8]
  102af5:	88 45 e4             	mov    BYTE PTR [ebp-0x1c],al
  102af8:	a1 bc 2c 51 00       	mov    eax,ds:0x512cbc
  102afd:	85 c0                	test   eax,eax
  102aff:	0f 84 d6 00 00 00    	je     102bdb <kbps2_handle_char+0xf0>
  102b05:	a1 bc 2c 51 00       	mov    eax,ds:0x512cbc
  102b0a:	8b 40 08             	mov    eax,DWORD PTR [eax+0x8]
  102b0d:	85 c0                	test   eax,eax
  102b0f:	0f 84 c9 00 00 00    	je     102bde <kbps2_handle_char+0xf3>
  102b15:	0f b6 05 c0 2c 51 00 	movzx  eax,BYTE PTR ds:0x512cc0
  102b1c:	84 c0                	test   al,al
  102b1e:	74 55                	je     102b75 <kbps2_handle_char+0x8a>
  102b20:	a1 bc 2c 51 00       	mov    eax,ds:0x512cbc
  102b25:	8b 40 08             	mov    eax,DWORD PTR [eax+0x8]
  102b28:	83 ec 0c             	sub    esp,0xc
  102b2b:	50                   	push   eax
  102b2c:	e8 c4 36 00 00       	call   1061f5 <strlen>
  102b31:	83 c4 10             	add    esp,0x10
  102b34:	85 c0                	test   eax,eax
  102b36:	74 34                	je     102b6c <kbps2_handle_char+0x81>
  102b38:	a1 bc 2c 51 00       	mov    eax,ds:0x512cbc
  102b3d:	8b 58 08             	mov    ebx,DWORD PTR [eax+0x8]
  102b40:	a1 bc 2c 51 00       	mov    eax,ds:0x512cbc
  102b45:	8b 40 08             	mov    eax,DWORD PTR [eax+0x8]
  102b48:	83 ec 0c             	sub    esp,0xc
  102b4b:	50                   	push   eax
  102b4c:	e8 a4 36 00 00       	call   1061f5 <strlen>
  102b51:	83 c4 10             	add    esp,0x10
  102b54:	83 e8 01             	sub    eax,0x1
  102b57:	01 d8                	add    eax,ebx
  102b59:	c6 00 00             	mov    BYTE PTR [eax],0x0
  102b5c:	0f b6 05 c3 2c 51 00 	movzx  eax,BYTE PTR ds:0x512cc3
  102b63:	84 c0                	test   al,al
  102b65:	74 05                	je     102b6c <kbps2_handle_char+0x81>
  102b67:	e8 94 4f 00 00       	call   107b00 <vga_delete>
  102b6c:	c6 05 c0 2c 51 00 00 	mov    BYTE PTR ds:0x512cc0,0x0
  102b73:	eb 6a                	jmp    102bdf <kbps2_handle_char+0xf4>
  102b75:	80 7d e4 1f          	cmp    BYTE PTR [ebp-0x1c],0x1f
  102b79:	7e 64                	jle    102bdf <kbps2_handle_char+0xf4>
  102b7b:	80 7d e4 7f          	cmp    BYTE PTR [ebp-0x1c],0x7f
  102b7f:	74 5e                	je     102bdf <kbps2_handle_char+0xf4>
  102b81:	a1 bc 2c 51 00       	mov    eax,ds:0x512cbc
  102b86:	8b 40 08             	mov    eax,DWORD PTR [eax+0x8]
  102b89:	83 ec 0c             	sub    esp,0xc
  102b8c:	50                   	push   eax
  102b8d:	e8 63 36 00 00       	call   1061f5 <strlen>
  102b92:	83 c4 10             	add    esp,0x10
  102b95:	89 45 f4             	mov    DWORD PTR [ebp-0xc],eax
  102b98:	a1 bc 2c 51 00       	mov    eax,ds:0x512cbc
  102b9d:	8b 50 08             	mov    edx,DWORD PTR [eax+0x8]
  102ba0:	8b 45 f4             	mov    eax,DWORD PTR [ebp-0xc]
  102ba3:	01 c2                	add    edx,eax
  102ba5:	0f b6 45 e4          	movzx  eax,BYTE PTR [ebp-0x1c]
  102ba9:	88 02                	mov    BYTE PTR [edx],al
  102bab:	a1 bc 2c 51 00       	mov    eax,ds:0x512cbc
  102bb0:	8b 40 08             	mov    eax,DWORD PTR [eax+0x8]
  102bb3:	8b 55 f4             	mov    edx,DWORD PTR [ebp-0xc]
  102bb6:	83 c2 01             	add    edx,0x1
  102bb9:	01 d0                	add    eax,edx
  102bbb:	c6 00 00             	mov    BYTE PTR [eax],0x0
  102bbe:	0f b6 05 c3 2c 51 00 	movzx  eax,BYTE PTR ds:0x512cc3
  102bc5:	84 c0                	test   al,al
  102bc7:	74 16                	je     102bdf <kbps2_handle_char+0xf4>
  102bc9:	0f be 45 e4          	movsx  eax,BYTE PTR [ebp-0x1c]
  102bcd:	83 ec 0c             	sub    esp,0xc
  102bd0:	50                   	push   eax
  102bd1:	e8 78 51 00 00       	call   107d4e <vga_writechar>
  102bd6:	83 c4 10             	add    esp,0x10
  102bd9:	eb 04                	jmp    102bdf <kbps2_handle_char+0xf4>
  102bdb:	90                   	nop
  102bdc:	eb 01                	jmp    102bdf <kbps2_handle_char+0xf4>
  102bde:	90                   	nop
  102bdf:	8b 5d fc             	mov    ebx,DWORD PTR [ebp-0x4]
  102be2:	c9                   	leave  
  102be3:	c3                   	ret    

00102be4 <kbps2_key_down>:
  102be4:	55                   	push   ebp
  102be5:	89 e5                	mov    ebp,esp
  102be7:	8b 15 c8 2c 51 00    	mov    edx,DWORD PTR ds:0x512cc8
  102bed:	8b 45 08             	mov    eax,DWORD PTR [ebp+0x8]
  102bf0:	01 d0                	add    eax,edx
  102bf2:	0f b6 00             	movzx  eax,BYTE PTR [eax]
  102bf5:	5d                   	pop    ebp
  102bf6:	c3                   	ret    

00102bf7 <kbps2_key_up>:
  102bf7:	55                   	push   ebp
  102bf8:	89 e5                	mov    ebp,esp
  102bfa:	8b 15 c8 2c 51 00    	mov    edx,DWORD PTR ds:0x512cc8
  102c00:	8b 45 08             	mov    eax,DWORD PTR [ebp+0x8]
  102c03:	01 d0                	add    eax,edx
  102c05:	0f b6 00             	movzx  eax,BYTE PTR [eax]
  102c08:	84 c0                	test   al,al
  102c0a:	0f 94 c0             	sete   al
  102c0d:	5d                   	pop    ebp
  102c0e:	c3                   	ret    

00102c0f <kbps2_keymap_clear>:
  102c0f:	55                   	push   ebp
  102c10:	89 e5                	mov    ebp,esp
  102c12:	83 ec 08             	sub    esp,0x8
  102c15:	a1 c8 2c 51 00       	mov    eax,ds:0x512cc8
  102c1a:	83 ec 04             	sub    esp,0x4
  102c1d:	68 00 01 00 00       	push   0x100
  102c22:	6a 00                	push   0x0
  102c24:	50                   	push   eax
  102c25:	e8 90 14 00 00       	call   1040ba <memset>
  102c2a:	83 c4 10             	add    esp,0x10
  102c2d:	90                   	nop
  102c2e:	c9                   	leave  
  102c2f:	c3                   	ret    

00102c30 <kbps2_keymap_update>:
  102c30:	55                   	push   ebp
  102c31:	89 e5                	mov    ebp,esp
  102c33:	0f b6 05 c2 2c 51 00 	movzx  eax,BYTE PTR ds:0x512cc2
  102c3a:	3c 58                	cmp    al,0x58
  102c3c:	77 17                	ja     102c55 <kbps2_keymap_update+0x25>
  102c3e:	8b 15 c8 2c 51 00    	mov    edx,DWORD PTR ds:0x512cc8
  102c44:	0f b6 05 c2 2c 51 00 	movzx  eax,BYTE PTR ds:0x512cc2
  102c4b:	0f b6 c0             	movzx  eax,al
  102c4e:	01 d0                	add    eax,edx
  102c50:	c6 00 01             	mov    BYTE PTR [eax],0x1
  102c53:	eb 2d                	jmp    102c82 <kbps2_keymap_update+0x52>
  102c55:	0f b6 05 c2 2c 51 00 	movzx  eax,BYTE PTR ds:0x512cc2
  102c5c:	3c 80                	cmp    al,0x80
  102c5e:	76 22                	jbe    102c82 <kbps2_keymap_update+0x52>
  102c60:	0f b6 05 c2 2c 51 00 	movzx  eax,BYTE PTR ds:0x512cc2
  102c67:	3c d7                	cmp    al,0xd7
  102c69:	77 17                	ja     102c82 <kbps2_keymap_update+0x52>
  102c6b:	a1 c8 2c 51 00       	mov    eax,ds:0x512cc8
  102c70:	0f b6 15 c2 2c 51 00 	movzx  edx,BYTE PTR ds:0x512cc2
  102c77:	0f b6 d2             	movzx  edx,dl
  102c7a:	83 c2 80             	add    edx,0xffffff80
  102c7d:	01 d0                	add    eax,edx
  102c7f:	c6 00 00             	mov    BYTE PTR [eax],0x0
  102c82:	90                   	nop
  102c83:	5d                   	pop    ebp
  102c84:	c3                   	ret    

00102c85 <kbps2_set_enter_event>:
  102c85:	55                   	push   ebp
  102c86:	89 e5                	mov    ebp,esp
  102c88:	8b 45 08             	mov    eax,DWORD PTR [ebp+0x8]
  102c8b:	a3 d8 2c 51 00       	mov    ds:0x512cd8,eax
  102c90:	90                   	nop
  102c91:	5d                   	pop    ebp
  102c92:	c3                   	ret    

00102c93 <kbps2_toggle_vga_output>:
  102c93:	55                   	push   ebp
  102c94:	89 e5                	mov    ebp,esp
  102c96:	83 ec 04             	sub    esp,0x4
  102c99:	8b 45 08             	mov    eax,DWORD PTR [ebp+0x8]
  102c9c:	88 45 fc             	mov    BYTE PTR [ebp-0x4],al
  102c9f:	0f b6 45 fc          	movzx  eax,BYTE PTR [ebp-0x4]
  102ca3:	a2 c3 2c 51 00       	mov    ds:0x512cc3,al
  102ca8:	90                   	nop
  102ca9:	c9                   	leave  
  102caa:	c3                   	ret    

00102cab <kbps2_set_stream>:
  102cab:	55                   	push   ebp
  102cac:	89 e5                	mov    ebp,esp
  102cae:	8b 45 08             	mov    eax,DWORD PTR [ebp+0x8]
  102cb1:	a3 bc 2c 51 00       	mov    ds:0x512cbc,eax
  102cb6:	90                   	nop
  102cb7:	5d                   	pop    ebp
  102cb8:	c3                   	ret    

00102cb9 <kbps2_get_stream>:
  102cb9:	55                   	push   ebp
  102cba:	89 e5                	mov    ebp,esp
  102cbc:	a1 bc 2c 51 00       	mov    eax,ds:0x512cbc
  102cc1:	5d                   	pop    ebp
  102cc2:	c3                   	ret    

00102cc3 <mm_init>:
  102cc3:	55                   	push   ebp
  102cc4:	89 e5                	mov    ebp,esp
  102cc6:	83 ec 08             	sub    esp,0x8
  102cc9:	c6 05 2c 2d 51 00 01 	mov    BYTE PTR ds:0x512d2c,0x1
  102cd0:	e8 fc 00 00 00       	call   102dd1 <mm_mmap_read>
  102cd5:	a1 28 2d 51 00       	mov    eax,ds:0x512d28
  102cda:	a3 00 2d 51 00       	mov    ds:0x512d00,eax
  102cdf:	c7 05 10 2d 51 00 00 00 01 00 	mov    DWORD PTR ds:0x512d10,0x10000
  102ce9:	c7 05 0c 2d 51 00 00 00 00 00 	mov    DWORD PTR ds:0x512d0c,0x0
  102cf3:	a1 10 2d 51 00       	mov    eax,ds:0x512d10
  102cf8:	6b c0 0e             	imul   eax,eax,0xe
  102cfb:	83 ec 0c             	sub    esp,0xc
  102cfe:	50                   	push   eax
  102cff:	e8 e5 10 00 00       	call   103de9 <mm_align>
  102d04:	83 c4 10             	add    esp,0x10
  102d07:	a3 08 2d 51 00       	mov    ds:0x512d08,eax
  102d0c:	8b 15 00 2d 51 00    	mov    edx,DWORD PTR ds:0x512d00
  102d12:	a1 08 2d 51 00       	mov    eax,ds:0x512d08
  102d17:	01 d0                	add    eax,edx
  102d19:	a3 04 2d 51 00       	mov    ds:0x512d04,eax
  102d1e:	a1 00 2d 51 00       	mov    eax,ds:0x512d00
  102d23:	a3 e0 2c 51 00       	mov    ds:0x512ce0,eax
  102d28:	a1 08 2d 51 00       	mov    eax,ds:0x512d08
  102d2d:	8b 15 00 2d 51 00    	mov    edx,DWORD PTR ds:0x512d00
  102d33:	83 ec 04             	sub    esp,0x4
  102d36:	50                   	push   eax
  102d37:	6a 00                	push   0x0
  102d39:	52                   	push   edx
  102d3a:	e8 7b 13 00 00       	call   1040ba <memset>
  102d3f:	83 c4 10             	add    esp,0x10
  102d42:	8b 15 00 2d 51 00    	mov    edx,DWORD PTR ds:0x512d00
  102d48:	a1 08 2d 51 00       	mov    eax,ds:0x512d08
  102d4d:	01 d0                	add    eax,edx
  102d4f:	05 00 10 00 00       	add    eax,0x1000
  102d54:	a3 14 2d 51 00       	mov    ds:0x512d14,eax
  102d59:	a1 24 2d 51 00       	mov    eax,ds:0x512d24
  102d5e:	a3 18 2d 51 00       	mov    ds:0x512d18,eax
  102d63:	8b 15 18 2d 51 00    	mov    edx,DWORD PTR ds:0x512d18
  102d69:	a1 14 2d 51 00       	mov    eax,ds:0x512d14
  102d6e:	29 c2                	sub    edx,eax
  102d70:	89 d0                	mov    eax,edx
  102d72:	a3 1c 2d 51 00       	mov    ds:0x512d1c,eax
  102d77:	c7 05 20 2d 51 00 00 00 00 00 	mov    DWORD PTR ds:0x512d20,0x0
  102d81:	a1 1c 2d 51 00       	mov    eax,ds:0x512d1c
  102d86:	8b 15 14 2d 51 00    	mov    edx,DWORD PTR ds:0x512d14
  102d8c:	83 ec 04             	sub    esp,0x4
  102d8f:	50                   	push   eax
  102d90:	6a 00                	push   0x0
  102d92:	52                   	push   edx
  102d93:	e8 22 13 00 00       	call   1040ba <memset>
  102d98:	83 c4 10             	add    esp,0x10
  102d9b:	a1 1c 2d 51 00       	mov    eax,ds:0x512d1c
  102da0:	8b 15 14 2d 51 00    	mov    edx,DWORD PTR ds:0x512d14
  102da6:	83 ec 04             	sub    esp,0x4
  102da9:	6a 00                	push   0x0
  102dab:	50                   	push   eax
  102dac:	52                   	push   edx
  102dad:	e8 3d 0b 00 00       	call   1038ef <mm_create_entry>
  102db2:	83 c4 10             	add    esp,0x10
  102db5:	e8 e1 11 00 00       	call   103f9b <mm_amount_free>
  102dba:	c1 e8 14             	shr    eax,0x14
  102dbd:	83 ec 08             	sub    esp,0x8
  102dc0:	50                   	push   eax
  102dc1:	68 bc db 10 00       	push   0x10dbbc
  102dc6:	e8 1c e0 ff ff       	call   100de7 <debug_ok>
  102dcb:	83 c4 10             	add    esp,0x10
  102dce:	90                   	nop
  102dcf:	c9                   	leave  
  102dd0:	c3                   	ret    

00102dd1 <mm_mmap_read>:
  102dd1:	55                   	push   ebp
  102dd2:	89 e5                	mov    ebp,esp
  102dd4:	81 ec d8 00 00 00    	sub    esp,0xd8
  102dda:	c7 45 f4 00 00 00 00 	mov    DWORD PTR [ebp-0xc],0x0
  102de1:	eb 72                	jmp    102e55 <mm_mmap_read+0x84>
  102de3:	8d 85 30 ff ff ff    	lea    eax,[ebp-0xd0]
  102de9:	83 ec 0c             	sub    esp,0xc
  102dec:	50                   	push   eax
  102ded:	e8 d7 14 00 00       	call   1042c9 <mboot_get>
  102df2:	83 c4 0c             	add    esp,0xc
  102df5:	8b 95 60 ff ff ff    	mov    edx,DWORD PTR [ebp-0xa0]
  102dfb:	8b 45 f4             	mov    eax,DWORD PTR [ebp-0xc]
  102dfe:	01 d0                	add    eax,edx
  102e00:	89 45 f0             	mov    DWORD PTR [ebp-0x10],eax
  102e03:	8b 45 f0             	mov    eax,DWORD PTR [ebp-0x10]
  102e06:	8b 40 14             	mov    eax,DWORD PTR [eax+0x14]
  102e09:	83 f8 01             	cmp    eax,0x1
  102e0c:	75 43                	jne    102e51 <mm_mmap_read+0x80>
  102e0e:	83 7d f4 00          	cmp    DWORD PTR [ebp-0xc],0x0
  102e12:	74 3d                	je     102e51 <mm_mmap_read+0x80>
  102e14:	e8 9d f9 ff ff       	call   1027b6 <kernel_address_end>
  102e19:	25 00 f0 ff ff       	and    eax,0xfffff000
  102e1e:	05 00 10 00 00       	add    eax,0x1000
  102e23:	a3 28 2d 51 00       	mov    ds:0x512d28,eax
  102e28:	8b 45 f0             	mov    eax,DWORD PTR [ebp-0x10]
  102e2b:	8b 50 04             	mov    edx,DWORD PTR [eax+0x4]
  102e2e:	8b 45 f0             	mov    eax,DWORD PTR [ebp-0x10]
  102e31:	8b 40 0c             	mov    eax,DWORD PTR [eax+0xc]
  102e34:	01 d0                	add    eax,edx
  102e36:	a3 24 2d 51 00       	mov    ds:0x512d24,eax
  102e3b:	e8 76 f9 ff ff       	call   1027b6 <kernel_address_end>
  102e40:	89 c2                	mov    edx,eax
  102e42:	8b 45 f0             	mov    eax,DWORD PTR [ebp-0x10]
  102e45:	8b 40 04             	mov    eax,DWORD PTR [eax+0x4]
  102e48:	29 c2                	sub    edx,eax
  102e4a:	89 d0                	mov    eax,edx
  102e4c:	a3 ac 2c 51 00       	mov    ds:0x512cac,eax
  102e51:	83 45 f4 18          	add    DWORD PTR [ebp-0xc],0x18
  102e55:	8d 45 90             	lea    eax,[ebp-0x70]
  102e58:	83 ec 0c             	sub    esp,0xc
  102e5b:	50                   	push   eax
  102e5c:	e8 68 14 00 00       	call   1042c9 <mboot_get>
  102e61:	83 c4 0c             	add    esp,0xc
  102e64:	8b 45 bc             	mov    eax,DWORD PTR [ebp-0x44]
  102e67:	39 45 f4             	cmp    DWORD PTR [ebp-0xc],eax
  102e6a:	0f 82 73 ff ff ff    	jb     102de3 <mm_mmap_read+0x12>
  102e70:	90                   	nop
  102e71:	c9                   	leave  
  102e72:	c3                   	ret    

00102e73 <mm_print_heap>:
  102e73:	55                   	push   ebp
  102e74:	89 e5                	mov    ebp,esp
  102e76:	57                   	push   edi
  102e77:	56                   	push   esi
  102e78:	53                   	push   ebx
  102e79:	83 ec 2c             	sub    esp,0x2c
  102e7c:	e8 f6 d8 ff ff       	call   100777 <debug_getmode>
  102e81:	89 45 e0             	mov    DWORD PTR [ebp-0x20],eax
  102e84:	83 ec 0c             	sub    esp,0xc
  102e87:	ff 75 08             	push   DWORD PTR [ebp+0x8]
  102e8a:	e8 bc d8 ff ff       	call   10074b <debug_setmode>
  102e8f:	83 c4 10             	add    esp,0x10
  102e92:	83 ec 08             	sub    esp,0x8
  102e95:	6a 08                	push   0x8
  102e97:	68 e4 db 10 00       	push   0x10dbe4
  102e9c:	e8 e0 d9 ff ff       	call   100881 <debug_write_col>
  102ea1:	83 c4 10             	add    esp,0x10
  102ea4:	83 ec 08             	sub    esp,0x8
  102ea7:	6a 0e                	push   0xe
  102ea9:	68 ec db 10 00       	push   0x10dbec
  102eae:	e8 ce d9 ff ff       	call   100881 <debug_write_col>
  102eb3:	83 c4 10             	add    esp,0x10
  102eb6:	83 ec 08             	sub    esp,0x8
  102eb9:	6a 08                	push   0x8
  102ebb:	68 f8 db 10 00       	push   0x10dbf8
  102ec0:	e8 3a da ff ff       	call   1008ff <debug_writeln_col>
  102ec5:	83 c4 10             	add    esp,0x10
  102ec8:	83 ec 08             	sub    esp,0x8
  102ecb:	6a 08                	push   0x8
  102ecd:	68 24 dc 10 00       	push   0x10dc24
  102ed2:	e8 28 da ff ff       	call   1008ff <debug_writeln_col>
  102ed7:	83 c4 10             	add    esp,0x10
  102eda:	c7 45 e4 00 00 00 00 	mov    DWORD PTR [ebp-0x1c],0x0
  102ee1:	e9 aa 00 00 00       	jmp    102f90 <mm_print_heap+0x11d>
  102ee6:	8b 15 e0 2c 51 00    	mov    edx,DWORD PTR ds:0x512ce0
  102eec:	8b 45 e4             	mov    eax,DWORD PTR [ebp-0x1c]
  102eef:	6b c0 0e             	imul   eax,eax,0xe
  102ef2:	01 d0                	add    eax,edx
  102ef4:	8b 40 0a             	mov    eax,DWORD PTR [eax+0xa]
  102ef7:	83 ec 0c             	sub    esp,0xc
  102efa:	50                   	push   eax
  102efb:	e8 7b 0b 00 00       	call   103a7b <mm_validate_ptr>
  102f00:	83 c4 10             	add    esp,0x10
  102f03:	84 c0                	test   al,al
  102f05:	0f 84 80 00 00 00    	je     102f8b <mm_print_heap+0x118>
  102f0b:	8b 15 e0 2c 51 00    	mov    edx,DWORD PTR ds:0x512ce0
  102f11:	8b 45 e4             	mov    eax,DWORD PTR [ebp-0x1c]
  102f14:	6b c0 0e             	imul   eax,eax,0xe
  102f17:	01 d0                	add    eax,edx
  102f19:	8b 38                	mov    edi,DWORD PTR [eax]
  102f1b:	8b 15 e0 2c 51 00    	mov    edx,DWORD PTR ds:0x512ce0
  102f21:	8b 45 e4             	mov    eax,DWORD PTR [ebp-0x1c]
  102f24:	6b c0 0e             	imul   eax,eax,0xe
  102f27:	01 d0                	add    eax,edx
  102f29:	8b 70 04             	mov    esi,DWORD PTR [eax+0x4]
  102f2c:	8b 15 e0 2c 51 00    	mov    edx,DWORD PTR ds:0x512ce0
  102f32:	8b 45 e4             	mov    eax,DWORD PTR [ebp-0x1c]
  102f35:	6b c0 0e             	imul   eax,eax,0xe
  102f38:	01 d0                	add    eax,edx
  102f3a:	8b 40 0a             	mov    eax,DWORD PTR [eax+0xa]
  102f3d:	89 45 d4             	mov    DWORD PTR [ebp-0x2c],eax
  102f40:	8b 15 e0 2c 51 00    	mov    edx,DWORD PTR ds:0x512ce0
  102f46:	8b 45 e4             	mov    eax,DWORD PTR [ebp-0x1c]
  102f49:	6b c0 0e             	imul   eax,eax,0xe
  102f4c:	01 d0                	add    eax,edx
  102f4e:	0f b7 40 08          	movzx  eax,WORD PTR [eax+0x8]
  102f52:	0f b7 d8             	movzx  ebx,ax
  102f55:	8b 15 e0 2c 51 00    	mov    edx,DWORD PTR ds:0x512ce0
  102f5b:	8b 45 e4             	mov    eax,DWORD PTR [ebp-0x1c]
  102f5e:	6b c0 0e             	imul   eax,eax,0xe
  102f61:	01 d0                	add    eax,edx
  102f63:	8b 40 0a             	mov    eax,DWORD PTR [eax+0xa]
  102f66:	83 ec 0c             	sub    esp,0xc
  102f69:	50                   	push   eax
  102f6a:	e8 0d 0e 00 00       	call   103d7c <mm_index_from_ptr>
  102f6f:	83 c4 10             	add    esp,0x10
  102f72:	83 ec 08             	sub    esp,0x8
  102f75:	57                   	push   edi
  102f76:	56                   	push   esi
  102f77:	ff 75 d4             	push   DWORD PTR [ebp-0x2c]
  102f7a:	53                   	push   ebx
  102f7b:	50                   	push   eax
  102f7c:	68 58 dc 10 00       	push   0x10dc58
  102f81:	e8 b0 dd ff ff       	call   100d36 <debug_printf>
  102f86:	83 c4 20             	add    esp,0x20
  102f89:	eb 01                	jmp    102f8c <mm_print_heap+0x119>
  102f8b:	90                   	nop
  102f8c:	83 45 e4 01          	add    DWORD PTR [ebp-0x1c],0x1
  102f90:	a1 10 2d 51 00       	mov    eax,ds:0x512d10
  102f95:	39 45 e4             	cmp    DWORD PTR [ebp-0x1c],eax
  102f98:	0f 82 48 ff ff ff    	jb     102ee6 <mm_print_heap+0x73>
  102f9e:	83 ec 0c             	sub    esp,0xc
  102fa1:	ff 75 e0             	push   DWORD PTR [ebp-0x20]
  102fa4:	e8 a2 d7 ff ff       	call   10074b <debug_setmode>
  102fa9:	83 c4 10             	add    esp,0x10
  102fac:	90                   	nop
  102fad:	8d 65 f4             	lea    esp,[ebp-0xc]
  102fb0:	5b                   	pop    ebx
  102fb1:	5e                   	pop    esi
  102fb2:	5f                   	pop    edi
  102fb3:	5d                   	pop    ebp
  102fb4:	c3                   	ret    

00102fb5 <mm_print_mmap>:
  102fb5:	55                   	push   ebp
  102fb6:	89 e5                	mov    ebp,esp
  102fb8:	90                   	nop
  102fb9:	5d                   	pop    ebp
  102fba:	c3                   	ret    

00102fbb <mm_print_info>:
  102fbb:	55                   	push   ebp
  102fbc:	89 e5                	mov    ebp,esp
  102fbe:	53                   	push   ebx
  102fbf:	83 ec 04             	sub    esp,0x4
  102fc2:	83 ec 08             	sub    esp,0x8
  102fc5:	6a 08                	push   0x8
  102fc7:	68 e4 db 10 00       	push   0x10dbe4
  102fcc:	e8 c8 4e 00 00       	call   107e99 <vga_write_fg>
  102fd1:	83 c4 10             	add    esp,0x10
  102fd4:	83 ec 08             	sub    esp,0x8
  102fd7:	6a 0e                	push   0xe
  102fd9:	68 79 dc 10 00       	push   0x10dc79
  102fde:	e8 b6 4e 00 00       	call   107e99 <vga_write_fg>
  102fe3:	83 c4 10             	add    esp,0x10
  102fe6:	83 ec 08             	sub    esp,0x8
  102fe9:	6a 08                	push   0x8
  102feb:	68 88 dc 10 00       	push   0x10dc88
  102ff0:	e8 82 4f 00 00       	call   107f77 <vga_writeln_fg>
  102ff5:	83 c4 10             	add    esp,0x10
  102ff8:	83 ec 0c             	sub    esp,0xc
  102ffb:	68 b0 dc 10 00       	push   0x10dcb0
  103000:	e8 67 4e 00 00       	call   107e6c <vga_write>
  103005:	83 c4 10             	add    esp,0x10
  103008:	83 ec 08             	sub    esp,0x8
  10300b:	6a 0e                	push   0xe
  10300d:	68 b3 dc 10 00       	push   0x10dcb3
  103012:	e8 82 4e 00 00       	call   107e99 <vga_write_fg>
  103017:	83 c4 10             	add    esp,0x10
  10301a:	e8 f1 0d 00 00       	call   103e10 <mm_amount_installed>
  10301f:	89 c3                	mov    ebx,eax
  103021:	e8 ea 0d 00 00       	call   103e10 <mm_amount_installed>
  103026:	c1 e8 14             	shr    eax,0x14
  103029:	83 ec 04             	sub    esp,0x4
  10302c:	53                   	push   ebx
  10302d:	50                   	push   eax
  10302e:	68 cc dc 10 00       	push   0x10dccc
  103033:	e8 52 53 00 00       	call   10838a <vga_printf>
  103038:	83 c4 10             	add    esp,0x10
  10303b:	83 ec 0c             	sub    esp,0xc
  10303e:	68 b0 dc 10 00       	push   0x10dcb0
  103043:	e8 24 4e 00 00       	call   107e6c <vga_write>
  103048:	83 c4 10             	add    esp,0x10
  10304b:	83 ec 08             	sub    esp,0x8
  10304e:	6a 0e                	push   0xe
  103050:	68 dd dc 10 00       	push   0x10dcdd
  103055:	e8 3f 4e 00 00       	call   107e99 <vga_write_fg>
  10305a:	83 c4 10             	add    esp,0x10
  10305d:	e8 25 0f 00 00       	call   103f87 <mm_amount_reserved>
  103062:	89 c3                	mov    ebx,eax
  103064:	e8 1e 0f 00 00       	call   103f87 <mm_amount_reserved>
  103069:	c1 e8 14             	shr    eax,0x14
  10306c:	83 ec 04             	sub    esp,0x4
  10306f:	53                   	push   ebx
  103070:	50                   	push   eax
  103071:	68 cc dc 10 00       	push   0x10dccc
  103076:	e8 0f 53 00 00       	call   10838a <vga_printf>
  10307b:	83 c4 10             	add    esp,0x10
  10307e:	83 ec 0c             	sub    esp,0xc
  103081:	68 b0 dc 10 00       	push   0x10dcb0
  103086:	e8 e1 4d 00 00       	call   107e6c <vga_write>
  10308b:	83 c4 10             	add    esp,0x10
  10308e:	83 ec 08             	sub    esp,0x8
  103091:	6a 0e                	push   0xe
  103093:	68 f6 dc 10 00       	push   0x10dcf6
  103098:	e8 fc 4d 00 00       	call   107e99 <vga_write_fg>
  10309d:	83 c4 10             	add    esp,0x10
  1030a0:	e8 ec 0e 00 00       	call   103f91 <mm_amount_used>
  1030a5:	89 c3                	mov    ebx,eax
  1030a7:	e8 e5 0e 00 00       	call   103f91 <mm_amount_used>
  1030ac:	c1 e8 14             	shr    eax,0x14
  1030af:	83 ec 04             	sub    esp,0x4
  1030b2:	53                   	push   ebx
  1030b3:	50                   	push   eax
  1030b4:	68 cc dc 10 00       	push   0x10dccc
  1030b9:	e8 cc 52 00 00       	call   10838a <vga_printf>
  1030be:	83 c4 10             	add    esp,0x10
  1030c1:	83 ec 0c             	sub    esp,0xc
  1030c4:	68 b0 dc 10 00       	push   0x10dcb0
  1030c9:	e8 9e 4d 00 00       	call   107e6c <vga_write>
  1030ce:	83 c4 10             	add    esp,0x10
  1030d1:	83 ec 08             	sub    esp,0x8
  1030d4:	6a 0e                	push   0xe
  1030d6:	68 0f dd 10 00       	push   0x10dd0f
  1030db:	e8 b9 4d 00 00       	call   107e99 <vga_write_fg>
  1030e0:	83 c4 10             	add    esp,0x10
  1030e3:	e8 b3 0e 00 00       	call   103f9b <mm_amount_free>
  1030e8:	89 c3                	mov    ebx,eax
  1030ea:	e8 ac 0e 00 00       	call   103f9b <mm_amount_free>
  1030ef:	c1 e8 14             	shr    eax,0x14
  1030f2:	83 ec 04             	sub    esp,0x4
  1030f5:	53                   	push   ebx
  1030f6:	50                   	push   eax
  1030f7:	68 cc dc 10 00       	push   0x10dccc
  1030fc:	e8 89 52 00 00       	call   10838a <vga_printf>
  103101:	83 c4 10             	add    esp,0x10
  103104:	90                   	nop
  103105:	8b 5d fc             	mov    ebx,DWORD PTR [ebp-0x4]
  103108:	c9                   	leave  
  103109:	c3                   	ret    

0010310a <mm_print_alloc>:
  10310a:	55                   	push   ebp
  10310b:	89 e5                	mov    ebp,esp
  10310d:	57                   	push   edi
  10310e:	56                   	push   esi
  10310f:	53                   	push   ebx
  103110:	83 ec 1c             	sub    esp,0x1c
  103113:	0f b6 05 2c 2d 51 00 	movzx  eax,BYTE PTR ds:0x512d2c
  10311a:	84 c0                	test   al,al
  10311c:	74 5b                	je     103179 <mm_print_alloc+0x6f>
  10311e:	83 ec 08             	sub    esp,0x8
  103121:	6a 0a                	push   0xa
  103123:	68 28 dd 10 00       	push   0x10dd28
  103128:	e8 2a dc ff ff       	call   100d57 <debug_header>
  10312d:	83 c4 10             	add    esp,0x10
  103130:	8b 45 08             	mov    eax,DWORD PTR [ebp+0x8]
  103133:	8b 38                	mov    edi,DWORD PTR [eax]
  103135:	8b 45 08             	mov    eax,DWORD PTR [ebp+0x8]
  103138:	8b 70 04             	mov    esi,DWORD PTR [eax+0x4]
  10313b:	8b 45 08             	mov    eax,DWORD PTR [ebp+0x8]
  10313e:	8b 40 0a             	mov    eax,DWORD PTR [eax+0xa]
  103141:	89 45 e4             	mov    DWORD PTR [ebp-0x1c],eax
  103144:	8b 45 08             	mov    eax,DWORD PTR [ebp+0x8]
  103147:	0f b7 40 08          	movzx  eax,WORD PTR [eax+0x8]
  10314b:	0f b7 d8             	movzx  ebx,ax
  10314e:	8b 45 08             	mov    eax,DWORD PTR [ebp+0x8]
  103151:	8b 40 0a             	mov    eax,DWORD PTR [eax+0xa]
  103154:	83 ec 0c             	sub    esp,0xc
  103157:	50                   	push   eax
  103158:	e8 1f 0c 00 00       	call   103d7c <mm_index_from_ptr>
  10315d:	83 c4 10             	add    esp,0x10
  103160:	83 ec 08             	sub    esp,0x8
  103163:	57                   	push   edi
  103164:	56                   	push   esi
  103165:	ff 75 e4             	push   DWORD PTR [ebp-0x1c]
  103168:	53                   	push   ebx
  103169:	50                   	push   eax
  10316a:	68 30 dd 10 00       	push   0x10dd30
  10316f:	e8 c2 db ff ff       	call   100d36 <debug_printf>
  103174:	83 c4 20             	add    esp,0x20
  103177:	eb 01                	jmp    10317a <mm_print_alloc+0x70>
  103179:	90                   	nop
  10317a:	8d 65 f4             	lea    esp,[ebp-0xc]
  10317d:	5b                   	pop    ebx
  10317e:	5e                   	pop    esi
  10317f:	5f                   	pop    edi
  103180:	5d                   	pop    ebp
  103181:	c3                   	ret    

00103182 <mm_print_free>:
  103182:	55                   	push   ebp
  103183:	89 e5                	mov    ebp,esp
  103185:	57                   	push   edi
  103186:	56                   	push   esi
  103187:	53                   	push   ebx
  103188:	83 ec 1c             	sub    esp,0x1c
  10318b:	0f b6 05 2c 2d 51 00 	movzx  eax,BYTE PTR ds:0x512d2c
  103192:	84 c0                	test   al,al
  103194:	74 5b                	je     1031f1 <mm_print_free+0x6f>
  103196:	83 ec 08             	sub    esp,0x8
  103199:	6a 0e                	push   0xe
  10319b:	68 72 dd 10 00       	push   0x10dd72
  1031a0:	e8 b2 db ff ff       	call   100d57 <debug_header>
  1031a5:	83 c4 10             	add    esp,0x10
  1031a8:	8b 45 08             	mov    eax,DWORD PTR [ebp+0x8]
  1031ab:	8b 38                	mov    edi,DWORD PTR [eax]
  1031ad:	8b 45 08             	mov    eax,DWORD PTR [ebp+0x8]
  1031b0:	8b 70 04             	mov    esi,DWORD PTR [eax+0x4]
  1031b3:	8b 45 08             	mov    eax,DWORD PTR [ebp+0x8]
  1031b6:	8b 40 0a             	mov    eax,DWORD PTR [eax+0xa]
  1031b9:	89 45 e4             	mov    DWORD PTR [ebp-0x1c],eax
  1031bc:	8b 45 08             	mov    eax,DWORD PTR [ebp+0x8]
  1031bf:	0f b7 40 08          	movzx  eax,WORD PTR [eax+0x8]
  1031c3:	0f b7 d8             	movzx  ebx,ax
  1031c6:	8b 45 08             	mov    eax,DWORD PTR [ebp+0x8]
  1031c9:	8b 40 0a             	mov    eax,DWORD PTR [eax+0xa]
  1031cc:	83 ec 0c             	sub    esp,0xc
  1031cf:	50                   	push   eax
  1031d0:	e8 a7 0b 00 00       	call   103d7c <mm_index_from_ptr>
  1031d5:	83 c4 10             	add    esp,0x10
  1031d8:	83 ec 08             	sub    esp,0x8
  1031db:	57                   	push   edi
  1031dc:	56                   	push   esi
  1031dd:	ff 75 e4             	push   DWORD PTR [ebp-0x1c]
  1031e0:	53                   	push   ebx
  1031e1:	50                   	push   eax
  1031e2:	68 30 dd 10 00       	push   0x10dd30
  1031e7:	e8 4a db ff ff       	call   100d36 <debug_printf>
  1031ec:	83 c4 20             	add    esp,0x20
  1031ef:	eb 01                	jmp    1031f2 <mm_print_free+0x70>
  1031f1:	90                   	nop
  1031f2:	8d 65 f4             	lea    esp,[ebp-0xc]
  1031f5:	5b                   	pop    ebx
  1031f6:	5e                   	pop    esi
  1031f7:	5f                   	pop    edi
  1031f8:	5d                   	pop    ebp
  1031f9:	c3                   	ret    

001031fa <mm_allocate>:
  1031fa:	55                   	push   ebp
  1031fb:	89 e5                	mov    ebp,esp
  1031fd:	83 ec 28             	sub    esp,0x28
  103200:	8b 55 0c             	mov    edx,DWORD PTR [ebp+0xc]
  103203:	8b 45 10             	mov    eax,DWORD PTR [ebp+0x10]
  103206:	88 55 e4             	mov    BYTE PTR [ebp-0x1c],dl
  103209:	88 45 e0             	mov    BYTE PTR [ebp-0x20],al
  10320c:	83 7d 08 00          	cmp    DWORD PTR [ebp+0x8],0x0
  103210:	75 1e                	jne    103230 <mm_allocate+0x36>
  103212:	83 ec 04             	sub    esp,0x4
  103215:	68 79 dd 10 00       	push   0x10dd79
  10321a:	6a 00                	push   0x0
  10321c:	6a 03                	push   0x3
  10321e:	e8 95 e7 ff ff       	call   1019b8 <panicf>
  103223:	83 c4 10             	add    esp,0x10
  103226:	b8 00 00 00 00       	mov    eax,0x0
  10322b:	e9 85 00 00 00       	jmp    1032b5 <mm_allocate+0xbb>
  103230:	83 ec 0c             	sub    esp,0xc
  103233:	ff 75 08             	push   DWORD PTR [ebp+0x8]
  103236:	e8 6e 01 00 00       	call   1033a9 <mm_allocate_entry>
  10323b:	83 c4 10             	add    esp,0x10
  10323e:	89 45 f4             	mov    DWORD PTR [ebp-0xc],eax
  103241:	83 ec 08             	sub    esp,0x8
  103244:	6a 01                	push   0x1
  103246:	ff 75 f4             	push   DWORD PTR [ebp-0xc]
  103249:	e8 52 08 00 00       	call   103aa0 <mm_validate_entry>
  10324e:	83 c4 10             	add    esp,0x10
  103251:	84 c0                	test   al,al
  103253:	75 07                	jne    10325c <mm_allocate+0x62>
  103255:	b8 00 00 00 00       	mov    eax,0x0
  10325a:	eb 59                	jmp    1032b5 <mm_allocate+0xbb>
  10325c:	80 7d e0 00          	cmp    BYTE PTR [ebp-0x20],0x0
  103260:	74 0b                	je     10326d <mm_allocate+0x73>
  103262:	0f b6 55 e0          	movzx  edx,BYTE PTR [ebp-0x20]
  103266:	8b 45 f4             	mov    eax,DWORD PTR [ebp-0xc]
  103269:	66 89 50 08          	mov    WORD PTR [eax+0x8],dx
  10326d:	80 7d e4 00          	cmp    BYTE PTR [ebp-0x1c],0x0
  103271:	74 1b                	je     10328e <mm_allocate+0x94>
  103273:	8b 45 f4             	mov    eax,DWORD PTR [ebp-0xc]
  103276:	8b 50 04             	mov    edx,DWORD PTR [eax+0x4]
  103279:	8b 45 f4             	mov    eax,DWORD PTR [ebp-0xc]
  10327c:	8b 40 0a             	mov    eax,DWORD PTR [eax+0xa]
  10327f:	83 ec 04             	sub    esp,0x4
  103282:	52                   	push   edx
  103283:	6a 00                	push   0x0
  103285:	50                   	push   eax
  103286:	e8 2f 0e 00 00       	call   1040ba <memset>
  10328b:	83 c4 10             	add    esp,0x10
  10328e:	8b 15 20 2d 51 00    	mov    edx,DWORD PTR ds:0x512d20
  103294:	8b 45 f4             	mov    eax,DWORD PTR [ebp-0xc]
  103297:	8b 40 04             	mov    eax,DWORD PTR [eax+0x4]
  10329a:	01 d0                	add    eax,edx
  10329c:	a3 20 2d 51 00       	mov    ds:0x512d20,eax
  1032a1:	83 ec 0c             	sub    esp,0xc
  1032a4:	ff 75 f4             	push   DWORD PTR [ebp-0xc]
  1032a7:	e8 5e fe ff ff       	call   10310a <mm_print_alloc>
  1032ac:	83 c4 10             	add    esp,0x10
  1032af:	8b 45 f4             	mov    eax,DWORD PTR [ebp-0xc]
  1032b2:	8b 40 0a             	mov    eax,DWORD PTR [eax+0xa]
  1032b5:	c9                   	leave  
  1032b6:	c3                   	ret    

001032b7 <mm_free>:
  1032b7:	55                   	push   ebp
  1032b8:	89 e5                	mov    ebp,esp
  1032ba:	83 ec 18             	sub    esp,0x18
  1032bd:	83 ec 0c             	sub    esp,0xc
  1032c0:	ff 75 08             	push   DWORD PTR [ebp+0x8]
  1032c3:	e8 b3 07 00 00       	call   103a7b <mm_validate_ptr>
  1032c8:	83 c4 10             	add    esp,0x10
  1032cb:	84 c0                	test   al,al
  1032cd:	75 19                	jne    1032e8 <mm_free+0x31>
  1032cf:	83 ec 04             	sub    esp,0x4
  1032d2:	68 85 dd 10 00       	push   0x10dd85
  1032d7:	6a 00                	push   0x0
  1032d9:	6a 01                	push   0x1
  1032db:	e8 d8 e6 ff ff       	call   1019b8 <panicf>
  1032e0:	83 c4 10             	add    esp,0x10
  1032e3:	e9 bf 00 00 00       	jmp    1033a7 <mm_free+0xf0>
  1032e8:	c7 45 f4 00 00 00 00 	mov    DWORD PTR [ebp-0xc],0x0
  1032ef:	e9 90 00 00 00       	jmp    103384 <mm_free+0xcd>
  1032f4:	8b 15 e0 2c 51 00    	mov    edx,DWORD PTR ds:0x512ce0
  1032fa:	8b 45 f4             	mov    eax,DWORD PTR [ebp-0xc]
  1032fd:	6b c0 0e             	imul   eax,eax,0xe
  103300:	01 d0                	add    eax,edx
  103302:	83 ec 08             	sub    esp,0x8
  103305:	6a 00                	push   0x0
  103307:	50                   	push   eax
  103308:	e8 93 07 00 00       	call   103aa0 <mm_validate_entry>
  10330d:	83 c4 10             	add    esp,0x10
  103310:	84 c0                	test   al,al
  103312:	74 6b                	je     10337f <mm_free+0xc8>
  103314:	8b 15 e0 2c 51 00    	mov    edx,DWORD PTR ds:0x512ce0
  10331a:	8b 45 f4             	mov    eax,DWORD PTR [ebp-0xc]
  10331d:	6b c0 0e             	imul   eax,eax,0xe
  103320:	01 d0                	add    eax,edx
  103322:	8b 40 0a             	mov    eax,DWORD PTR [eax+0xa]
  103325:	39 45 08             	cmp    DWORD PTR [ebp+0x8],eax
  103328:	75 56                	jne    103380 <mm_free+0xc9>
  10332a:	8b 15 e0 2c 51 00    	mov    edx,DWORD PTR ds:0x512ce0
  103330:	8b 45 f4             	mov    eax,DWORD PTR [ebp-0xc]
  103333:	6b c0 0e             	imul   eax,eax,0xe
  103336:	01 d0                	add    eax,edx
  103338:	66 c7 40 08 00 00    	mov    WORD PTR [eax+0x8],0x0
  10333e:	8b 15 20 2d 51 00    	mov    edx,DWORD PTR ds:0x512d20
  103344:	8b 0d e0 2c 51 00    	mov    ecx,DWORD PTR ds:0x512ce0
  10334a:	8b 45 f4             	mov    eax,DWORD PTR [ebp-0xc]
  10334d:	6b c0 0e             	imul   eax,eax,0xe
  103350:	01 c8                	add    eax,ecx
  103352:	8b 40 04             	mov    eax,DWORD PTR [eax+0x4]
  103355:	29 c2                	sub    edx,eax
  103357:	89 d0                	mov    eax,edx
  103359:	a3 20 2d 51 00       	mov    ds:0x512d20,eax
  10335e:	8b 15 e0 2c 51 00    	mov    edx,DWORD PTR ds:0x512ce0
  103364:	8b 45 f4             	mov    eax,DWORD PTR [ebp-0xc]
  103367:	6b c0 0e             	imul   eax,eax,0xe
  10336a:	01 d0                	add    eax,edx
  10336c:	83 ec 0c             	sub    esp,0xc
  10336f:	50                   	push   eax
  103370:	e8 0d fe ff ff       	call   103182 <mm_print_free>
  103375:	83 c4 10             	add    esp,0x10
  103378:	e8 d9 02 00 00       	call   103656 <mm_merge_nearest>
  10337d:	eb 28                	jmp    1033a7 <mm_free+0xf0>
  10337f:	90                   	nop
  103380:	83 45 f4 01          	add    DWORD PTR [ebp-0xc],0x1
  103384:	a1 10 2d 51 00       	mov    eax,ds:0x512d10
  103389:	39 45 f4             	cmp    DWORD PTR [ebp-0xc],eax
  10338c:	0f 82 62 ff ff ff    	jb     1032f4 <mm_free+0x3d>
  103392:	8b 45 08             	mov    eax,DWORD PTR [ebp+0x8]
  103395:	50                   	push   eax
  103396:	68 8d dd 10 00       	push   0x10dd8d
  10339b:	6a 00                	push   0x0
  10339d:	6a 0b                	push   0xb
  10339f:	e8 14 e6 ff ff       	call   1019b8 <panicf>
  1033a4:	83 c4 10             	add    esp,0x10
  1033a7:	c9                   	leave  
  1033a8:	c3                   	ret    

001033a9 <mm_allocate_entry>:
  1033a9:	55                   	push   ebp
  1033aa:	89 e5                	mov    ebp,esp
  1033ac:	83 ec 18             	sub    esp,0x18
  1033af:	83 7d 08 00          	cmp    DWORD PTR [ebp+0x8],0x0
  1033b3:	74 0a                	je     1033bf <mm_allocate_entry+0x16>
  1033b5:	e8 e1 0b 00 00       	call   103f9b <mm_amount_free>
  1033ba:	39 45 08             	cmp    DWORD PTR [ebp+0x8],eax
  1033bd:	72 1e                	jb     1033dd <mm_allocate_entry+0x34>
  1033bf:	83 ec 04             	sub    esp,0x4
  1033c2:	68 aa dd 10 00       	push   0x10ddaa
  1033c7:	6a 00                	push   0x0
  1033c9:	6a 03                	push   0x3
  1033cb:	e8 e8 e5 ff ff       	call   1019b8 <panicf>
  1033d0:	83 c4 10             	add    esp,0x10
  1033d3:	b8 00 00 00 00       	mov    eax,0x0
  1033d8:	e9 4c 01 00 00       	jmp    103529 <mm_allocate_entry+0x180>
  1033dd:	83 ec 0c             	sub    esp,0xc
  1033e0:	ff 75 08             	push   DWORD PTR [ebp+0x8]
  1033e3:	e8 01 0a 00 00       	call   103de9 <mm_align>
  1033e8:	83 c4 10             	add    esp,0x10
  1033eb:	89 45 f0             	mov    DWORD PTR [ebp-0x10],eax
  1033ee:	c7 45 f4 00 00 00 00 	mov    DWORD PTR [ebp-0xc],0x0
  1033f5:	e9 8e 00 00 00       	jmp    103488 <mm_allocate_entry+0xdf>
  1033fa:	8b 15 e0 2c 51 00    	mov    edx,DWORD PTR ds:0x512ce0
  103400:	8b 45 f4             	mov    eax,DWORD PTR [ebp-0xc]
  103403:	6b c0 0e             	imul   eax,eax,0xe
  103406:	01 d0                	add    eax,edx
  103408:	83 ec 08             	sub    esp,0x8
  10340b:	6a 00                	push   0x0
  10340d:	50                   	push   eax
  10340e:	e8 8d 06 00 00       	call   103aa0 <mm_validate_entry>
  103413:	83 c4 10             	add    esp,0x10
  103416:	84 c0                	test   al,al
  103418:	74 69                	je     103483 <mm_allocate_entry+0xda>
  10341a:	8b 15 e0 2c 51 00    	mov    edx,DWORD PTR ds:0x512ce0
  103420:	8b 45 f4             	mov    eax,DWORD PTR [ebp-0xc]
  103423:	6b c0 0e             	imul   eax,eax,0xe
  103426:	01 d0                	add    eax,edx
  103428:	8b 40 04             	mov    eax,DWORD PTR [eax+0x4]
  10342b:	39 45 f0             	cmp    DWORD PTR [ebp-0x10],eax
  10342e:	75 54                	jne    103484 <mm_allocate_entry+0xdb>
  103430:	8b 15 e0 2c 51 00    	mov    edx,DWORD PTR ds:0x512ce0
  103436:	8b 45 f4             	mov    eax,DWORD PTR [ebp-0xc]
  103439:	6b c0 0e             	imul   eax,eax,0xe
  10343c:	01 d0                	add    eax,edx
  10343e:	8b 00                	mov    eax,DWORD PTR [eax]
  103440:	39 45 08             	cmp    DWORD PTR [ebp+0x8],eax
  103443:	75 3f                	jne    103484 <mm_allocate_entry+0xdb>
  103445:	8b 15 e0 2c 51 00    	mov    edx,DWORD PTR ds:0x512ce0
  10344b:	8b 45 f4             	mov    eax,DWORD PTR [ebp-0xc]
  10344e:	6b c0 0e             	imul   eax,eax,0xe
  103451:	01 d0                	add    eax,edx
  103453:	0f b7 40 08          	movzx  eax,WORD PTR [eax+0x8]
  103457:	66 85 c0             	test   ax,ax
  10345a:	75 28                	jne    103484 <mm_allocate_entry+0xdb>
  10345c:	8b 15 e0 2c 51 00    	mov    edx,DWORD PTR ds:0x512ce0
  103462:	8b 45 f4             	mov    eax,DWORD PTR [ebp-0xc]
  103465:	6b c0 0e             	imul   eax,eax,0xe
  103468:	01 d0                	add    eax,edx
  10346a:	66 c7 40 08 01 00    	mov    WORD PTR [eax+0x8],0x1
  103470:	8b 15 e0 2c 51 00    	mov    edx,DWORD PTR ds:0x512ce0
  103476:	8b 45 f4             	mov    eax,DWORD PTR [ebp-0xc]
  103479:	6b c0 0e             	imul   eax,eax,0xe
  10347c:	01 d0                	add    eax,edx
  10347e:	e9 a6 00 00 00       	jmp    103529 <mm_allocate_entry+0x180>
  103483:	90                   	nop
  103484:	83 45 f4 01          	add    DWORD PTR [ebp-0xc],0x1
  103488:	a1 10 2d 51 00       	mov    eax,ds:0x512d10
  10348d:	39 45 f4             	cmp    DWORD PTR [ebp-0xc],eax
  103490:	0f 82 64 ff ff ff    	jb     1033fa <mm_allocate_entry+0x51>
  103496:	a1 e0 2c 51 00       	mov    eax,ds:0x512ce0
  10349b:	8b 48 0a             	mov    ecx,DWORD PTR [eax+0xa]
  10349e:	a1 e0 2c 51 00       	mov    eax,ds:0x512ce0
  1034a3:	8b 55 f0             	mov    edx,DWORD PTR [ebp-0x10]
  1034a6:	01 ca                	add    edx,ecx
  1034a8:	89 50 0a             	mov    DWORD PTR [eax+0xa],edx
  1034ab:	a1 e0 2c 51 00       	mov    eax,ds:0x512ce0
  1034b0:	8b 50 04             	mov    edx,DWORD PTR [eax+0x4]
  1034b3:	a1 e0 2c 51 00       	mov    eax,ds:0x512ce0
  1034b8:	2b 55 f0             	sub    edx,DWORD PTR [ebp-0x10]
  1034bb:	89 50 04             	mov    DWORD PTR [eax+0x4],edx
  1034be:	a1 e0 2c 51 00       	mov    eax,ds:0x512ce0
  1034c3:	8b 10                	mov    edx,DWORD PTR [eax]
  1034c5:	a1 e0 2c 51 00       	mov    eax,ds:0x512ce0
  1034ca:	2b 55 08             	sub    edx,DWORD PTR [ebp+0x8]
  1034cd:	89 10                	mov    DWORD PTR [eax],edx
  1034cf:	a1 e0 2c 51 00       	mov    eax,ds:0x512ce0
  1034d4:	66 c7 40 08 00 00    	mov    WORD PTR [eax+0x8],0x0
  1034da:	a1 e0 2c 51 00       	mov    eax,ds:0x512ce0
  1034df:	8b 40 0a             	mov    eax,DWORD PTR [eax+0xa]
  1034e2:	8b 55 f0             	mov    edx,DWORD PTR [ebp-0x10]
  1034e5:	f7 da                	neg    edx
  1034e7:	01 d0                	add    eax,edx
  1034e9:	83 ec 04             	sub    esp,0x4
  1034ec:	6a 01                	push   0x1
  1034ee:	ff 75 f0             	push   DWORD PTR [ebp-0x10]
  1034f1:	50                   	push   eax
  1034f2:	e8 f8 03 00 00       	call   1038ef <mm_create_entry>
  1034f7:	83 c4 10             	add    esp,0x10
  1034fa:	89 45 ec             	mov    DWORD PTR [ebp-0x14],eax
  1034fd:	8b 45 ec             	mov    eax,DWORD PTR [ebp-0x14]
  103500:	8b 55 08             	mov    edx,DWORD PTR [ebp+0x8]
  103503:	89 10                	mov    DWORD PTR [eax],edx
  103505:	83 7d ec 00          	cmp    DWORD PTR [ebp-0x14],0x0
  103509:	75 1b                	jne    103526 <mm_allocate_entry+0x17d>
  10350b:	83 ec 04             	sub    esp,0x4
  10350e:	68 aa dd 10 00       	push   0x10ddaa
  103513:	6a 00                	push   0x0
  103515:	6a 07                	push   0x7
  103517:	e8 9c e4 ff ff       	call   1019b8 <panicf>
  10351c:	83 c4 10             	add    esp,0x10
  10351f:	b8 00 00 00 00       	mov    eax,0x0
  103524:	eb 03                	jmp    103529 <mm_allocate_entry+0x180>
  103526:	8b 45 ec             	mov    eax,DWORD PTR [ebp-0x14]
  103529:	c9                   	leave  
  10352a:	c3                   	ret    

0010352b <mm_get_nearest>:
  10352b:	55                   	push   ebp
  10352c:	89 e5                	mov    ebp,esp
  10352e:	83 ec 10             	sub    esp,0x10
  103531:	83 7d 08 00          	cmp    DWORD PTR [ebp+0x8],0x0
  103535:	75 0a                	jne    103541 <mm_get_nearest+0x16>
  103537:	b8 00 00 00 00       	mov    eax,0x0
  10353c:	e9 13 01 00 00       	jmp    103654 <mm_get_nearest+0x129>
  103541:	c7 45 fc 00 00 00 00 	mov    DWORD PTR [ebp-0x4],0x0
  103548:	e9 f4 00 00 00       	jmp    103641 <mm_get_nearest+0x116>
  10354d:	8b 15 e0 2c 51 00    	mov    edx,DWORD PTR ds:0x512ce0
  103553:	8b 45 fc             	mov    eax,DWORD PTR [ebp-0x4]
  103556:	6b c0 0e             	imul   eax,eax,0xe
  103559:	01 d0                	add    eax,edx
  10355b:	8b 40 0a             	mov    eax,DWORD PTR [eax+0xa]
  10355e:	85 c0                	test   eax,eax
  103560:	0f 84 d7 00 00 00    	je     10363d <mm_get_nearest+0x112>
  103566:	8b 15 e0 2c 51 00    	mov    edx,DWORD PTR ds:0x512ce0
  10356c:	8b 45 fc             	mov    eax,DWORD PTR [ebp-0x4]
  10356f:	6b c0 0e             	imul   eax,eax,0xe
  103572:	01 d0                	add    eax,edx
  103574:	8b 40 04             	mov    eax,DWORD PTR [eax+0x4]
  103577:	85 c0                	test   eax,eax
  103579:	0f 84 be 00 00 00    	je     10363d <mm_get_nearest+0x112>
  10357f:	8b 15 e0 2c 51 00    	mov    edx,DWORD PTR ds:0x512ce0
  103585:	8b 45 fc             	mov    eax,DWORD PTR [ebp-0x4]
  103588:	6b c0 0e             	imul   eax,eax,0xe
  10358b:	01 d0                	add    eax,edx
  10358d:	39 45 08             	cmp    DWORD PTR [ebp+0x8],eax
  103590:	0f 84 a6 00 00 00    	je     10363c <mm_get_nearest+0x111>
  103596:	8b 15 e0 2c 51 00    	mov    edx,DWORD PTR ds:0x512ce0
  10359c:	8b 45 fc             	mov    eax,DWORD PTR [ebp-0x4]
  10359f:	6b c0 0e             	imul   eax,eax,0xe
  1035a2:	01 d0                	add    eax,edx
  1035a4:	8b 40 0a             	mov    eax,DWORD PTR [eax+0xa]
  1035a7:	89 c1                	mov    ecx,eax
  1035a9:	8b 15 e0 2c 51 00    	mov    edx,DWORD PTR ds:0x512ce0
  1035af:	8b 45 fc             	mov    eax,DWORD PTR [ebp-0x4]
  1035b2:	6b c0 0e             	imul   eax,eax,0xe
  1035b5:	01 d0                	add    eax,edx
  1035b7:	8b 40 04             	mov    eax,DWORD PTR [eax+0x4]
  1035ba:	8d 14 01             	lea    edx,[ecx+eax*1]
  1035bd:	8b 45 08             	mov    eax,DWORD PTR [ebp+0x8]
  1035c0:	8b 40 0a             	mov    eax,DWORD PTR [eax+0xa]
  1035c3:	39 c2                	cmp    edx,eax
  1035c5:	75 27                	jne    1035ee <mm_get_nearest+0xc3>
  1035c7:	8b 15 e0 2c 51 00    	mov    edx,DWORD PTR ds:0x512ce0
  1035cd:	8b 45 fc             	mov    eax,DWORD PTR [ebp-0x4]
  1035d0:	6b c0 0e             	imul   eax,eax,0xe
  1035d3:	01 d0                	add    eax,edx
  1035d5:	0f b7 40 08          	movzx  eax,WORD PTR [eax+0x8]
  1035d9:	66 85 c0             	test   ax,ax
  1035dc:	75 10                	jne    1035ee <mm_get_nearest+0xc3>
  1035de:	8b 15 e0 2c 51 00    	mov    edx,DWORD PTR ds:0x512ce0
  1035e4:	8b 45 fc             	mov    eax,DWORD PTR [ebp-0x4]
  1035e7:	6b c0 0e             	imul   eax,eax,0xe
  1035ea:	01 d0                	add    eax,edx
  1035ec:	eb 66                	jmp    103654 <mm_get_nearest+0x129>
  1035ee:	8b 45 08             	mov    eax,DWORD PTR [ebp+0x8]
  1035f1:	8b 40 0a             	mov    eax,DWORD PTR [eax+0xa]
  1035f4:	89 c2                	mov    edx,eax
  1035f6:	8b 45 08             	mov    eax,DWORD PTR [ebp+0x8]
  1035f9:	8b 40 04             	mov    eax,DWORD PTR [eax+0x4]
  1035fc:	89 d1                	mov    ecx,edx
  1035fe:	29 c1                	sub    ecx,eax
  103600:	8b 15 e0 2c 51 00    	mov    edx,DWORD PTR ds:0x512ce0
  103606:	8b 45 fc             	mov    eax,DWORD PTR [ebp-0x4]
  103609:	6b c0 0e             	imul   eax,eax,0xe
  10360c:	01 d0                	add    eax,edx
  10360e:	8b 40 0a             	mov    eax,DWORD PTR [eax+0xa]
  103611:	39 c1                	cmp    ecx,eax
  103613:	75 28                	jne    10363d <mm_get_nearest+0x112>
  103615:	8b 15 e0 2c 51 00    	mov    edx,DWORD PTR ds:0x512ce0
  10361b:	8b 45 fc             	mov    eax,DWORD PTR [ebp-0x4]
  10361e:	6b c0 0e             	imul   eax,eax,0xe
  103621:	01 d0                	add    eax,edx
  103623:	0f b7 40 08          	movzx  eax,WORD PTR [eax+0x8]
  103627:	66 85 c0             	test   ax,ax
  10362a:	75 11                	jne    10363d <mm_get_nearest+0x112>
  10362c:	8b 15 e0 2c 51 00    	mov    edx,DWORD PTR ds:0x512ce0
  103632:	8b 45 fc             	mov    eax,DWORD PTR [ebp-0x4]
  103635:	6b c0 0e             	imul   eax,eax,0xe
  103638:	01 d0                	add    eax,edx
  10363a:	eb 18                	jmp    103654 <mm_get_nearest+0x129>
  10363c:	90                   	nop
  10363d:	83 45 fc 01          	add    DWORD PTR [ebp-0x4],0x1
  103641:	a1 10 2d 51 00       	mov    eax,ds:0x512d10
  103646:	39 45 fc             	cmp    DWORD PTR [ebp-0x4],eax
  103649:	0f 82 fe fe ff ff    	jb     10354d <mm_get_nearest+0x22>
  10364f:	b8 00 00 00 00       	mov    eax,0x0
  103654:	c9                   	leave  
  103655:	c3                   	ret    

00103656 <mm_merge_nearest>:
  103656:	55                   	push   ebp
  103657:	89 e5                	mov    ebp,esp
  103659:	53                   	push   ebx
  10365a:	83 ec 14             	sub    esp,0x14
  10365d:	c7 45 f4 00 00 00 00 	mov    DWORD PTR [ebp-0xc],0x0
  103664:	e9 41 01 00 00       	jmp    1037aa <mm_merge_nearest+0x154>
  103669:	8b 15 e0 2c 51 00    	mov    edx,DWORD PTR ds:0x512ce0
  10366f:	8b 45 f4             	mov    eax,DWORD PTR [ebp-0xc]
  103672:	6b c0 0e             	imul   eax,eax,0xe
  103675:	01 d0                	add    eax,edx
  103677:	8b 40 0a             	mov    eax,DWORD PTR [eax+0xa]
  10367a:	83 ec 0c             	sub    esp,0xc
  10367d:	50                   	push   eax
  10367e:	e8 f8 03 00 00       	call   103a7b <mm_validate_ptr>
  103683:	83 c4 10             	add    esp,0x10
  103686:	84 c0                	test   al,al
  103688:	0f 84 18 01 00 00    	je     1037a6 <mm_merge_nearest+0x150>
  10368e:	8b 15 e0 2c 51 00    	mov    edx,DWORD PTR ds:0x512ce0
  103694:	8b 45 f4             	mov    eax,DWORD PTR [ebp-0xc]
  103697:	6b c0 0e             	imul   eax,eax,0xe
  10369a:	01 d0                	add    eax,edx
  10369c:	0f b7 40 08          	movzx  eax,WORD PTR [eax+0x8]
  1036a0:	66 85 c0             	test   ax,ax
  1036a3:	0f 85 fd 00 00 00    	jne    1037a6 <mm_merge_nearest+0x150>
  1036a9:	8b 15 e0 2c 51 00    	mov    edx,DWORD PTR ds:0x512ce0
  1036af:	8b 45 f4             	mov    eax,DWORD PTR [ebp-0xc]
  1036b2:	6b c0 0e             	imul   eax,eax,0xe
  1036b5:	01 d0                	add    eax,edx
  1036b7:	83 ec 0c             	sub    esp,0xc
  1036ba:	50                   	push   eax
  1036bb:	e8 6b fe ff ff       	call   10352b <mm_get_nearest>
  1036c0:	83 c4 10             	add    esp,0x10
  1036c3:	89 45 e8             	mov    DWORD PTR [ebp-0x18],eax
  1036c6:	83 7d e8 00          	cmp    DWORD PTR [ebp-0x18],0x0
  1036ca:	0f 84 d6 00 00 00    	je     1037a6 <mm_merge_nearest+0x150>
  1036d0:	8b 15 e0 2c 51 00    	mov    edx,DWORD PTR ds:0x512ce0
  1036d6:	8b 45 f4             	mov    eax,DWORD PTR [ebp-0xc]
  1036d9:	6b c0 0e             	imul   eax,eax,0xe
  1036dc:	01 d0                	add    eax,edx
  1036de:	39 45 e8             	cmp    DWORD PTR [ebp-0x18],eax
  1036e1:	0f 84 bf 00 00 00    	je     1037a6 <mm_merge_nearest+0x150>
  1036e7:	a1 e0 2c 51 00       	mov    eax,ds:0x512ce0
  1036ec:	39 45 e8             	cmp    DWORD PTR [ebp-0x18],eax
  1036ef:	0f 84 b1 00 00 00    	je     1037a6 <mm_merge_nearest+0x150>
  1036f5:	83 7d f4 00          	cmp    DWORD PTR [ebp-0xc],0x0
  1036f9:	0f 84 a7 00 00 00    	je     1037a6 <mm_merge_nearest+0x150>
  1036ff:	8b 15 e0 2c 51 00    	mov    edx,DWORD PTR ds:0x512ce0
  103705:	8b 45 f4             	mov    eax,DWORD PTR [ebp-0xc]
  103708:	6b c0 0e             	imul   eax,eax,0xe
  10370b:	01 d0                	add    eax,edx
  10370d:	8b 40 0a             	mov    eax,DWORD PTR [eax+0xa]
  103710:	89 c2                	mov    edx,eax
  103712:	8b 45 e8             	mov    eax,DWORD PTR [ebp-0x18]
  103715:	8b 40 0a             	mov    eax,DWORD PTR [eax+0xa]
  103718:	39 c2                	cmp    edx,eax
  10371a:	76 17                	jbe    103733 <mm_merge_nearest+0xdd>
  10371c:	8b 15 e0 2c 51 00    	mov    edx,DWORD PTR ds:0x512ce0
  103722:	8b 45 f4             	mov    eax,DWORD PTR [ebp-0xc]
  103725:	6b c0 0e             	imul   eax,eax,0xe
  103728:	01 c2                	add    edx,eax
  10372a:	8b 45 e8             	mov    eax,DWORD PTR [ebp-0x18]
  10372d:	8b 40 0a             	mov    eax,DWORD PTR [eax+0xa]
  103730:	89 42 0a             	mov    DWORD PTR [edx+0xa],eax
  103733:	8b 15 e0 2c 51 00    	mov    edx,DWORD PTR ds:0x512ce0
  103739:	8b 45 f4             	mov    eax,DWORD PTR [ebp-0xc]
  10373c:	6b c0 0e             	imul   eax,eax,0xe
  10373f:	01 d0                	add    eax,edx
  103741:	8b 48 04             	mov    ecx,DWORD PTR [eax+0x4]
  103744:	8b 45 e8             	mov    eax,DWORD PTR [ebp-0x18]
  103747:	8b 50 04             	mov    edx,DWORD PTR [eax+0x4]
  10374a:	8b 1d e0 2c 51 00    	mov    ebx,DWORD PTR ds:0x512ce0
  103750:	8b 45 f4             	mov    eax,DWORD PTR [ebp-0xc]
  103753:	6b c0 0e             	imul   eax,eax,0xe
  103756:	01 d8                	add    eax,ebx
  103758:	01 ca                	add    edx,ecx
  10375a:	89 50 04             	mov    DWORD PTR [eax+0x4],edx
  10375d:	8b 15 e0 2c 51 00    	mov    edx,DWORD PTR ds:0x512ce0
  103763:	8b 45 f4             	mov    eax,DWORD PTR [ebp-0xc]
  103766:	6b c0 0e             	imul   eax,eax,0xe
  103769:	01 d0                	add    eax,edx
  10376b:	8b 08                	mov    ecx,DWORD PTR [eax]
  10376d:	8b 45 e8             	mov    eax,DWORD PTR [ebp-0x18]
  103770:	8b 10                	mov    edx,DWORD PTR [eax]
  103772:	8b 1d e0 2c 51 00    	mov    ebx,DWORD PTR ds:0x512ce0
  103778:	8b 45 f4             	mov    eax,DWORD PTR [ebp-0xc]
  10377b:	6b c0 0e             	imul   eax,eax,0xe
  10377e:	01 d8                	add    eax,ebx
  103780:	01 ca                	add    edx,ecx
  103782:	89 10                	mov    DWORD PTR [eax],edx
  103784:	8b 15 e0 2c 51 00    	mov    edx,DWORD PTR ds:0x512ce0
  10378a:	8b 45 f4             	mov    eax,DWORD PTR [ebp-0xc]
  10378d:	6b c0 0e             	imul   eax,eax,0xe
  103790:	01 d0                	add    eax,edx
  103792:	66 c7 40 08 00 00    	mov    WORD PTR [eax+0x8],0x0
  103798:	83 ec 0c             	sub    esp,0xc
  10379b:	ff 75 e8             	push   DWORD PTR [ebp-0x18]
  10379e:	e8 f7 01 00 00       	call   10399a <mm_delete_entry>
  1037a3:	83 c4 10             	add    esp,0x10
  1037a6:	83 45 f4 01          	add    DWORD PTR [ebp-0xc],0x1
  1037aa:	a1 10 2d 51 00       	mov    eax,ds:0x512d10
  1037af:	39 45 f4             	cmp    DWORD PTR [ebp-0xc],eax
  1037b2:	0f 82 b1 fe ff ff    	jb     103669 <mm_merge_nearest+0x13>
  1037b8:	a1 e0 2c 51 00       	mov    eax,ds:0x512ce0
  1037bd:	83 ec 0c             	sub    esp,0xc
  1037c0:	50                   	push   eax
  1037c1:	e8 65 fd ff ff       	call   10352b <mm_get_nearest>
  1037c6:	83 c4 10             	add    esp,0x10
  1037c9:	89 45 ec             	mov    DWORD PTR [ebp-0x14],eax
  1037cc:	c7 45 f0 00 00 00 00 	mov    DWORD PTR [ebp-0x10],0x0
  1037d3:	e9 ff 00 00 00       	jmp    1038d7 <mm_merge_nearest+0x281>
  1037d8:	8b 15 e0 2c 51 00    	mov    edx,DWORD PTR ds:0x512ce0
  1037de:	8b 45 f0             	mov    eax,DWORD PTR [ebp-0x10]
  1037e1:	6b c0 0e             	imul   eax,eax,0xe
  1037e4:	01 d0                	add    eax,edx
  1037e6:	8b 40 0a             	mov    eax,DWORD PTR [eax+0xa]
  1037e9:	83 ec 0c             	sub    esp,0xc
  1037ec:	50                   	push   eax
  1037ed:	e8 89 02 00 00       	call   103a7b <mm_validate_ptr>
  1037f2:	83 c4 10             	add    esp,0x10
  1037f5:	84 c0                	test   al,al
  1037f7:	0f 84 d5 00 00 00    	je     1038d2 <mm_merge_nearest+0x27c>
  1037fd:	8b 15 e0 2c 51 00    	mov    edx,DWORD PTR ds:0x512ce0
  103803:	8b 45 f0             	mov    eax,DWORD PTR [ebp-0x10]
  103806:	6b c0 0e             	imul   eax,eax,0xe
  103809:	01 d0                	add    eax,edx
  10380b:	8b 40 0a             	mov    eax,DWORD PTR [eax+0xa]
  10380e:	89 c1                	mov    ecx,eax
  103810:	8b 15 e0 2c 51 00    	mov    edx,DWORD PTR ds:0x512ce0
  103816:	8b 45 f0             	mov    eax,DWORD PTR [ebp-0x10]
  103819:	6b c0 0e             	imul   eax,eax,0xe
  10381c:	01 d0                	add    eax,edx
