
bin/kernel.bin:     file format elf32-i386
bin/kernel.bin
architecture: i386, flags 0x00000112:
EXEC_P, HAS_SYMS, D_PAGED
start address 0x00100020


Disassembly of section .text:

00100000 <__code>:
  100000:	02 b0 ad 1b 03 00    	add    dh,BYTE PTR [eax+0x31bad]
  100006:	00 00                	add    BYTE PTR [eax],al
  100008:	fb                   	sti    
  100009:	4f                   	dec    edi
  10000a:	52                   	push   edx
  10000b:	e4 00                	in     al,0x0
  10000d:	00 10                	add    BYTE PTR [eax],dl
	...
  10001b:	00 20                	add    BYTE PTR [eax],ah
  10001d:	00 10                	add    BYTE PTR [eax],dl
	...

00100020 <start>:
  100020:	fa                   	cli    
  100021:	bd 00 70 51 00       	mov    ebp,0x517000
  100026:	89 ec                	mov    esp,ebp
  100028:	e8 08 00 00 00       	call   100035 <enable_a20>
  10002d:	53                   	push   ebx
  10002e:	e8 62 2e 00 00       	call   102e95 <kernel_entry>
  100033:	fa                   	cli    
  100034:	f4                   	hlt    

00100035 <enable_a20>:
  100035:	e4 92                	in     al,0x92
  100037:	0c 02                	or     al,0x2
  100039:	e6 92                	out    0x92,al
  10003b:	c3                   	ret    

0010003c <cli_start>:
  10003c:	55                   	push   ebp
  10003d:	89 e5                	mov    ebp,esp
  10003f:	83 ec 18             	sub    esp,0x18
  100042:	c7 05 0c 80 51 00 00 01 00 00 	mov    DWORD PTR ds:0x51800c,0x100
  10004c:	c7 05 04 80 51 00 00 00 00 00 	mov    DWORD PTR ds:0x518004,0x0
  100056:	c7 05 10 80 51 00 00 00 00 00 	mov    DWORD PTR ds:0x518010,0x0
  100060:	c7 05 00 80 51 00 00 00 00 00 	mov    DWORD PTR ds:0x518000,0x0
  10006a:	a1 0c 80 51 00       	mov    eax,ds:0x51800c
  10006f:	c1 e0 04             	shl    eax,0x4
  100072:	83 ec 08             	sub    esp,0x8
  100075:	6a 05                	push   0x5
  100077:	50                   	push   eax
  100078:	e8 61 4b 00 00       	call   104bde <tcalloc>
  10007d:	83 c4 10             	add    esp,0x10
  100080:	a3 24 80 51 00       	mov    ds:0x518024,eax
  100085:	c6 05 14 80 51 00 00 	mov    BYTE PTR ds:0x518014,0x0
  10008c:	8d 45 e8             	lea    eax,[ebp-0x18]
  10008f:	83 ec 04             	sub    esp,0x4
  100092:	6a 00                	push   0x0
  100094:	68 00 04 00 00       	push   0x400
  100099:	50                   	push   eax
  10009a:	e8 ba 65 00 00       	call   106659 <bytestream_create>
  10009f:	83 c4 0c             	add    esp,0xc
  1000a2:	8b 45 e8             	mov    eax,DWORD PTR [ebp-0x18]
  1000a5:	a3 18 80 51 00       	mov    ds:0x518018,eax
  1000aa:	8b 45 ec             	mov    eax,DWORD PTR [ebp-0x14]
  1000ad:	a3 1c 80 51 00       	mov    ds:0x51801c,eax
  1000b2:	8b 45 f0             	mov    eax,DWORD PTR [ebp-0x10]
  1000b5:	a3 20 80 51 00       	mov    ds:0x518020,eax
  1000ba:	83 ec 04             	sub    esp,0x4
  1000bd:	ff 35 20 80 51 00    	push   DWORD PTR ds:0x518020
  1000c3:	ff 35 1c 80 51 00    	push   DWORD PTR ds:0x51801c
  1000c9:	ff 35 18 80 51 00    	push   DWORD PTR ds:0x518018
  1000cf:	e8 bf 35 00 00       	call   103693 <kbps2_set_stream>
  1000d4:	83 c4 10             	add    esp,0x10
  1000d7:	e8 f9 00 00 00       	call   1001d5 <cli_register_defaults>
  1000dc:	90                   	nop
  1000dd:	c9                   	leave  
  1000de:	c3                   	ret    

001000df <cli_stop>:
  1000df:	55                   	push   ebp
  1000e0:	89 e5                	mov    ebp,esp
  1000e2:	83 ec 08             	sub    esp,0x8
  1000e5:	a1 24 80 51 00       	mov    eax,ds:0x518024
  1000ea:	85 c0                	test   eax,eax
  1000ec:	74 11                	je     1000ff <cli_stop+0x20>
  1000ee:	a1 24 80 51 00       	mov    eax,ds:0x518024
  1000f3:	83 ec 0c             	sub    esp,0xc
  1000f6:	50                   	push   eax
  1000f7:	e8 0f 4b 00 00       	call   104c0b <free>
  1000fc:	83 c4 10             	add    esp,0x10
  1000ff:	a1 10 80 51 00       	mov    eax,ds:0x518010
  100104:	85 c0                	test   eax,eax
  100106:	74 19                	je     100121 <cli_stop+0x42>
  100108:	a1 00 80 51 00       	mov    eax,ds:0x518000
  10010d:	89 c2                	mov    edx,eax
  10010f:	a1 10 80 51 00       	mov    eax,ds:0x518010
  100114:	83 ec 08             	sub    esp,0x8
  100117:	52                   	push   edx
  100118:	50                   	push   eax
  100119:	e8 04 4b 00 00       	call   104c22 <freearray>
  10011e:	83 c4 10             	add    esp,0x10
  100121:	c7 05 04 80 51 00 00 00 00 00 	mov    DWORD PTR ds:0x518004,0x0
  10012b:	90                   	nop
  10012c:	c9                   	leave  
  10012d:	c3                   	ret    

0010012e <cli_init>:
  10012e:	55                   	push   ebp
  10012f:	89 e5                	mov    ebp,esp
  100131:	83 ec 08             	sub    esp,0x8
  100134:	68 df 00 10 00       	push   0x1000df
  100139:	68 3c 00 10 00       	push   0x10003c
  10013e:	6a 02                	push   0x2
  100140:	68 ce e5 10 00       	push   0x10e5ce
  100145:	e8 43 5d 00 00       	call   105e8d <service_create>
  10014a:	83 c4 10             	add    esp,0x10
  10014d:	a3 08 80 51 00       	mov    ds:0x518008,eax
  100152:	a1 08 80 51 00       	mov    eax,ds:0x518008
  100157:	83 ec 0c             	sub    esp,0xc
  10015a:	50                   	push   eax
  10015b:	e8 da 5d 00 00       	call   105f3a <service_register>
  100160:	83 c4 10             	add    esp,0x10
  100163:	84 c0                	test   al,al
  100165:	74 1e                	je     100185 <cli_init+0x57>
  100167:	a1 08 80 51 00       	mov    eax,ds:0x518008
  10016c:	c6 40 08 01          	mov    BYTE PTR [eax+0x8],0x1
  100170:	a1 08 80 51 00       	mov    eax,ds:0x518008
  100175:	83 ec 0c             	sub    esp,0xc
  100178:	50                   	push   eax
  100179:	e8 3a 5e 00 00       	call   105fb8 <service_start>
  10017e:	83 c4 10             	add    esp,0x10
  100181:	84 c0                	test   al,al
  100183:	eb 01                	jmp    100186 <cli_init+0x58>
  100185:	90                   	nop
  100186:	c9                   	leave  
  100187:	c3                   	ret    

00100188 <cli_freeindex>:
  100188:	55                   	push   ebp
  100189:	89 e5                	mov    ebp,esp
  10018b:	83 ec 10             	sub    esp,0x10
  10018e:	a1 24 80 51 00       	mov    eax,ds:0x518024
  100193:	85 c0                	test   eax,eax
  100195:	75 07                	jne    10019e <cli_freeindex+0x16>
  100197:	b8 ff ff ff ff       	mov    eax,0xffffffff
  10019c:	eb 35                	jmp    1001d3 <cli_freeindex+0x4b>
  10019e:	c7 45 fc 00 00 00 00 	mov    DWORD PTR [ebp-0x4],0x0
  1001a5:	eb 1d                	jmp    1001c4 <cli_freeindex+0x3c>
  1001a7:	a1 24 80 51 00       	mov    eax,ds:0x518024
  1001ac:	8b 55 fc             	mov    edx,DWORD PTR [ebp-0x4]
  1001af:	c1 e2 04             	shl    edx,0x4
  1001b2:	01 d0                	add    eax,edx
  1001b4:	8b 40 0c             	mov    eax,DWORD PTR [eax+0xc]
  1001b7:	85 c0                	test   eax,eax
  1001b9:	75 05                	jne    1001c0 <cli_freeindex+0x38>
  1001bb:	8b 45 fc             	mov    eax,DWORD PTR [ebp-0x4]
  1001be:	eb 13                	jmp    1001d3 <cli_freeindex+0x4b>
  1001c0:	83 45 fc 01          	add    DWORD PTR [ebp-0x4],0x1
  1001c4:	a1 0c 80 51 00       	mov    eax,ds:0x51800c
  1001c9:	39 45 fc             	cmp    DWORD PTR [ebp-0x4],eax
  1001cc:	72 d9                	jb     1001a7 <cli_freeindex+0x1f>
  1001ce:	b8 ff ff ff ff       	mov    eax,0xffffffff
  1001d3:	c9                   	leave  
  1001d4:	c3                   	ret    

001001d5 <cli_register_defaults>:
  1001d5:	55                   	push   ebp
  1001d6:	89 e5                	mov    ebp,esp
  1001d8:	83 ec 08             	sub    esp,0x8
  1001db:	ff 35 d0 e1 10 00    	push   DWORD PTR ds:0x10e1d0
  1001e1:	ff 35 cc e1 10 00    	push   DWORD PTR ds:0x10e1cc
  1001e7:	ff 35 c8 e1 10 00    	push   DWORD PTR ds:0x10e1c8
  1001ed:	ff 35 c4 e1 10 00    	push   DWORD PTR ds:0x10e1c4
  1001f3:	e8 a6 00 00 00       	call   10029e <cli_register>
  1001f8:	83 c4 10             	add    esp,0x10
  1001fb:	ff 35 20 e2 10 00    	push   DWORD PTR ds:0x10e220
  100201:	ff 35 1c e2 10 00    	push   DWORD PTR ds:0x10e21c
  100207:	ff 35 18 e2 10 00    	push   DWORD PTR ds:0x10e218
  10020d:	ff 35 14 e2 10 00    	push   DWORD PTR ds:0x10e214
  100213:	e8 86 00 00 00       	call   10029e <cli_register>
  100218:	83 c4 10             	add    esp,0x10
  10021b:	ff 35 58 e2 10 00    	push   DWORD PTR ds:0x10e258
  100221:	ff 35 54 e2 10 00    	push   DWORD PTR ds:0x10e254
  100227:	ff 35 50 e2 10 00    	push   DWORD PTR ds:0x10e250
  10022d:	ff 35 4c e2 10 00    	push   DWORD PTR ds:0x10e24c
  100233:	e8 66 00 00 00       	call   10029e <cli_register>
  100238:	83 c4 10             	add    esp,0x10
  10023b:	ff 35 94 e2 10 00    	push   DWORD PTR ds:0x10e294
  100241:	ff 35 90 e2 10 00    	push   DWORD PTR ds:0x10e290
  100247:	ff 35 8c e2 10 00    	push   DWORD PTR ds:0x10e28c
  10024d:	ff 35 88 e2 10 00    	push   DWORD PTR ds:0x10e288
  100253:	e8 46 00 00 00       	call   10029e <cli_register>
  100258:	83 c4 10             	add    esp,0x10
  10025b:	ff 35 dc e2 10 00    	push   DWORD PTR ds:0x10e2dc
  100261:	ff 35 d8 e2 10 00    	push   DWORD PTR ds:0x10e2d8
  100267:	ff 35 d4 e2 10 00    	push   DWORD PTR ds:0x10e2d4
  10026d:	ff 35 d0 e2 10 00    	push   DWORD PTR ds:0x10e2d0
  100273:	e8 26 00 00 00       	call   10029e <cli_register>
  100278:	83 c4 10             	add    esp,0x10
  10027b:	ff 35 18 e3 10 00    	push   DWORD PTR ds:0x10e318
  100281:	ff 35 14 e3 10 00    	push   DWORD PTR ds:0x10e314
  100287:	ff 35 10 e3 10 00    	push   DWORD PTR ds:0x10e310
  10028d:	ff 35 0c e3 10 00    	push   DWORD PTR ds:0x10e30c
  100293:	e8 06 00 00 00       	call   10029e <cli_register>
  100298:	83 c4 10             	add    esp,0x10
  10029b:	90                   	nop
  10029c:	c9                   	leave  
  10029d:	c3                   	ret    

0010029e <cli_register>:
  10029e:	55                   	push   ebp
  10029f:	89 e5                	mov    ebp,esp
  1002a1:	83 ec 18             	sub    esp,0x18
  1002a4:	e8 df fe ff ff       	call   100188 <cli_freeindex>
  1002a9:	89 45 f4             	mov    DWORD PTR [ebp-0xc],eax
  1002ac:	83 7d f4 00          	cmp    DWORD PTR [ebp-0xc],0x0
  1002b0:	78 0c                	js     1002be <cli_register+0x20>
  1002b2:	8b 55 f4             	mov    edx,DWORD PTR [ebp-0xc]
  1002b5:	a1 0c 80 51 00       	mov    eax,ds:0x51800c
  1002ba:	39 c2                	cmp    edx,eax
  1002bc:	72 1b                	jb     1002d9 <cli_register+0x3b>
  1002be:	83 ec 04             	sub    esp,0x4
  1002c1:	68 da e5 10 00       	push   0x10e5da
  1002c6:	6a 00                	push   0x0
  1002c8:	6a 05                	push   0x5
  1002ca:	e8 5a 20 00 00       	call   102329 <panicf>
  1002cf:	83 c4 10             	add    esp,0x10
  1002d2:	b8 00 00 00 00       	mov    eax,0x0
  1002d7:	eb 7d                	jmp    100356 <cli_register+0xb8>
  1002d9:	a1 24 80 51 00       	mov    eax,ds:0x518024
  1002de:	8b 55 f4             	mov    edx,DWORD PTR [ebp-0xc]
  1002e1:	c1 e2 04             	shl    edx,0x4
  1002e4:	01 c2                	add    edx,eax
  1002e6:	8b 45 08             	mov    eax,DWORD PTR [ebp+0x8]
  1002e9:	89 02                	mov    DWORD PTR [edx],eax
  1002eb:	a1 24 80 51 00       	mov    eax,ds:0x518024
  1002f0:	8b 55 f4             	mov    edx,DWORD PTR [ebp-0xc]
  1002f3:	c1 e2 04             	shl    edx,0x4
  1002f6:	01 c2                	add    edx,eax
  1002f8:	8b 45 0c             	mov    eax,DWORD PTR [ebp+0xc]
  1002fb:	89 42 04             	mov    DWORD PTR [edx+0x4],eax
  1002fe:	a1 24 80 51 00       	mov    eax,ds:0x518024
  100303:	8b 55 f4             	mov    edx,DWORD PTR [ebp-0xc]
  100306:	c1 e2 04             	shl    edx,0x4
  100309:	01 c2                	add    edx,eax
  10030b:	8b 45 10             	mov    eax,DWORD PTR [ebp+0x10]
  10030e:	89 42 08             	mov    DWORD PTR [edx+0x8],eax
  100311:	a1 24 80 51 00       	mov    eax,ds:0x518024
  100316:	8b 55 f4             	mov    edx,DWORD PTR [ebp-0xc]
  100319:	c1 e2 04             	shl    edx,0x4
  10031c:	01 c2                	add    edx,eax
  10031e:	8b 45 14             	mov    eax,DWORD PTR [ebp+0x14]
  100321:	89 42 0c             	mov    DWORD PTR [edx+0xc],eax
  100324:	a1 04 80 51 00       	mov    eax,ds:0x518004
  100329:	83 c0 01             	add    eax,0x1
  10032c:	a3 04 80 51 00       	mov    ds:0x518004,eax
  100331:	a1 24 80 51 00       	mov    eax,ds:0x518024
  100336:	8b 55 f4             	mov    edx,DWORD PTR [ebp-0xc]
  100339:	c1 e2 04             	shl    edx,0x4
  10033c:	01 d0                	add    eax,edx
  10033e:	8b 00                	mov    eax,DWORD PTR [eax]
  100340:	83 ec 08             	sub    esp,0x8
  100343:	50                   	push   eax
  100344:	68 e7 e5 10 00       	push   0x10e5e7
  100349:	e8 2f 14 00 00       	call   10177d <debug_info>
  10034e:	83 c4 10             	add    esp,0x10
  100351:	b8 01 00 00 00       	mov    eax,0x1
  100356:	c9                   	leave  
  100357:	c3                   	ret    

00100358 <cli_unregister>:
  100358:	55                   	push   ebp
  100359:	89 e5                	mov    ebp,esp
  10035b:	90                   	nop
  10035c:	5d                   	pop    ebp
  10035d:	c3                   	ret    

0010035e <cli_unregister_byname>:
  10035e:	55                   	push   ebp
  10035f:	89 e5                	mov    ebp,esp
  100361:	90                   	nop
  100362:	5d                   	pop    ebp
  100363:	c3                   	ret    

00100364 <cli_print_caret>:
  100364:	55                   	push   ebp
  100365:	89 e5                	mov    ebp,esp
  100367:	83 ec 08             	sub    esp,0x8
  10036a:	83 ec 08             	sub    esp,0x8
  10036d:	6a 0a                	push   0xa
  10036f:	68 02 e6 10 00       	push   0x10e602
  100374:	e8 32 89 00 00       	call   108cab <vga_write_fg>
  100379:	83 c4 10             	add    esp,0x10
  10037c:	83 ec 0c             	sub    esp,0xc
  10037f:	68 07 e6 10 00       	push   0x10e607
  100384:	e8 f5 88 00 00       	call   108c7e <vga_write>
  100389:	83 c4 10             	add    esp,0x10
  10038c:	83 ec 08             	sub    esp,0x8
  10038f:	6a 0e                	push   0xe
  100391:	68 09 e6 10 00       	push   0x10e609
  100396:	e8 10 89 00 00       	call   108cab <vga_write_fg>
  10039b:	83 c4 10             	add    esp,0x10
  10039e:	83 ec 0c             	sub    esp,0xc
  1003a1:	68 0b e6 10 00       	push   0x10e60b
  1003a6:	e8 d3 88 00 00       	call   108c7e <vga_write>
  1003ab:	83 c4 10             	add    esp,0x10
  1003ae:	90                   	nop
  1003af:	c9                   	leave  
  1003b0:	c3                   	ret    

001003b1 <cli_print_help>:
  1003b1:	55                   	push   ebp
  1003b2:	89 e5                	mov    ebp,esp
  1003b4:	83 ec 28             	sub    esp,0x28
  1003b7:	8b 45 08             	mov    eax,DWORD PTR [ebp+0x8]
  1003ba:	88 45 e4             	mov    BYTE PTR [ebp-0x1c],al
  1003bd:	c7 45 f4 00 00 00 00 	mov    DWORD PTR [ebp-0xc],0x0
  1003c4:	e9 95 00 00 00       	jmp    10045e <cli_print_help+0xad>
  1003c9:	a1 24 80 51 00       	mov    eax,ds:0x518024
  1003ce:	8b 55 f4             	mov    edx,DWORD PTR [ebp-0xc]
  1003d1:	c1 e2 04             	shl    edx,0x4
  1003d4:	01 d0                	add    eax,edx
  1003d6:	8b 40 0c             	mov    eax,DWORD PTR [eax+0xc]
  1003d9:	85 c0                	test   eax,eax
  1003db:	74 7c                	je     100459 <cli_print_help+0xa8>
  1003dd:	83 ec 0c             	sub    esp,0xc
  1003e0:	68 0e e6 10 00       	push   0x10e60e
  1003e5:	e8 94 88 00 00       	call   108c7e <vga_write>
  1003ea:	83 c4 10             	add    esp,0x10
  1003ed:	a1 24 80 51 00       	mov    eax,ds:0x518024
  1003f2:	8b 55 f4             	mov    edx,DWORD PTR [ebp-0xc]
  1003f5:	c1 e2 04             	shl    edx,0x4
  1003f8:	01 d0                	add    eax,edx
  1003fa:	8b 00                	mov    eax,DWORD PTR [eax]
  1003fc:	83 ec 08             	sub    esp,0x8
  1003ff:	6a 0e                	push   0xe
  100401:	50                   	push   eax
  100402:	e8 a4 88 00 00       	call   108cab <vga_write_fg>
  100407:	83 c4 10             	add    esp,0x10
  10040a:	83 ec 0c             	sub    esp,0xc
  10040d:	6a 18                	push   0x18
  10040f:	e8 8c 8e 00 00       	call   1092a0 <vga_set_cursor_x>
  100414:	83 c4 10             	add    esp,0x10
  100417:	80 7d e4 00          	cmp    BYTE PTR [ebp-0x1c],0x0
  10041b:	74 1e                	je     10043b <cli_print_help+0x8a>
  10041d:	a1 24 80 51 00       	mov    eax,ds:0x518024
  100422:	8b 55 f4             	mov    edx,DWORD PTR [ebp-0xc]
  100425:	c1 e2 04             	shl    edx,0x4
  100428:	01 d0                	add    eax,edx
  10042a:	8b 40 08             	mov    eax,DWORD PTR [eax+0x8]
  10042d:	83 ec 0c             	sub    esp,0xc
  100430:	50                   	push   eax
  100431:	e8 26 89 00 00       	call   108d5c <vga_writeln>
  100436:	83 c4 10             	add    esp,0x10
  100439:	eb 1f                	jmp    10045a <cli_print_help+0xa9>
  10043b:	a1 24 80 51 00       	mov    eax,ds:0x518024
  100440:	8b 55 f4             	mov    edx,DWORD PTR [ebp-0xc]
  100443:	c1 e2 04             	shl    edx,0x4
  100446:	01 d0                	add    eax,edx
  100448:	8b 40 04             	mov    eax,DWORD PTR [eax+0x4]
  10044b:	83 ec 0c             	sub    esp,0xc
  10044e:	50                   	push   eax
  10044f:	e8 08 89 00 00       	call   108d5c <vga_writeln>
  100454:	83 c4 10             	add    esp,0x10
  100457:	eb 01                	jmp    10045a <cli_print_help+0xa9>
  100459:	90                   	nop
  10045a:	83 45 f4 01          	add    DWORD PTR [ebp-0xc],0x1
  10045e:	a1 0c 80 51 00       	mov    eax,ds:0x51800c
  100463:	39 45 f4             	cmp    DWORD PTR [ebp-0xc],eax
  100466:	0f 82 5d ff ff ff    	jb     1003c9 <cli_print_help+0x18>
  10046c:	90                   	nop
  10046d:	c9                   	leave  
  10046e:	c3                   	ret    

0010046f <cli_print_help_short>:
  10046f:	55                   	push   ebp
  100470:	89 e5                	mov    ebp,esp
  100472:	53                   	push   ebx
  100473:	83 ec 14             	sub    esp,0x14
  100476:	c7 45 f4 00 00 00 00 	mov    DWORD PTR [ebp-0xc],0x0
  10047d:	eb 79                	jmp    1004f8 <cli_print_help_short+0x89>
  10047f:	a1 24 80 51 00       	mov    eax,ds:0x518024
  100484:	8b 55 f4             	mov    edx,DWORD PTR [ebp-0xc]
  100487:	c1 e2 04             	shl    edx,0x4
  10048a:	01 d0                	add    eax,edx
  10048c:	8b 40 0c             	mov    eax,DWORD PTR [eax+0xc]
  10048f:	85 c0                	test   eax,eax
  100491:	74 60                	je     1004f3 <cli_print_help_short+0x84>
  100493:	e8 95 8f 00 00       	call   10942d <vga_get_cursor_x>
  100498:	0f b7 d8             	movzx  ebx,ax
  10049b:	a1 24 80 51 00       	mov    eax,ds:0x518024
  1004a0:	8b 55 f4             	mov    edx,DWORD PTR [ebp-0xc]
  1004a3:	c1 e2 04             	shl    edx,0x4
  1004a6:	01 d0                	add    eax,edx
  1004a8:	8b 00                	mov    eax,DWORD PTR [eax]
  1004aa:	83 ec 0c             	sub    esp,0xc
  1004ad:	50                   	push   eax
  1004ae:	e8 3d 67 00 00       	call   106bf0 <strlen>
  1004b3:	83 c4 10             	add    esp,0x10
  1004b6:	01 c3                	add    ebx,eax
  1004b8:	e8 c3 8f 00 00       	call   109480 <vga_get_width>
  1004bd:	0f b7 c0             	movzx  eax,ax
  1004c0:	39 c3                	cmp    ebx,eax
  1004c2:	72 05                	jb     1004c9 <cli_print_help_short+0x5a>
  1004c4:	e8 43 83 00 00       	call   10880c <vga_newline>
  1004c9:	a1 24 80 51 00       	mov    eax,ds:0x518024
  1004ce:	8b 55 f4             	mov    edx,DWORD PTR [ebp-0xc]
  1004d1:	c1 e2 04             	shl    edx,0x4
  1004d4:	01 d0                	add    eax,edx
  1004d6:	8b 00                	mov    eax,DWORD PTR [eax]
  1004d8:	83 ec 0c             	sub    esp,0xc
  1004db:	50                   	push   eax
  1004dc:	e8 9d 87 00 00       	call   108c7e <vga_write>
  1004e1:	83 c4 10             	add    esp,0x10
  1004e4:	83 ec 0c             	sub    esp,0xc
  1004e7:	6a 20                	push   0x20
  1004e9:	e8 72 86 00 00       	call   108b60 <vga_writechar>
  1004ee:	83 c4 10             	add    esp,0x10
  1004f1:	eb 01                	jmp    1004f4 <cli_print_help_short+0x85>
  1004f3:	90                   	nop
  1004f4:	83 45 f4 01          	add    DWORD PTR [ebp-0xc],0x1
  1004f8:	a1 0c 80 51 00       	mov    eax,ds:0x51800c
  1004fd:	39 45 f4             	cmp    DWORD PTR [ebp-0xc],eax
  100500:	0f 82 79 ff ff ff    	jb     10047f <cli_print_help_short+0x10>
  100506:	e8 01 83 00 00       	call   10880c <vga_newline>
  10050b:	90                   	nop
  10050c:	8b 5d fc             	mov    ebx,DWORD PTR [ebp-0x4]
  10050f:	c9                   	leave  
  100510:	c3                   	ret    

00100511 <cli_monitor>:
  100511:	55                   	push   ebp
  100512:	89 e5                	mov    ebp,esp
  100514:	83 ec 08             	sub    esp,0x8
  100517:	83 ec 0c             	sub    esp,0xc
  10051a:	6a 1c                	push   0x1c
  10051c:	e8 ab 30 00 00       	call   1035cc <kbps2_key_down>
  100521:	83 c4 10             	add    esp,0x10
  100524:	84 c0                	test   al,al
  100526:	74 3d                	je     100565 <cli_monitor+0x54>
  100528:	0f b6 05 14 80 51 00 	movzx  eax,BYTE PTR ds:0x518014
  10052f:	84 c0                	test   al,al
  100531:	75 32                	jne    100565 <cli_monitor+0x54>
  100533:	c6 05 14 80 51 00 01 	mov    BYTE PTR ds:0x518014,0x1
  10053a:	e8 cd 82 00 00       	call   10880c <vga_newline>
  10053f:	a1 20 80 51 00       	mov    eax,ds:0x518020
  100544:	83 ec 0c             	sub    esp,0xc
  100547:	50                   	push   eax
  100548:	e8 44 00 00 00       	call   100591 <cli_execute>
  10054d:	83 c4 10             	add    esp,0x10
  100550:	83 ec 0c             	sub    esp,0xc
  100553:	68 18 80 51 00       	push   0x518018
  100558:	e8 d6 61 00 00       	call   106733 <bytestream_clear>
  10055d:	83 c4 10             	add    esp,0x10
  100560:	e8 ff fd ff ff       	call   100364 <cli_print_caret>
  100565:	83 ec 0c             	sub    esp,0xc
  100568:	6a 1c                	push   0x1c
  10056a:	e8 70 30 00 00       	call   1035df <kbps2_key_up>
  10056f:	83 c4 10             	add    esp,0x10
  100572:	84 c0                	test   al,al
  100574:	74 12                	je     100588 <cli_monitor+0x77>
  100576:	0f b6 05 14 80 51 00 	movzx  eax,BYTE PTR ds:0x518014
  10057d:	84 c0                	test   al,al
  10057f:	74 07                	je     100588 <cli_monitor+0x77>
  100581:	c6 05 14 80 51 00 00 	mov    BYTE PTR ds:0x518014,0x0
  100588:	90                   	nop
  100589:	c9                   	leave  
  10058a:	c3                   	ret    

0010058b <cli_enter_pressed>:
  10058b:	55                   	push   ebp
  10058c:	89 e5                	mov    ebp,esp
  10058e:	90                   	nop
  10058f:	5d                   	pop    ebp
  100590:	c3                   	ret    

00100591 <cli_execute>:
  100591:	55                   	push   ebp
  100592:	89 e5                	mov    ebp,esp
  100594:	83 ec 18             	sub    esp,0x18
  100597:	83 7d 08 00          	cmp    DWORD PTR [ebp+0x8],0x0
  10059b:	0f 84 3e 01 00 00    	je     1006df <cli_execute+0x14e>
  1005a1:	83 ec 0c             	sub    esp,0xc
  1005a4:	ff 75 08             	push   DWORD PTR [ebp+0x8]
  1005a7:	e8 44 66 00 00       	call   106bf0 <strlen>
  1005ac:	83 c4 10             	add    esp,0x10
  1005af:	85 c0                	test   eax,eax
  1005b1:	0f 84 2b 01 00 00    	je     1006e2 <cli_execute+0x151>
  1005b7:	a1 10 80 51 00       	mov    eax,ds:0x518010
  1005bc:	85 c0                	test   eax,eax
  1005be:	74 19                	je     1005d9 <cli_execute+0x48>
  1005c0:	a1 00 80 51 00       	mov    eax,ds:0x518000
  1005c5:	89 c2                	mov    edx,eax
  1005c7:	a1 10 80 51 00       	mov    eax,ds:0x518010
  1005cc:	83 ec 08             	sub    esp,0x8
  1005cf:	52                   	push   edx
  1005d0:	50                   	push   eax
  1005d1:	e8 4c 46 00 00       	call   104c22 <freearray>
  1005d6:	83 c4 10             	add    esp,0x10
  1005d9:	83 ec 04             	sub    esp,0x4
  1005dc:	68 00 80 51 00       	push   0x518000
  1005e1:	6a 20                	push   0x20
  1005e3:	ff 75 08             	push   DWORD PTR [ebp+0x8]
  1005e6:	e8 f0 69 00 00       	call   106fdb <strsplit>
  1005eb:	83 c4 10             	add    esp,0x10
  1005ee:	a3 10 80 51 00       	mov    ds:0x518010,eax
  1005f3:	83 ec 0c             	sub    esp,0xc
  1005f6:	ff 75 08             	push   DWORD PTR [ebp+0x8]
  1005f9:	e8 f2 65 00 00       	call   106bf0 <strlen>
  1005fe:	83 c4 10             	add    esp,0x10
  100601:	83 ec 08             	sub    esp,0x8
  100604:	6a 08                	push   0x8
  100606:	50                   	push   eax
  100607:	e8 d2 45 00 00       	call   104bde <tcalloc>
  10060c:	83 c4 10             	add    esp,0x10
  10060f:	89 45 f0             	mov    DWORD PTR [ebp-0x10],eax
  100612:	a1 10 80 51 00       	mov    eax,ds:0x518010
  100617:	8b 00                	mov    eax,DWORD PTR [eax]
  100619:	83 ec 08             	sub    esp,0x8
  10061c:	50                   	push   eax
  10061d:	ff 75 f0             	push   DWORD PTR [ebp-0x10]
  100620:	e8 65 65 00 00       	call   106b8a <strcpy>
  100625:	83 c4 10             	add    esp,0x10
  100628:	83 ec 0c             	sub    esp,0xc
  10062b:	ff 75 f0             	push   DWORD PTR [ebp-0x10]
  10062e:	e8 59 66 00 00       	call   106c8c <strupr>
  100633:	83 c4 10             	add    esp,0x10
  100636:	c7 45 f4 00 00 00 00 	mov    DWORD PTR [ebp-0xc],0x0
  10063d:	eb 74                	jmp    1006b3 <cli_execute+0x122>
  10063f:	a1 24 80 51 00       	mov    eax,ds:0x518024
  100644:	8b 55 f4             	mov    edx,DWORD PTR [ebp-0xc]
  100647:	c1 e2 04             	shl    edx,0x4
  10064a:	01 d0                	add    eax,edx
  10064c:	8b 40 0c             	mov    eax,DWORD PTR [eax+0xc]
  10064f:	85 c0                	test   eax,eax
  100651:	74 5b                	je     1006ae <cli_execute+0x11d>
  100653:	a1 24 80 51 00       	mov    eax,ds:0x518024
  100658:	8b 55 f4             	mov    edx,DWORD PTR [ebp-0xc]
  10065b:	c1 e2 04             	shl    edx,0x4
  10065e:	01 d0                	add    eax,edx
  100660:	8b 00                	mov    eax,DWORD PTR [eax]
  100662:	83 ec 08             	sub    esp,0x8
  100665:	ff 75 f0             	push   DWORD PTR [ebp-0x10]
  100668:	50                   	push   eax
  100669:	e8 09 69 00 00       	call   106f77 <streql>
  10066e:	83 c4 10             	add    esp,0x10
  100671:	84 c0                	test   al,al
  100673:	74 3a                	je     1006af <cli_execute+0x11e>
  100675:	a1 24 80 51 00       	mov    eax,ds:0x518024
  10067a:	8b 55 f4             	mov    edx,DWORD PTR [ebp-0xc]
  10067d:	c1 e2 04             	shl    edx,0x4
  100680:	01 d0                	add    eax,edx
  100682:	8b 40 0c             	mov    eax,DWORD PTR [eax+0xc]
  100685:	8b 0d 00 80 51 00    	mov    ecx,DWORD PTR ds:0x518000
  10068b:	8b 15 10 80 51 00    	mov    edx,DWORD PTR ds:0x518010
  100691:	83 ec 04             	sub    esp,0x4
  100694:	51                   	push   ecx
  100695:	52                   	push   edx
  100696:	ff 75 08             	push   DWORD PTR [ebp+0x8]
  100699:	ff d0                	call   eax
  10069b:	83 c4 10             	add    esp,0x10
  10069e:	83 ec 0c             	sub    esp,0xc
  1006a1:	ff 75 f0             	push   DWORD PTR [ebp-0x10]
  1006a4:	e8 62 45 00 00       	call   104c0b <free>
  1006a9:	83 c4 10             	add    esp,0x10
  1006ac:	eb 35                	jmp    1006e3 <cli_execute+0x152>
  1006ae:	90                   	nop
  1006af:	83 45 f4 01          	add    DWORD PTR [ebp-0xc],0x1
  1006b3:	a1 0c 80 51 00       	mov    eax,ds:0x51800c
  1006b8:	39 45 f4             	cmp    DWORD PTR [ebp-0xc],eax
  1006bb:	72 82                	jb     10063f <cli_execute+0xae>
  1006bd:	83 ec 08             	sub    esp,0x8
  1006c0:	6a 0c                	push   0xc
  1006c2:	68 11 e6 10 00       	push   0x10e611
  1006c7:	e8 bd 86 00 00       	call   108d89 <vga_writeln_fg>
  1006cc:	83 c4 10             	add    esp,0x10
  1006cf:	83 ec 0c             	sub    esp,0xc
  1006d2:	ff 75 f0             	push   DWORD PTR [ebp-0x10]
  1006d5:	e8 31 45 00 00       	call   104c0b <free>
  1006da:	83 c4 10             	add    esp,0x10
  1006dd:	eb 04                	jmp    1006e3 <cli_execute+0x152>
  1006df:	90                   	nop
  1006e0:	eb 01                	jmp    1006e3 <cli_execute+0x152>
  1006e2:	90                   	nop
  1006e3:	c9                   	leave  
  1006e4:	c3                   	ret    

001006e5 <cli_get_instream>:
  1006e5:	55                   	push   ebp
  1006e6:	89 e5                	mov    ebp,esp
  1006e8:	b8 18 80 51 00       	mov    eax,0x518018
  1006ed:	5d                   	pop    ebp
  1006ee:	c3                   	ret    

001006ef <CMD_METHOD_CLS>:
  1006ef:	55                   	push   ebp
  1006f0:	89 e5                	mov    ebp,esp
  1006f2:	83 ec 08             	sub    esp,0x8
  1006f5:	e8 57 8d 00 00       	call   109451 <vga_get_bg>
  1006fa:	0f b6 c0             	movzx  eax,al
  1006fd:	83 ec 0c             	sub    esp,0xc
  100700:	50                   	push   eax
  100701:	e8 60 80 00 00       	call   108766 <vga_clear>
  100706:	83 c4 10             	add    esp,0x10
  100709:	90                   	nop
  10070a:	c9                   	leave  
  10070b:	c3                   	ret    

0010070c <CMD_METHOD_CPUINFO>:
  10070c:	55                   	push   ebp
  10070d:	89 e5                	mov    ebp,esp
  10070f:	83 ec 08             	sub    esp,0x8
  100712:	83 ec 08             	sub    esp,0x8
  100715:	6a 0e                	push   0xe
  100717:	68 ae ee 10 00       	push   0x10eeae
  10071c:	e8 8a 85 00 00       	call   108cab <vga_write_fg>
  100721:	83 c4 10             	add    esp,0x10
  100724:	e8 30 76 00 00       	call   107d59 <taskmgr_get_cpu_usage>
  100729:	83 ec 04             	sub    esp,0x4
  10072c:	8d 64 24 f8          	lea    esp,[esp-0x8]
  100730:	dd 1c 24             	fstp   QWORD PTR [esp]
  100733:	68 c8 ee 10 00       	push   0x10eec8
  100738:	e8 5f 8a 00 00       	call   10919c <vga_printf>
  10073d:	83 c4 10             	add    esp,0x10
  100740:	83 ec 0c             	sub    esp,0xc
  100743:	68 cb ee 10 00       	push   0x10eecb
  100748:	e8 0f 86 00 00       	call   108d5c <vga_writeln>
  10074d:	83 c4 10             	add    esp,0x10
  100750:	90                   	nop
  100751:	c9                   	leave  
  100752:	c3                   	ret    

00100753 <CMD_METHOD_HELP>:
  100753:	55                   	push   ebp
  100754:	89 e5                	mov    ebp,esp
  100756:	83 ec 08             	sub    esp,0x8
  100759:	83 7d 10 01          	cmp    DWORD PTR [ebp+0x10],0x1
  10075d:	75 0f                	jne    10076e <CMD_METHOD_HELP+0x1b>
  10075f:	83 ec 0c             	sub    esp,0xc
  100762:	6a 00                	push   0x0
  100764:	e8 48 fc ff ff       	call   1003b1 <cli_print_help>
  100769:	83 c4 10             	add    esp,0x10
  10076c:	eb 68                	jmp    1007d6 <CMD_METHOD_HELP+0x83>
  10076e:	83 7d 10 01          	cmp    DWORD PTR [ebp+0x10],0x1
  100772:	7e 50                	jle    1007c4 <CMD_METHOD_HELP+0x71>
  100774:	8b 45 0c             	mov    eax,DWORD PTR [ebp+0xc]
  100777:	83 c0 04             	add    eax,0x4
  10077a:	8b 00                	mov    eax,DWORD PTR [eax]
  10077c:	83 ec 08             	sub    esp,0x8
  10077f:	68 0e f3 10 00       	push   0x10f30e
  100784:	50                   	push   eax
  100785:	e8 ed 67 00 00       	call   106f77 <streql>
  10078a:	83 c4 10             	add    esp,0x10
  10078d:	84 c0                	test   al,al
  10078f:	74 0f                	je     1007a0 <CMD_METHOD_HELP+0x4d>
  100791:	83 ec 0c             	sub    esp,0xc
  100794:	6a 01                	push   0x1
  100796:	e8 16 fc ff ff       	call   1003b1 <cli_print_help>
  10079b:	83 c4 10             	add    esp,0x10
  10079e:	eb 36                	jmp    1007d6 <CMD_METHOD_HELP+0x83>
  1007a0:	8b 45 0c             	mov    eax,DWORD PTR [ebp+0xc]
  1007a3:	83 c0 04             	add    eax,0x4
  1007a6:	8b 00                	mov    eax,DWORD PTR [eax]
  1007a8:	83 ec 08             	sub    esp,0x8
  1007ab:	68 11 f3 10 00       	push   0x10f311
  1007b0:	50                   	push   eax
  1007b1:	e8 c1 67 00 00       	call   106f77 <streql>
  1007b6:	83 c4 10             	add    esp,0x10
  1007b9:	84 c0                	test   al,al
  1007bb:	74 07                	je     1007c4 <CMD_METHOD_HELP+0x71>
  1007bd:	e8 ad fc ff ff       	call   10046f <cli_print_help_short>
  1007c2:	eb 12                	jmp    1007d6 <CMD_METHOD_HELP+0x83>
  1007c4:	83 ec 08             	sub    esp,0x8
  1007c7:	6a 00                	push   0x0
  1007c9:	68 14 f3 10 00       	push   0x10f314
  1007ce:	e8 b6 85 00 00       	call   108d89 <vga_writeln_fg>
  1007d3:	83 c4 10             	add    esp,0x10
  1007d6:	c9                   	leave  
  1007d7:	c3                   	ret    

001007d8 <CMD_METHOD_KILL>:
  1007d8:	55                   	push   ebp
  1007d9:	89 e5                	mov    ebp,esp
  1007db:	83 ec 18             	sub    esp,0x18
  1007de:	83 7d 10 02          	cmp    DWORD PTR [ebp+0x10],0x2
  1007e2:	0f 85 91 00 00 00    	jne    100879 <CMD_METHOD_KILL+0xa1>
  1007e8:	8b 45 0c             	mov    eax,DWORD PTR [ebp+0xc]
  1007eb:	83 c0 04             	add    eax,0x4
  1007ee:	8b 00                	mov    eax,DWORD PTR [eax]
  1007f0:	83 ec 0c             	sub    esp,0xc
  1007f3:	50                   	push   eax
  1007f4:	e8 d2 07 00 00       	call   100fcb <atol>
  1007f9:	83 c4 10             	add    esp,0x10
  1007fc:	89 45 f4             	mov    DWORD PTR [ebp-0xc],eax
  1007ff:	83 ec 0c             	sub    esp,0xc
  100802:	ff 75 f4             	push   DWORD PTR [ebp-0xc]
  100805:	e8 ef 74 00 00       	call   107cf9 <taskmgr_get_thread_byid>
  10080a:	83 c4 10             	add    esp,0x10
  10080d:	89 45 f0             	mov    DWORD PTR [ebp-0x10],eax
  100810:	83 7d f0 00          	cmp    DWORD PTR [ebp-0x10],0x0
  100814:	75 15                	jne    10082b <CMD_METHOD_KILL+0x53>
  100816:	83 ec 08             	sub    esp,0x8
  100819:	ff 75 f4             	push   DWORD PTR [ebp-0xc]
  10081c:	68 6e f7 10 00       	push   0x10f76e
  100821:	e8 76 89 00 00       	call   10919c <vga_printf>
  100826:	83 c4 10             	add    esp,0x10
  100829:	eb 60                	jmp    10088b <CMD_METHOD_KILL+0xb3>
  10082b:	83 ec 0c             	sub    esp,0xc
  10082e:	ff 75 f0             	push   DWORD PTR [ebp-0x10]
  100831:	e8 ce 70 00 00       	call   107904 <taskmgr_terminate>
  100836:	83 c4 10             	add    esp,0x10
  100839:	84 c0                	test   al,al
  10083b:	75 15                	jne    100852 <CMD_METHOD_KILL+0x7a>
  10083d:	83 ec 08             	sub    esp,0x8
  100840:	ff 75 f4             	push   DWORD PTR [ebp-0xc]
  100843:	68 8c f7 10 00       	push   0x10f78c
  100848:	e8 4f 89 00 00       	call   10919c <vga_printf>
  10084d:	83 c4 10             	add    esp,0x10
  100850:	eb 39                	jmp    10088b <CMD_METHOD_KILL+0xb3>
  100852:	83 ec 08             	sub    esp,0x8
  100855:	6a 0a                	push   0xa
  100857:	68 ab f7 10 00       	push   0x10f7ab
  10085c:	e8 4a 84 00 00       	call   108cab <vga_write_fg>
  100861:	83 c4 10             	add    esp,0x10
  100864:	83 ec 08             	sub    esp,0x8
  100867:	ff 75 f4             	push   DWORD PTR [ebp-0xc]
  10086a:	68 be f7 10 00       	push   0x10f7be
  10086f:	e8 28 89 00 00       	call   10919c <vga_printf>
  100874:	83 c4 10             	add    esp,0x10
  100877:	eb 12                	jmp    10088b <CMD_METHOD_KILL+0xb3>
  100879:	83 ec 08             	sub    esp,0x8
  10087c:	6a 0c                	push   0xc
  10087e:	68 c2 f7 10 00       	push   0x10f7c2
  100883:	e8 01 85 00 00       	call   108d89 <vga_writeln_fg>
  100888:	83 c4 10             	add    esp,0x10
  10088b:	c9                   	leave  
  10088c:	c3                   	ret    

0010088d <thread_test>:
  10088d:	55                   	push   ebp
  10088e:	89 e5                	mov    ebp,esp
  100890:	83 ec 08             	sub    esp,0x8
  100893:	e8 e1 70 00 00       	call   107979 <tlock>
  100898:	83 ec 0c             	sub    esp,0xc
  10089b:	68 0e fc 10 00       	push   0x10fc0e
  1008a0:	e8 f7 88 00 00       	call   10919c <vga_printf>
  1008a5:	83 c4 10             	add    esp,0x10
  1008a8:	83 ec 0c             	sub    esp,0xc
  1008ab:	68 1b fc 10 00       	push   0x10fc1b
  1008b0:	e8 e7 88 00 00       	call   10919c <vga_printf>
  1008b5:	83 c4 10             	add    esp,0x10
  1008b8:	e8 cb 70 00 00       	call   107988 <tunlock>
  1008bd:	eb fe                	jmp    1008bd <thread_test+0x30>

001008bf <CMD_METHOD_TESTTHREAD>:
  1008bf:	55                   	push   ebp
  1008c0:	89 e5                	mov    ebp,esp
  1008c2:	83 ec 18             	sub    esp,0x18
  1008c5:	e8 af 70 00 00       	call   107979 <tlock>
  1008ca:	83 ec 08             	sub    esp,0x8
  1008cd:	68 00 20 00 00       	push   0x2000
  1008d2:	68 8d 08 10 00       	push   0x10088d
  1008d7:	e8 27 75 00 00       	call   107e03 <thread_create>
  1008dc:	83 c4 10             	add    esp,0x10
  1008df:	89 45 f4             	mov    DWORD PTR [ebp-0xc],eax
  1008e2:	83 ec 0c             	sub    esp,0xc
  1008e5:	68 32 fc 10 00       	push   0x10fc32
  1008ea:	e8 8e 0e 00 00       	call   10177d <debug_info>
  1008ef:	83 c4 10             	add    esp,0x10
  1008f2:	e8 91 70 00 00       	call   107988 <tunlock>
  1008f7:	90                   	nop
  1008f8:	c9                   	leave  
  1008f9:	c3                   	ret    

001008fa <CMD_METHOD_THREADS>:
  1008fa:	55                   	push   ebp
  1008fb:	89 e5                	mov    ebp,esp
  1008fd:	53                   	push   ebx
  1008fe:	83 ec 14             	sub    esp,0x14
  100901:	c7 45 ec 00 00 00 00 	mov    DWORD PTR [ebp-0x14],0x0
  100908:	83 ec 0c             	sub    esp,0xc
  10090b:	8d 45 ec             	lea    eax,[ebp-0x14]
  10090e:	50                   	push   eax
  10090f:	e8 95 73 00 00       	call   107ca9 <taskmgr_get_threads>
  100914:	83 c4 10             	add    esp,0x10
  100917:	89 45 f0             	mov    DWORD PTR [ebp-0x10],eax
  10091a:	c7 45 f4 00 00 00 00 	mov    DWORD PTR [ebp-0xc],0x0
  100921:	eb 6e                	jmp    100991 <CMD_METHOD_THREADS+0x97>
  100923:	8b 45 f4             	mov    eax,DWORD PTR [ebp-0xc]
  100926:	8d 14 85 00 00 00 00 	lea    edx,[eax*4+0x0]
  10092d:	8b 45 f0             	mov    eax,DWORD PTR [ebp-0x10]
  100930:	01 d0                	add    eax,edx
  100932:	8b 00                	mov    eax,DWORD PTR [eax]
  100934:	0f b6 40 31          	movzx  eax,BYTE PTR [eax+0x31]
  100938:	84 c0                	test   al,al
  10093a:	75 50                	jne    10098c <CMD_METHOD_THREADS+0x92>
  10093c:	8b 45 f4             	mov    eax,DWORD PTR [ebp-0xc]
  10093f:	8d 14 85 00 00 00 00 	lea    edx,[eax*4+0x0]
  100946:	8b 45 f0             	mov    eax,DWORD PTR [ebp-0x10]
  100949:	01 d0                	add    eax,edx
  10094b:	8b 00                	mov    eax,DWORD PTR [eax]
  10094d:	8b 50 2c             	mov    edx,DWORD PTR [eax+0x2c]
  100950:	8b 45 f4             	mov    eax,DWORD PTR [ebp-0xc]
  100953:	8d 0c 85 00 00 00 00 	lea    ecx,[eax*4+0x0]
  10095a:	8b 45 f0             	mov    eax,DWORD PTR [ebp-0x10]
  10095d:	01 c8                	add    eax,ecx
  10095f:	8b 00                	mov    eax,DWORD PTR [eax]
  100961:	8b 40 28             	mov    eax,DWORD PTR [eax+0x28]
  100964:	89 c3                	mov    ebx,eax
  100966:	8b 45 f4             	mov    eax,DWORD PTR [ebp-0xc]
  100969:	8d 0c 85 00 00 00 00 	lea    ecx,[eax*4+0x0]
  100970:	8b 45 f0             	mov    eax,DWORD PTR [ebp-0x10]
  100973:	01 c8                	add    eax,ecx
  100975:	8b 00                	mov    eax,DWORD PTR [eax]
  100977:	8b 40 24             	mov    eax,DWORD PTR [eax+0x24]
  10097a:	52                   	push   edx
  10097b:	53                   	push   ebx
  10097c:	50                   	push   eax
  10097d:	68 70 00 11 00       	push   0x110070
  100982:	e8 15 88 00 00       	call   10919c <vga_printf>
  100987:	83 c4 10             	add    esp,0x10
  10098a:	eb 01                	jmp    10098d <CMD_METHOD_THREADS+0x93>
  10098c:	90                   	nop
  10098d:	83 45 f4 01          	add    DWORD PTR [ebp-0xc],0x1
  100991:	8b 45 ec             	mov    eax,DWORD PTR [ebp-0x14]
  100994:	39 45 f4             	cmp    DWORD PTR [ebp-0xc],eax
  100997:	72 8a                	jb     100923 <CMD_METHOD_THREADS+0x29>
  100999:	83 ec 0c             	sub    esp,0xc
  10099c:	ff 75 f0             	push   DWORD PTR [ebp-0x10]
  10099f:	e8 67 42 00 00       	call   104c0b <free>
  1009a4:	83 c4 10             	add    esp,0x10
  1009a7:	90                   	nop
  1009a8:	8b 5d fc             	mov    ebx,DWORD PTR [ebp-0x4]
  1009ab:	c9                   	leave  
  1009ac:	c3                   	ret    

001009ad <powd>:
  1009ad:	55                   	push   ebp
  1009ae:	89 e5                	mov    ebp,esp
  1009b0:	83 ec 28             	sub    esp,0x28
  1009b3:	8b 45 08             	mov    eax,DWORD PTR [ebp+0x8]
  1009b6:	89 45 e0             	mov    DWORD PTR [ebp-0x20],eax
  1009b9:	8b 45 0c             	mov    eax,DWORD PTR [ebp+0xc]
  1009bc:	89 45 e4             	mov    DWORD PTR [ebp-0x1c],eax
  1009bf:	83 7d 10 00          	cmp    DWORD PTR [ebp+0x10],0x0
  1009c3:	75 04                	jne    1009c9 <powd+0x1c>
  1009c5:	d9 e8                	fld1   
  1009c7:	eb 4d                	jmp    100a16 <powd+0x69>
  1009c9:	8b 45 10             	mov    eax,DWORD PTR [ebp+0x10]
  1009cc:	89 c2                	mov    edx,eax
  1009ce:	c1 ea 1f             	shr    edx,0x1f
  1009d1:	01 d0                	add    eax,edx
  1009d3:	d1 f8                	sar    eax,1
  1009d5:	83 ec 04             	sub    esp,0x4
  1009d8:	50                   	push   eax
  1009d9:	ff 75 e4             	push   DWORD PTR [ebp-0x1c]
  1009dc:	ff 75 e0             	push   DWORD PTR [ebp-0x20]
  1009df:	e8 c9 ff ff ff       	call   1009ad <powd>
  1009e4:	83 c4 10             	add    esp,0x10
  1009e7:	dd 5d f0             	fstp   QWORD PTR [ebp-0x10]
  1009ea:	8b 45 10             	mov    eax,DWORD PTR [ebp+0x10]
  1009ed:	83 e0 01             	and    eax,0x1
  1009f0:	85 c0                	test   eax,eax
  1009f2:	75 08                	jne    1009fc <powd+0x4f>
  1009f4:	dd 45 f0             	fld    QWORD PTR [ebp-0x10]
  1009f7:	dc 4d f0             	fmul   QWORD PTR [ebp-0x10]
  1009fa:	eb 1a                	jmp    100a16 <powd+0x69>
  1009fc:	83 7d 10 00          	cmp    DWORD PTR [ebp+0x10],0x0
  100a00:	7e 0b                	jle    100a0d <powd+0x60>
  100a02:	dd 45 e0             	fld    QWORD PTR [ebp-0x20]
  100a05:	dc 4d f0             	fmul   QWORD PTR [ebp-0x10]
  100a08:	dc 4d f0             	fmul   QWORD PTR [ebp-0x10]
  100a0b:	eb 09                	jmp    100a16 <powd+0x69>
  100a0d:	dd 45 f0             	fld    QWORD PTR [ebp-0x10]
  100a10:	dc 4d f0             	fmul   QWORD PTR [ebp-0x10]
  100a13:	dc 75 e0             	fdiv   QWORD PTR [ebp-0x20]
  100a16:	c9                   	leave  
  100a17:	c3                   	ret    

00100a18 <isalnum>:
  100a18:	55                   	push   ebp
  100a19:	89 e5                	mov    ebp,esp
  100a1b:	83 7d 08 40          	cmp    DWORD PTR [ebp+0x8],0x40
  100a1f:	7e 0d                	jle    100a2e <isalnum+0x16>
  100a21:	83 7d 08 5a          	cmp    DWORD PTR [ebp+0x8],0x5a
  100a25:	7f 07                	jg     100a2e <isalnum+0x16>
  100a27:	b8 01 00 00 00       	mov    eax,0x1
  100a2c:	eb 2b                	jmp    100a59 <isalnum+0x41>
  100a2e:	83 7d 08 60          	cmp    DWORD PTR [ebp+0x8],0x60
  100a32:	7e 0d                	jle    100a41 <isalnum+0x29>
  100a34:	83 7d 08 7a          	cmp    DWORD PTR [ebp+0x8],0x7a
  100a38:	7f 07                	jg     100a41 <isalnum+0x29>
  100a3a:	b8 01 00 00 00       	mov    eax,0x1
  100a3f:	eb 18                	jmp    100a59 <isalnum+0x41>
  100a41:	83 7d 08 2f          	cmp    DWORD PTR [ebp+0x8],0x2f
  100a45:	7e 0d                	jle    100a54 <isalnum+0x3c>
  100a47:	83 7d 08 39          	cmp    DWORD PTR [ebp+0x8],0x39
  100a4b:	7f 07                	jg     100a54 <isalnum+0x3c>
  100a4d:	b8 01 00 00 00       	mov    eax,0x1
  100a52:	eb 05                	jmp    100a59 <isalnum+0x41>
  100a54:	b8 00 00 00 00       	mov    eax,0x0
  100a59:	5d                   	pop    ebp
  100a5a:	c3                   	ret    

00100a5b <isalpha>:
  100a5b:	55                   	push   ebp
  100a5c:	89 e5                	mov    ebp,esp
  100a5e:	83 7d 08 40          	cmp    DWORD PTR [ebp+0x8],0x40
  100a62:	7e 0d                	jle    100a71 <isalpha+0x16>
  100a64:	83 7d 08 5a          	cmp    DWORD PTR [ebp+0x8],0x5a
  100a68:	7f 07                	jg     100a71 <isalpha+0x16>
  100a6a:	b8 01 00 00 00       	mov    eax,0x1
  100a6f:	eb 18                	jmp    100a89 <isalpha+0x2e>
  100a71:	83 7d 08 60          	cmp    DWORD PTR [ebp+0x8],0x60
  100a75:	7e 0d                	jle    100a84 <isalpha+0x29>
  100a77:	83 7d 08 7a          	cmp    DWORD PTR [ebp+0x8],0x7a
  100a7b:	7f 07                	jg     100a84 <isalpha+0x29>
  100a7d:	b8 01 00 00 00       	mov    eax,0x1
  100a82:	eb 05                	jmp    100a89 <isalpha+0x2e>
  100a84:	b8 00 00 00 00       	mov    eax,0x0
  100a89:	5d                   	pop    ebp
  100a8a:	c3                   	ret    

00100a8b <iscntrl>:
  100a8b:	55                   	push   ebp
  100a8c:	89 e5                	mov    ebp,esp
  100a8e:	83 7d 08 00          	cmp    DWORD PTR [ebp+0x8],0x0
  100a92:	78 0d                	js     100aa1 <iscntrl+0x16>
  100a94:	83 7d 08 1f          	cmp    DWORD PTR [ebp+0x8],0x1f
  100a98:	7f 07                	jg     100aa1 <iscntrl+0x16>
  100a9a:	b8 01 00 00 00       	mov    eax,0x1
  100a9f:	eb 12                	jmp    100ab3 <iscntrl+0x28>
  100aa1:	83 7d 08 7f          	cmp    DWORD PTR [ebp+0x8],0x7f
  100aa5:	75 07                	jne    100aae <iscntrl+0x23>
  100aa7:	b8 01 00 00 00       	mov    eax,0x1
  100aac:	eb 05                	jmp    100ab3 <iscntrl+0x28>
  100aae:	b8 00 00 00 00       	mov    eax,0x0
  100ab3:	5d                   	pop    ebp
  100ab4:	c3                   	ret    

00100ab5 <isdigit>:
  100ab5:	55                   	push   ebp
  100ab6:	89 e5                	mov    ebp,esp
  100ab8:	83 7d 08 2f          	cmp    DWORD PTR [ebp+0x8],0x2f
  100abc:	7e 0d                	jle    100acb <isdigit+0x16>
  100abe:	83 7d 08 39          	cmp    DWORD PTR [ebp+0x8],0x39
  100ac2:	7f 07                	jg     100acb <isdigit+0x16>
  100ac4:	b8 01 00 00 00       	mov    eax,0x1
  100ac9:	eb 05                	jmp    100ad0 <isdigit+0x1b>
  100acb:	b8 00 00 00 00       	mov    eax,0x0
  100ad0:	5d                   	pop    ebp
  100ad1:	c3                   	ret    

00100ad2 <isgraph>:
  100ad2:	55                   	push   ebp
  100ad3:	89 e5                	mov    ebp,esp
  100ad5:	83 ec 08             	sub    esp,0x8
  100ad8:	83 7d 08 20          	cmp    DWORD PTR [ebp+0x8],0x20
  100adc:	75 07                	jne    100ae5 <isgraph+0x13>
  100ade:	b8 00 00 00 00       	mov    eax,0x0
  100ae3:	eb 1e                	jmp    100b03 <isgraph+0x31>
  100ae5:	83 ec 0c             	sub    esp,0xc
  100ae8:	ff 75 08             	push   DWORD PTR [ebp+0x8]
  100aeb:	e8 32 00 00 00       	call   100b22 <isprint>
  100af0:	83 c4 10             	add    esp,0x10
  100af3:	85 c0                	test   eax,eax
  100af5:	74 07                	je     100afe <isgraph+0x2c>
  100af7:	b8 01 00 00 00       	mov    eax,0x1
  100afc:	eb 05                	jmp    100b03 <isgraph+0x31>
  100afe:	b8 00 00 00 00       	mov    eax,0x0
  100b03:	c9                   	leave  
  100b04:	c3                   	ret    

00100b05 <islower>:
  100b05:	55                   	push   ebp
  100b06:	89 e5                	mov    ebp,esp
  100b08:	83 7d 08 60          	cmp    DWORD PTR [ebp+0x8],0x60
  100b0c:	7e 0d                	jle    100b1b <islower+0x16>
  100b0e:	83 7d 08 7a          	cmp    DWORD PTR [ebp+0x8],0x7a
  100b12:	7f 07                	jg     100b1b <islower+0x16>
  100b14:	b8 01 00 00 00       	mov    eax,0x1
  100b19:	eb 05                	jmp    100b20 <islower+0x1b>
  100b1b:	b8 00 00 00 00       	mov    eax,0x0
  100b20:	5d                   	pop    ebp
  100b21:	c3                   	ret    

00100b22 <isprint>:
  100b22:	55                   	push   ebp
  100b23:	89 e5                	mov    ebp,esp
  100b25:	ff 75 08             	push   DWORD PTR [ebp+0x8]
  100b28:	e8 5e ff ff ff       	call   100a8b <iscntrl>
  100b2d:	83 c4 04             	add    esp,0x4
  100b30:	85 c0                	test   eax,eax
  100b32:	75 07                	jne    100b3b <isprint+0x19>
  100b34:	b8 01 00 00 00       	mov    eax,0x1
  100b39:	eb 05                	jmp    100b40 <isprint+0x1e>
  100b3b:	b8 00 00 00 00       	mov    eax,0x0
  100b40:	c9                   	leave  
  100b41:	c3                   	ret    

00100b42 <ispunct>:
  100b42:	55                   	push   ebp
  100b43:	89 e5                	mov    ebp,esp
  100b45:	83 ec 10             	sub    esp,0x10
  100b48:	c7 45 fc 00 00 00 00 	mov    DWORD PTR [ebp-0x4],0x0
  100b4f:	eb 1e                	jmp    100b6f <ispunct+0x2d>
  100b51:	8b 45 fc             	mov    eax,DWORD PTR [ebp-0x4]
  100b54:	05 20 05 11 00       	add    eax,0x110520
  100b59:	0f b6 00             	movzx  eax,BYTE PTR [eax]
  100b5c:	0f be c0             	movsx  eax,al
  100b5f:	39 45 08             	cmp    DWORD PTR [ebp+0x8],eax
  100b62:	75 07                	jne    100b6b <ispunct+0x29>
  100b64:	b8 01 00 00 00       	mov    eax,0x1
  100b69:	eb 0f                	jmp    100b7a <ispunct+0x38>
  100b6b:	83 45 fc 01          	add    DWORD PTR [ebp-0x4],0x1
  100b6f:	83 7d fc 1f          	cmp    DWORD PTR [ebp-0x4],0x1f
  100b73:	76 dc                	jbe    100b51 <ispunct+0xf>
  100b75:	b8 00 00 00 00       	mov    eax,0x0
  100b7a:	c9                   	leave  
  100b7b:	c3                   	ret    

00100b7c <isspace>:
  100b7c:	55                   	push   ebp
  100b7d:	89 e5                	mov    ebp,esp
  100b7f:	83 7d 08 09          	cmp    DWORD PTR [ebp+0x8],0x9
  100b83:	74 0c                	je     100b91 <isspace+0x15>
  100b85:	83 7d 08 09          	cmp    DWORD PTR [ebp+0x8],0x9
  100b89:	7e 0d                	jle    100b98 <isspace+0x1c>
  100b8b:	83 7d 08 0d          	cmp    DWORD PTR [ebp+0x8],0xd
  100b8f:	7f 07                	jg     100b98 <isspace+0x1c>
  100b91:	b8 01 00 00 00       	mov    eax,0x1
  100b96:	eb 12                	jmp    100baa <isspace+0x2e>
  100b98:	83 7d 08 20          	cmp    DWORD PTR [ebp+0x8],0x20
  100b9c:	75 07                	jne    100ba5 <isspace+0x29>
  100b9e:	b8 01 00 00 00       	mov    eax,0x1
  100ba3:	eb 05                	jmp    100baa <isspace+0x2e>
  100ba5:	b8 00 00 00 00       	mov    eax,0x0
  100baa:	5d                   	pop    ebp
  100bab:	c3                   	ret    

00100bac <isupper>:
  100bac:	55                   	push   ebp
  100bad:	89 e5                	mov    ebp,esp
  100baf:	83 7d 08 40          	cmp    DWORD PTR [ebp+0x8],0x40
  100bb3:	7e 0d                	jle    100bc2 <isupper+0x16>
  100bb5:	83 7d 08 5a          	cmp    DWORD PTR [ebp+0x8],0x5a
  100bb9:	7f 07                	jg     100bc2 <isupper+0x16>
  100bbb:	b8 01 00 00 00       	mov    eax,0x1
  100bc0:	eb 05                	jmp    100bc7 <isupper+0x1b>
  100bc2:	b8 00 00 00 00       	mov    eax,0x0
  100bc7:	5d                   	pop    ebp
  100bc8:	c3                   	ret    

00100bc9 <isxdigit>:
  100bc9:	55                   	push   ebp
  100bca:	89 e5                	mov    ebp,esp
  100bcc:	83 7d 08 40          	cmp    DWORD PTR [ebp+0x8],0x40
  100bd0:	7e 0d                	jle    100bdf <isxdigit+0x16>
  100bd2:	83 7d 08 46          	cmp    DWORD PTR [ebp+0x8],0x46
  100bd6:	7f 07                	jg     100bdf <isxdigit+0x16>
  100bd8:	b8 01 00 00 00       	mov    eax,0x1
  100bdd:	eb 2b                	jmp    100c0a <isxdigit+0x41>
  100bdf:	83 7d 08 60          	cmp    DWORD PTR [ebp+0x8],0x60
  100be3:	7e 0d                	jle    100bf2 <isxdigit+0x29>
  100be5:	83 7d 08 66          	cmp    DWORD PTR [ebp+0x8],0x66
  100be9:	7f 07                	jg     100bf2 <isxdigit+0x29>
  100beb:	b8 01 00 00 00       	mov    eax,0x1
  100bf0:	eb 18                	jmp    100c0a <isxdigit+0x41>
  100bf2:	83 7d 08 2f          	cmp    DWORD PTR [ebp+0x8],0x2f
  100bf6:	7e 0d                	jle    100c05 <isxdigit+0x3c>
  100bf8:	83 7d 08 39          	cmp    DWORD PTR [ebp+0x8],0x39
  100bfc:	7f 07                	jg     100c05 <isxdigit+0x3c>
  100bfe:	b8 01 00 00 00       	mov    eax,0x1
  100c03:	eb 05                	jmp    100c0a <isxdigit+0x41>
  100c05:	b8 00 00 00 00       	mov    eax,0x0
  100c0a:	5d                   	pop    ebp
  100c0b:	c3                   	ret    

00100c0c <tolower>:
  100c0c:	55                   	push   ebp
  100c0d:	89 e5                	mov    ebp,esp
  100c0f:	83 7d 08 40          	cmp    DWORD PTR [ebp+0x8],0x40
  100c13:	7e 0e                	jle    100c23 <tolower+0x17>
  100c15:	83 7d 08 5a          	cmp    DWORD PTR [ebp+0x8],0x5a
  100c19:	7f 08                	jg     100c23 <tolower+0x17>
  100c1b:	8b 45 08             	mov    eax,DWORD PTR [ebp+0x8]
  100c1e:	83 c0 20             	add    eax,0x20
  100c21:	eb 03                	jmp    100c26 <tolower+0x1a>
  100c23:	8b 45 08             	mov    eax,DWORD PTR [ebp+0x8]
  100c26:	5d                   	pop    ebp
  100c27:	c3                   	ret    

00100c28 <toupper>:
  100c28:	55                   	push   ebp
  100c29:	89 e5                	mov    ebp,esp
  100c2b:	83 7d 08 60          	cmp    DWORD PTR [ebp+0x8],0x60
  100c2f:	7e 0e                	jle    100c3f <toupper+0x17>
  100c31:	83 7d 08 7a          	cmp    DWORD PTR [ebp+0x8],0x7a
  100c35:	7f 08                	jg     100c3f <toupper+0x17>
  100c37:	8b 45 08             	mov    eax,DWORD PTR [ebp+0x8]
  100c3a:	83 e8 20             	sub    eax,0x20
  100c3d:	eb 03                	jmp    100c42 <toupper+0x1a>
  100c3f:	8b 45 08             	mov    eax,DWORD PTR [ebp+0x8]
  100c42:	5d                   	pop    ebp
  100c43:	c3                   	ret    

00100c44 <strrevl>:
  100c44:	55                   	push   ebp
  100c45:	89 e5                	mov    ebp,esp
  100c47:	83 ec 10             	sub    esp,0x10
  100c4a:	c7 45 fc 00 00 00 00 	mov    DWORD PTR [ebp-0x4],0x0
  100c51:	8b 45 0c             	mov    eax,DWORD PTR [ebp+0xc]
  100c54:	83 e8 01             	sub    eax,0x1
  100c57:	89 45 f8             	mov    DWORD PTR [ebp-0x8],eax
  100c5a:	eb 3b                	jmp    100c97 <strrevl+0x53>
  100c5c:	8b 55 fc             	mov    edx,DWORD PTR [ebp-0x4]
  100c5f:	8b 45 08             	mov    eax,DWORD PTR [ebp+0x8]
  100c62:	01 d0                	add    eax,edx
  100c64:	0f b6 00             	movzx  eax,BYTE PTR [eax]
  100c67:	0f be c0             	movsx  eax,al
  100c6a:	89 45 f4             	mov    DWORD PTR [ebp-0xc],eax
  100c6d:	8b 55 f8             	mov    edx,DWORD PTR [ebp-0x8]
  100c70:	8b 45 08             	mov    eax,DWORD PTR [ebp+0x8]
  100c73:	01 d0                	add    eax,edx
  100c75:	8b 4d fc             	mov    ecx,DWORD PTR [ebp-0x4]
  100c78:	8b 55 08             	mov    edx,DWORD PTR [ebp+0x8]
  100c7b:	01 ca                	add    edx,ecx
  100c7d:	0f b6 00             	movzx  eax,BYTE PTR [eax]
  100c80:	88 02                	mov    BYTE PTR [edx],al
  100c82:	8b 55 f8             	mov    edx,DWORD PTR [ebp-0x8]
  100c85:	8b 45 08             	mov    eax,DWORD PTR [ebp+0x8]
  100c88:	01 d0                	add    eax,edx
  100c8a:	8b 55 f4             	mov    edx,DWORD PTR [ebp-0xc]
  100c8d:	88 10                	mov    BYTE PTR [eax],dl
  100c8f:	83 45 fc 01          	add    DWORD PTR [ebp-0x4],0x1
  100c93:	83 6d f8 01          	sub    DWORD PTR [ebp-0x8],0x1
  100c97:	8b 45 fc             	mov    eax,DWORD PTR [ebp-0x4]
  100c9a:	3b 45 f8             	cmp    eax,DWORD PTR [ebp-0x8]
  100c9d:	7c bd                	jl     100c5c <strrevl+0x18>
  100c9f:	90                   	nop
  100ca0:	c9                   	leave  
  100ca1:	c3                   	ret    

00100ca2 <int2str>:
  100ca2:	55                   	push   ebp
  100ca3:	89 e5                	mov    ebp,esp
  100ca5:	83 ec 10             	sub    esp,0x10
  100ca8:	c7 45 fc 00 00 00 00 	mov    DWORD PTR [ebp-0x4],0x0
  100caf:	eb 57                	jmp    100d08 <int2str+0x66>
  100cb1:	8b 4d 08             	mov    ecx,DWORD PTR [ebp+0x8]
  100cb4:	ba 67 66 66 66       	mov    edx,0x66666667
  100cb9:	89 c8                	mov    eax,ecx
  100cbb:	f7 ea                	imul   edx
  100cbd:	c1 fa 02             	sar    edx,0x2
  100cc0:	89 c8                	mov    eax,ecx
  100cc2:	c1 f8 1f             	sar    eax,0x1f
  100cc5:	29 c2                	sub    edx,eax
  100cc7:	89 d0                	mov    eax,edx
  100cc9:	c1 e0 02             	shl    eax,0x2
  100ccc:	01 d0                	add    eax,edx
  100cce:	01 c0                	add    eax,eax
  100cd0:	29 c1                	sub    ecx,eax
  100cd2:	89 ca                	mov    edx,ecx
  100cd4:	89 d0                	mov    eax,edx
  100cd6:	8d 48 30             	lea    ecx,[eax+0x30]
  100cd9:	8b 45 fc             	mov    eax,DWORD PTR [ebp-0x4]
  100cdc:	8d 50 01             	lea    edx,[eax+0x1]
  100cdf:	89 55 fc             	mov    DWORD PTR [ebp-0x4],edx
  100ce2:	89 c2                	mov    edx,eax
  100ce4:	8b 45 0c             	mov    eax,DWORD PTR [ebp+0xc]
  100ce7:	01 d0                	add    eax,edx
  100ce9:	89 ca                	mov    edx,ecx
  100ceb:	88 10                	mov    BYTE PTR [eax],dl
  100ced:	8b 4d 08             	mov    ecx,DWORD PTR [ebp+0x8]
  100cf0:	ba 67 66 66 66       	mov    edx,0x66666667
  100cf5:	89 c8                	mov    eax,ecx
  100cf7:	f7 ea                	imul   edx
  100cf9:	c1 fa 02             	sar    edx,0x2
  100cfc:	89 c8                	mov    eax,ecx
  100cfe:	c1 f8 1f             	sar    eax,0x1f
  100d01:	29 c2                	sub    edx,eax
  100d03:	89 d0                	mov    eax,edx
  100d05:	89 45 08             	mov    DWORD PTR [ebp+0x8],eax
  100d08:	83 7d 08 00          	cmp    DWORD PTR [ebp+0x8],0x0
  100d0c:	75 a3                	jne    100cb1 <int2str+0xf>
  100d0e:	eb 13                	jmp    100d23 <int2str+0x81>
  100d10:	8b 45 fc             	mov    eax,DWORD PTR [ebp-0x4]
  100d13:	8d 50 01             	lea    edx,[eax+0x1]
  100d16:	89 55 fc             	mov    DWORD PTR [ebp-0x4],edx
  100d19:	89 c2                	mov    edx,eax
  100d1b:	8b 45 0c             	mov    eax,DWORD PTR [ebp+0xc]
  100d1e:	01 d0                	add    eax,edx
  100d20:	c6 00 30             	mov    BYTE PTR [eax],0x30
  100d23:	8b 45 fc             	mov    eax,DWORD PTR [ebp-0x4]
  100d26:	3b 45 10             	cmp    eax,DWORD PTR [ebp+0x10]
  100d29:	7c e5                	jl     100d10 <int2str+0x6e>
  100d2b:	ff 75 fc             	push   DWORD PTR [ebp-0x4]
  100d2e:	ff 75 0c             	push   DWORD PTR [ebp+0xc]
  100d31:	e8 0e ff ff ff       	call   100c44 <strrevl>
  100d36:	83 c4 08             	add    esp,0x8
  100d39:	8b 55 fc             	mov    edx,DWORD PTR [ebp-0x4]
  100d3c:	8b 45 0c             	mov    eax,DWORD PTR [ebp+0xc]
  100d3f:	01 d0                	add    eax,edx
  100d41:	c6 00 00             	mov    BYTE PTR [eax],0x0
  100d44:	8b 45 fc             	mov    eax,DWORD PTR [ebp-0x4]
  100d47:	c9                   	leave  
  100d48:	c3                   	ret    

00100d49 <ftoa>:
  100d49:	55                   	push   ebp
  100d4a:	89 e5                	mov    ebp,esp
  100d4c:	83 ec 38             	sub    esp,0x38
  100d4f:	d9 45 08             	fld    DWORD PTR [ebp+0x8]
  100d52:	d9 7d e2             	fnstcw WORD PTR [ebp-0x1e]
  100d55:	0f b7 45 e2          	movzx  eax,WORD PTR [ebp-0x1e]
  100d59:	b4 0c                	mov    ah,0xc
  100d5b:	66 89 45 e0          	mov    WORD PTR [ebp-0x20],ax
  100d5f:	d9 6d e0             	fldcw  WORD PTR [ebp-0x20]
  100d62:	db 5d f4             	fistp  DWORD PTR [ebp-0xc]
  100d65:	d9 6d e2             	fldcw  WORD PTR [ebp-0x1e]
  100d68:	db 45 f4             	fild   DWORD PTR [ebp-0xc]
  100d6b:	d9 45 08             	fld    DWORD PTR [ebp+0x8]
  100d6e:	de e1                	fsubrp st(1),st
  100d70:	d9 5d f0             	fstp   DWORD PTR [ebp-0x10]
  100d73:	6a 00                	push   0x0
  100d75:	ff 75 0c             	push   DWORD PTR [ebp+0xc]
  100d78:	ff 75 f4             	push   DWORD PTR [ebp-0xc]
  100d7b:	e8 22 ff ff ff       	call   100ca2 <int2str>
  100d80:	83 c4 0c             	add    esp,0xc
  100d83:	89 45 ec             	mov    DWORD PTR [ebp-0x14],eax
  100d86:	83 7d 10 00          	cmp    DWORD PTR [ebp+0x10],0x0
  100d8a:	74 69                	je     100df5 <ftoa+0xac>
  100d8c:	8b 55 ec             	mov    edx,DWORD PTR [ebp-0x14]
  100d8f:	8b 45 0c             	mov    eax,DWORD PTR [ebp+0xc]
  100d92:	01 d0                	add    eax,edx
  100d94:	c6 00 2e             	mov    BYTE PTR [eax],0x2e
  100d97:	d9 45 f0             	fld    DWORD PTR [ebp-0x10]
  100d9a:	dd 5d d0             	fstp   QWORD PTR [ebp-0x30]
  100d9d:	83 ec 04             	sub    esp,0x4
  100da0:	ff 75 10             	push   DWORD PTR [ebp+0x10]
  100da3:	dd 05 90 05 11 00    	fld    QWORD PTR ds:0x110590
  100da9:	8d 64 24 f8          	lea    esp,[esp-0x8]
  100dad:	dd 1c 24             	fstp   QWORD PTR [esp]
  100db0:	e8 f8 fb ff ff       	call   1009ad <powd>
  100db5:	83 c4 10             	add    esp,0x10
  100db8:	dc 4d d0             	fmul   QWORD PTR [ebp-0x30]
  100dbb:	d9 5d f0             	fstp   DWORD PTR [ebp-0x10]
  100dbe:	8b 45 ec             	mov    eax,DWORD PTR [ebp-0x14]
  100dc1:	8d 50 01             	lea    edx,[eax+0x1]
  100dc4:	8b 45 0c             	mov    eax,DWORD PTR [ebp+0xc]
  100dc7:	01 c2                	add    edx,eax
  100dc9:	d9 45 f0             	fld    DWORD PTR [ebp-0x10]
  100dcc:	d9 7d e2             	fnstcw WORD PTR [ebp-0x1e]
  100dcf:	0f b7 45 e2          	movzx  eax,WORD PTR [ebp-0x1e]
  100dd3:	b4 0c                	mov    ah,0xc
  100dd5:	66 89 45 e0          	mov    WORD PTR [ebp-0x20],ax
  100dd9:	d9 6d e0             	fldcw  WORD PTR [ebp-0x20]
  100ddc:	db 5d dc             	fistp  DWORD PTR [ebp-0x24]
  100ddf:	d9 6d e2             	fldcw  WORD PTR [ebp-0x1e]
  100de2:	8b 45 dc             	mov    eax,DWORD PTR [ebp-0x24]
  100de5:	83 ec 04             	sub    esp,0x4
  100de8:	ff 75 10             	push   DWORD PTR [ebp+0x10]
  100deb:	52                   	push   edx
  100dec:	50                   	push   eax
  100ded:	e8 b0 fe ff ff       	call   100ca2 <int2str>
  100df2:	83 c4 10             	add    esp,0x10
  100df5:	8b 45 0c             	mov    eax,DWORD PTR [ebp+0xc]
  100df8:	c9                   	leave  
  100df9:	c3                   	ret    

00100dfa <itoa>:
  100dfa:	55                   	push   ebp
  100dfb:	89 e5                	mov    ebp,esp
  100dfd:	83 ec 10             	sub    esp,0x10
  100e00:	83 7d 10 01          	cmp    DWORD PTR [ebp+0x10],0x1
  100e04:	7e 06                	jle    100e0c <itoa+0x12>
  100e06:	83 7d 10 24          	cmp    DWORD PTR [ebp+0x10],0x24
  100e0a:	7e 0e                	jle    100e1a <itoa+0x20>
  100e0c:	8b 45 0c             	mov    eax,DWORD PTR [ebp+0xc]
  100e0f:	c6 00 00             	mov    BYTE PTR [eax],0x0
  100e12:	8b 45 0c             	mov    eax,DWORD PTR [ebp+0xc]
  100e15:	e9 9e 00 00 00       	jmp    100eb8 <itoa+0xbe>
  100e1a:	8b 45 0c             	mov    eax,DWORD PTR [ebp+0xc]
  100e1d:	89 45 fc             	mov    DWORD PTR [ebp-0x4],eax
  100e20:	8b 45 0c             	mov    eax,DWORD PTR [ebp+0xc]
  100e23:	89 45 f8             	mov    DWORD PTR [ebp-0x8],eax
  100e26:	8b 45 08             	mov    eax,DWORD PTR [ebp+0x8]
  100e29:	89 45 f4             	mov    DWORD PTR [ebp-0xc],eax
  100e2c:	8b 45 08             	mov    eax,DWORD PTR [ebp+0x8]
  100e2f:	99                   	cdq    
  100e30:	f7 7d 10             	idiv   DWORD PTR [ebp+0x10]
  100e33:	89 45 08             	mov    DWORD PTR [ebp+0x8],eax
  100e36:	8b 15 e0 d2 10 00    	mov    edx,DWORD PTR ds:0x10d2e0
  100e3c:	8b 45 08             	mov    eax,DWORD PTR [ebp+0x8]
  100e3f:	0f af 45 10          	imul   eax,DWORD PTR [ebp+0x10]
  100e43:	8b 4d f4             	mov    ecx,DWORD PTR [ebp-0xc]
  100e46:	29 c1                	sub    ecx,eax
  100e48:	89 c8                	mov    eax,ecx
  100e4a:	83 c0 23             	add    eax,0x23
  100e4d:	8d 0c 02             	lea    ecx,[edx+eax*1]
  100e50:	8b 45 fc             	mov    eax,DWORD PTR [ebp-0x4]
  100e53:	8d 50 01             	lea    edx,[eax+0x1]
  100e56:	89 55 fc             	mov    DWORD PTR [ebp-0x4],edx
  100e59:	0f b6 11             	movzx  edx,BYTE PTR [ecx]
  100e5c:	88 10                	mov    BYTE PTR [eax],dl
  100e5e:	83 7d 08 00          	cmp    DWORD PTR [ebp+0x8],0x0
  100e62:	75 c2                	jne    100e26 <itoa+0x2c>
  100e64:	83 7d f4 00          	cmp    DWORD PTR [ebp-0xc],0x0
  100e68:	79 0c                	jns    100e76 <itoa+0x7c>
  100e6a:	8b 45 fc             	mov    eax,DWORD PTR [ebp-0x4]
  100e6d:	8d 50 01             	lea    edx,[eax+0x1]
  100e70:	89 55 fc             	mov    DWORD PTR [ebp-0x4],edx
  100e73:	c6 00 2d             	mov    BYTE PTR [eax],0x2d
  100e76:	8b 45 fc             	mov    eax,DWORD PTR [ebp-0x4]
  100e79:	8d 50 ff             	lea    edx,[eax-0x1]
  100e7c:	89 55 fc             	mov    DWORD PTR [ebp-0x4],edx
  100e7f:	c6 00 00             	mov    BYTE PTR [eax],0x0
  100e82:	eb 29                	jmp    100ead <itoa+0xb3>
  100e84:	8b 45 fc             	mov    eax,DWORD PTR [ebp-0x4]
  100e87:	0f b6 00             	movzx  eax,BYTE PTR [eax]
  100e8a:	88 45 f3             	mov    BYTE PTR [ebp-0xd],al
  100e8d:	8b 45 fc             	mov    eax,DWORD PTR [ebp-0x4]
  100e90:	8d 50 ff             	lea    edx,[eax-0x1]
  100e93:	89 55 fc             	mov    DWORD PTR [ebp-0x4],edx
  100e96:	8b 55 f8             	mov    edx,DWORD PTR [ebp-0x8]
  100e99:	0f b6 12             	movzx  edx,BYTE PTR [edx]
  100e9c:	88 10                	mov    BYTE PTR [eax],dl
  100e9e:	8b 45 f8             	mov    eax,DWORD PTR [ebp-0x8]
  100ea1:	8d 50 01             	lea    edx,[eax+0x1]
  100ea4:	89 55 f8             	mov    DWORD PTR [ebp-0x8],edx
  100ea7:	0f b6 55 f3          	movzx  edx,BYTE PTR [ebp-0xd]
  100eab:	88 10                	mov    BYTE PTR [eax],dl
  100ead:	8b 45 f8             	mov    eax,DWORD PTR [ebp-0x8]
  100eb0:	3b 45 fc             	cmp    eax,DWORD PTR [ebp-0x4]
  100eb3:	72 cf                	jb     100e84 <itoa+0x8a>
  100eb5:	8b 45 0c             	mov    eax,DWORD PTR [ebp+0xc]
  100eb8:	c9                   	leave  
  100eb9:	c3                   	ret    

00100eba <ultoa>:
  100eba:	55                   	push   ebp
  100ebb:	89 e5                	mov    ebp,esp
  100ebd:	53                   	push   ebx
  100ebe:	83 ec 14             	sub    esp,0x14
  100ec1:	89 e0                	mov    eax,esp
  100ec3:	89 c3                	mov    ebx,eax
  100ec5:	b8 20 00 00 00       	mov    eax,0x20
  100eca:	83 e8 01             	sub    eax,0x1
  100ecd:	89 45 f0             	mov    DWORD PTR [ebp-0x10],eax
  100ed0:	ba 20 00 00 00       	mov    edx,0x20
  100ed5:	b8 10 00 00 00       	mov    eax,0x10
  100eda:	83 e8 01             	sub    eax,0x1
  100edd:	01 d0                	add    eax,edx
  100edf:	b9 10 00 00 00       	mov    ecx,0x10
  100ee4:	ba 00 00 00 00       	mov    edx,0x0
  100ee9:	f7 f1                	div    ecx
  100eeb:	6b c0 10             	imul   eax,eax,0x10
  100eee:	29 c4                	sub    esp,eax
  100ef0:	89 e0                	mov    eax,esp
  100ef2:	83 c0 00             	add    eax,0x0
  100ef5:	89 45 ec             	mov    DWORD PTR [ebp-0x14],eax
  100ef8:	b8 20 00 00 00       	mov    eax,0x20
  100efd:	88 45 f7             	mov    BYTE PTR [ebp-0x9],al
  100f00:	8b 4d 10             	mov    ecx,DWORD PTR [ebp+0x10]
  100f03:	8b 45 08             	mov    eax,DWORD PTR [ebp+0x8]
  100f06:	ba 00 00 00 00       	mov    edx,0x0
  100f0b:	f7 f1                	div    ecx
  100f0d:	89 d0                	mov    eax,edx
  100f0f:	8d 50 30             	lea    edx,[eax+0x30]
  100f12:	80 6d f7 01          	sub    BYTE PTR [ebp-0x9],0x1
  100f16:	0f b6 45 f7          	movzx  eax,BYTE PTR [ebp-0x9]
  100f1a:	89 d1                	mov    ecx,edx
  100f1c:	8b 55 ec             	mov    edx,DWORD PTR [ebp-0x14]
  100f1f:	88 0c 02             	mov    BYTE PTR [edx+eax*1],cl
  100f22:	0f b6 45 f7          	movzx  eax,BYTE PTR [ebp-0x9]
  100f26:	8b 55 ec             	mov    edx,DWORD PTR [ebp-0x14]
  100f29:	0f b6 04 02          	movzx  eax,BYTE PTR [edx+eax*1]
  100f2d:	3c 39                	cmp    al,0x39
  100f2f:	7e 1a                	jle    100f4b <ultoa+0x91>
  100f31:	0f b6 45 f7          	movzx  eax,BYTE PTR [ebp-0x9]
  100f35:	8b 55 ec             	mov    edx,DWORD PTR [ebp-0x14]
  100f38:	0f b6 04 02          	movzx  eax,BYTE PTR [edx+eax*1]
  100f3c:	8d 50 07             	lea    edx,[eax+0x7]
  100f3f:	0f b6 45 f7          	movzx  eax,BYTE PTR [ebp-0x9]
  100f43:	89 d1                	mov    ecx,edx
  100f45:	8b 55 ec             	mov    edx,DWORD PTR [ebp-0x14]
  100f48:	88 0c 02             	mov    BYTE PTR [edx+eax*1],cl
  100f4b:	8b 4d 10             	mov    ecx,DWORD PTR [ebp+0x10]
  100f4e:	8b 45 08             	mov    eax,DWORD PTR [ebp+0x8]
  100f51:	ba 00 00 00 00       	mov    edx,0x0
  100f56:	f7 f1                	div    ecx
  100f58:	89 45 08             	mov    DWORD PTR [ebp+0x8],eax
  100f5b:	83 7d 08 00          	cmp    DWORD PTR [ebp+0x8],0x0
  100f5f:	75 9f                	jne    100f00 <ultoa+0x46>
  100f61:	0f b6 45 f7          	movzx  eax,BYTE PTR [ebp-0x9]
  100f65:	8d 50 01             	lea    edx,[eax+0x1]
  100f68:	88 55 f7             	mov    BYTE PTR [ebp-0x9],dl
  100f6b:	0f b6 d0             	movzx  edx,al
  100f6e:	8b 45 0c             	mov    eax,DWORD PTR [ebp+0xc]
  100f71:	8d 48 01             	lea    ecx,[eax+0x1]
  100f74:	89 4d 0c             	mov    DWORD PTR [ebp+0xc],ecx
  100f77:	8b 4d ec             	mov    ecx,DWORD PTR [ebp-0x14]
  100f7a:	0f b6 14 11          	movzx  edx,BYTE PTR [ecx+edx*1]
  100f7e:	88 10                	mov    BYTE PTR [eax],dl
  100f80:	0f b6 45 f7          	movzx  eax,BYTE PTR [ebp-0x9]
  100f84:	ba 20 00 00 00       	mov    edx,0x20
  100f89:	39 d0                	cmp    eax,edx
  100f8b:	72 d4                	jb     100f61 <ultoa+0xa7>
  100f8d:	8b 45 0c             	mov    eax,DWORD PTR [ebp+0xc]
  100f90:	c6 00 00             	mov    BYTE PTR [eax],0x0
  100f93:	89 dc                	mov    esp,ebx
  100f95:	90                   	nop
  100f96:	8b 5d fc             	mov    ebx,DWORD PTR [ebp-0x4]
  100f99:	c9                   	leave  
  100f9a:	c3                   	ret    

00100f9b <ltoa>:
  100f9b:	55                   	push   ebp
  100f9c:	89 e5                	mov    ebp,esp
  100f9e:	83 ec 08             	sub    esp,0x8
  100fa1:	83 ec 04             	sub    esp,0x4
  100fa4:	ff 75 10             	push   DWORD PTR [ebp+0x10]
  100fa7:	ff 75 0c             	push   DWORD PTR [ebp+0xc]
  100faa:	ff 75 08             	push   DWORD PTR [ebp+0x8]
  100fad:	e8 08 ff ff ff       	call   100eba <ultoa>
  100fb2:	83 c4 10             	add    esp,0x10
  100fb5:	8b 45 0c             	mov    eax,DWORD PTR [ebp+0xc]
  100fb8:	c9                   	leave  
  100fb9:	c3                   	ret    

00100fba <atof>:
  100fba:	55                   	push   ebp
  100fbb:	89 e5                	mov    ebp,esp
  100fbd:	d9 ee                	fldz   
  100fbf:	5d                   	pop    ebp
  100fc0:	c3                   	ret    

00100fc1 <atoi>:
  100fc1:	55                   	push   ebp
  100fc2:	89 e5                	mov    ebp,esp
  100fc4:	b8 00 00 00 00       	mov    eax,0x0
  100fc9:	5d                   	pop    ebp
  100fca:	c3                   	ret    

00100fcb <atol>:
  100fcb:	55                   	push   ebp
  100fcc:	89 e5                	mov    ebp,esp
  100fce:	83 ec 18             	sub    esp,0x18
  100fd1:	c7 45 f4 00 00 00 00 	mov    DWORD PTR [ebp-0xc],0x0
  100fd8:	eb 29                	jmp    101003 <atol+0x38>
  100fda:	8b 55 08             	mov    edx,DWORD PTR [ebp+0x8]
  100fdd:	8b 45 f4             	mov    eax,DWORD PTR [ebp-0xc]
  100fe0:	01 d0                	add    eax,edx
  100fe2:	0f b6 00             	movzx  eax,BYTE PTR [eax]
  100fe5:	3c 2f                	cmp    al,0x2f
  100fe7:	7e 0f                	jle    100ff8 <atol+0x2d>
  100fe9:	8b 55 08             	mov    edx,DWORD PTR [ebp+0x8]
  100fec:	8b 45 f4             	mov    eax,DWORD PTR [ebp-0xc]
  100fef:	01 d0                	add    eax,edx
  100ff1:	0f b6 00             	movzx  eax,BYTE PTR [eax]
  100ff4:	3c 39                	cmp    al,0x39
  100ff6:	7e 07                	jle    100fff <atol+0x34>
  100ff8:	b8 00 00 00 00       	mov    eax,0x0
  100ffd:	eb 61                	jmp    101060 <atol+0x95>
  100fff:	83 45 f4 01          	add    DWORD PTR [ebp-0xc],0x1
  101003:	83 ec 0c             	sub    esp,0xc
  101006:	ff 75 08             	push   DWORD PTR [ebp+0x8]
  101009:	e8 e2 5b 00 00       	call   106bf0 <strlen>
  10100e:	83 c4 10             	add    esp,0x10
  101011:	39 45 f4             	cmp    DWORD PTR [ebp-0xc],eax
  101014:	72 c4                	jb     100fda <atol+0xf>
  101016:	c7 45 f0 00 00 00 00 	mov    DWORD PTR [ebp-0x10],0x0
  10101d:	c7 45 ec 00 00 00 00 	mov    DWORD PTR [ebp-0x14],0x0
  101024:	eb 28                	jmp    10104e <atol+0x83>
  101026:	8b 55 f0             	mov    edx,DWORD PTR [ebp-0x10]
  101029:	89 d0                	mov    eax,edx
  10102b:	c1 e0 02             	shl    eax,0x2
  10102e:	01 d0                	add    eax,edx
  101030:	01 c0                	add    eax,eax
  101032:	89 c1                	mov    ecx,eax
  101034:	8b 55 ec             	mov    edx,DWORD PTR [ebp-0x14]
  101037:	8b 45 08             	mov    eax,DWORD PTR [ebp+0x8]
  10103a:	01 d0                	add    eax,edx
  10103c:	0f b6 00             	movzx  eax,BYTE PTR [eax]
  10103f:	0f be c0             	movsx  eax,al
  101042:	01 c8                	add    eax,ecx
  101044:	83 e8 30             	sub    eax,0x30
  101047:	89 45 f0             	mov    DWORD PTR [ebp-0x10],eax
  10104a:	83 45 ec 01          	add    DWORD PTR [ebp-0x14],0x1
  10104e:	8b 55 ec             	mov    edx,DWORD PTR [ebp-0x14]
  101051:	8b 45 08             	mov    eax,DWORD PTR [ebp+0x8]
  101054:	01 d0                	add    eax,edx
  101056:	0f b6 00             	movzx  eax,BYTE PTR [eax]
  101059:	84 c0                	test   al,al
  10105b:	75 c9                	jne    101026 <atol+0x5b>
  10105d:	8b 45 f0             	mov    eax,DWORD PTR [ebp-0x10]
  101060:	c9                   	leave  
  101061:	c3                   	ret    

00101062 <srand>:
  101062:	55                   	push   ebp
  101063:	89 e5                	mov    ebp,esp
  101065:	90                   	nop
  101066:	5d                   	pop    ebp
  101067:	c3                   	ret    

00101068 <rand>:
  101068:	55                   	push   ebp
  101069:	89 e5                	mov    ebp,esp
  10106b:	b8 00 00 00 00       	mov    eax,0x0
  101070:	5d                   	pop    ebp
  101071:	c3                   	ret    

00101072 <system>:
  101072:	55                   	push   ebp
  101073:	89 e5                	mov    ebp,esp
  101075:	b8 00 00 00 00       	mov    eax,0x0
  10107a:	5d                   	pop    ebp
  10107b:	c3                   	ret    

0010107c <getchar>:
  10107c:	55                   	push   ebp
  10107d:	89 e5                	mov    ebp,esp
  10107f:	b8 00 00 00 00       	mov    eax,0x0
  101084:	5d                   	pop    ebp
  101085:	c3                   	ret    

00101086 <gets>:
  101086:	55                   	push   ebp
  101087:	89 e5                	mov    ebp,esp
  101089:	b8 00 00 00 00       	mov    eax,0x0
  10108e:	5d                   	pop    ebp
  10108f:	c3                   	ret    

00101090 <printf>:
  101090:	55                   	push   ebp
  101091:	89 e5                	mov    ebp,esp
  101093:	b8 00 00 00 00       	mov    eax,0x0
  101098:	5d                   	pop    ebp
  101099:	c3                   	ret    

0010109a <putchar>:
  10109a:	55                   	push   ebp
  10109b:	89 e5                	mov    ebp,esp
  10109d:	b8 00 00 00 00       	mov    eax,0x0
  1010a2:	5d                   	pop    ebp
  1010a3:	c3                   	ret    

001010a4 <puts>:
  1010a4:	55                   	push   ebp
  1010a5:	89 e5                	mov    ebp,esp
  1010a7:	b8 00 00 00 00       	mov    eax,0x0
  1010ac:	5d                   	pop    ebp
  1010ad:	c3                   	ret    

001010ae <cli>:
  1010ae:	55                   	push   ebp
  1010af:	89 e5                	mov    ebp,esp
  1010b1:	fa                   	cli    
  1010b2:	90                   	nop
  1010b3:	5d                   	pop    ebp
  1010b4:	c3                   	ret    

001010b5 <hlt>:
  1010b5:	55                   	push   ebp
  1010b6:	89 e5                	mov    ebp,esp
  1010b8:	f4                   	hlt    
  1010b9:	90                   	nop
  1010ba:	5d                   	pop    ebp
  1010bb:	c3                   	ret    

001010bc <debug_setmode>:
  1010bc:	55                   	push   ebp
  1010bd:	89 e5                	mov    ebp,esp
  1010bf:	a1 2c 80 51 00       	mov    eax,ds:0x51802c
  1010c4:	a3 28 80 51 00       	mov    ds:0x518028,eax
  1010c9:	8b 45 08             	mov    eax,DWORD PTR [ebp+0x8]
  1010cc:	a3 2c 80 51 00       	mov    ds:0x51802c,eax
  1010d1:	90                   	nop
  1010d2:	5d                   	pop    ebp
  1010d3:	c3                   	ret    

001010d4 <debug_lastmode>:
  1010d4:	55                   	push   ebp
  1010d5:	89 e5                	mov    ebp,esp
  1010d7:	a1 28 80 51 00       	mov    eax,ds:0x518028
  1010dc:	50                   	push   eax
  1010dd:	e8 da ff ff ff       	call   1010bc <debug_setmode>
  1010e2:	83 c4 04             	add    esp,0x4
  1010e5:	90                   	nop
  1010e6:	c9                   	leave  
  1010e7:	c3                   	ret    

001010e8 <debug_getmode>:
  1010e8:	55                   	push   ebp
  1010e9:	89 e5                	mov    ebp,esp
  1010eb:	a1 2c 80 51 00       	mov    eax,ds:0x51802c
  1010f0:	5d                   	pop    ebp
  1010f1:	c3                   	ret    

001010f2 <debug_halt>:
  1010f2:	55                   	push   ebp
  1010f3:	89 e5                	mov    ebp,esp
  1010f5:	e8 b4 ff ff ff       	call   1010ae <cli>
  1010fa:	e8 b6 ff ff ff       	call   1010b5 <hlt>
  1010ff:	90                   	nop
  101100:	5d                   	pop    ebp
  101101:	c3                   	ret    

00101102 <debug_breakpoint>:
  101102:	55                   	push   ebp
  101103:	89 e5                	mov    ebp,esp
  101105:	66 87 db             	xchg   bx,bx
  101108:	90                   	nop
  101109:	5d                   	pop    ebp
  10110a:	c3                   	ret    

0010110b <debug_isterm>:
  10110b:	55                   	push   ebp
  10110c:	89 e5                	mov    ebp,esp
  10110e:	a1 2c 80 51 00       	mov    eax,ds:0x51802c
  101113:	83 f8 02             	cmp    eax,0x2
  101116:	74 0a                	je     101122 <debug_isterm+0x17>
  101118:	a1 2c 80 51 00       	mov    eax,ds:0x51802c
  10111d:	83 f8 03             	cmp    eax,0x3
  101120:	75 07                	jne    101129 <debug_isterm+0x1e>
  101122:	b8 01 00 00 00       	mov    eax,0x1
  101127:	eb 05                	jmp    10112e <debug_isterm+0x23>
  101129:	b8 00 00 00 00       	mov    eax,0x0
  10112e:	5d                   	pop    ebp
  10112f:	c3                   	ret    

00101130 <debug_isserial>:
  101130:	55                   	push   ebp
  101131:	89 e5                	mov    ebp,esp
  101133:	a1 2c 80 51 00       	mov    eax,ds:0x51802c
  101138:	83 f8 01             	cmp    eax,0x1
  10113b:	74 0a                	je     101147 <debug_isserial+0x17>
  10113d:	a1 2c 80 51 00       	mov    eax,ds:0x51802c
  101142:	83 f8 03             	cmp    eax,0x3
  101145:	75 07                	jne    10114e <debug_isserial+0x1e>
  101147:	b8 01 00 00 00       	mov    eax,0x1
  10114c:	eb 05                	jmp    101153 <debug_isserial+0x23>
  10114e:	b8 00 00 00 00       	mov    eax,0x0
  101153:	5d                   	pop    ebp
  101154:	c3                   	ret    

00101155 <debug_newline>:
  101155:	55                   	push   ebp
  101156:	89 e5                	mov    ebp,esp
  101158:	83 ec 08             	sub    esp,0x8
  10115b:	e8 d0 ff ff ff       	call   101130 <debug_isserial>
  101160:	84 c0                	test   al,al
  101162:	74 05                	je     101169 <debug_newline+0x14>
  101164:	e8 0b 46 00 00       	call   105774 <serial_newline>
  101169:	e8 9d ff ff ff       	call   10110b <debug_isterm>
  10116e:	84 c0                	test   al,al
  101170:	74 05                	je     101177 <debug_newline+0x22>
  101172:	e8 95 76 00 00       	call   10880c <vga_newline>
  101177:	90                   	nop
  101178:	c9                   	leave  
  101179:	c3                   	ret    

0010117a <debug_writechar>:
  10117a:	55                   	push   ebp
  10117b:	89 e5                	mov    ebp,esp
  10117d:	83 ec 18             	sub    esp,0x18
  101180:	8b 45 08             	mov    eax,DWORD PTR [ebp+0x8]
  101183:	88 45 f4             	mov    BYTE PTR [ebp-0xc],al
  101186:	e8 a5 ff ff ff       	call   101130 <debug_isserial>
  10118b:	84 c0                	test   al,al
  10118d:	74 10                	je     10119f <debug_writechar+0x25>
  10118f:	0f be 45 f4          	movsx  eax,BYTE PTR [ebp-0xc]
  101193:	83 ec 0c             	sub    esp,0xc
  101196:	50                   	push   eax
  101197:	e8 89 44 00 00       	call   105625 <serial_writechar>
  10119c:	83 c4 10             	add    esp,0x10
  10119f:	e8 67 ff ff ff       	call   10110b <debug_isterm>
  1011a4:	84 c0                	test   al,al
  1011a6:	74 10                	je     1011b8 <debug_writechar+0x3e>
  1011a8:	0f be 45 f4          	movsx  eax,BYTE PTR [ebp-0xc]
  1011ac:	83 ec 0c             	sub    esp,0xc
  1011af:	50                   	push   eax
  1011b0:	e8 ab 79 00 00       	call   108b60 <vga_writechar>
  1011b5:	83 c4 10             	add    esp,0x10
  1011b8:	90                   	nop
  1011b9:	c9                   	leave  
  1011ba:	c3                   	ret    

001011bb <debug_write>:
  1011bb:	55                   	push   ebp
  1011bc:	89 e5                	mov    ebp,esp
  1011be:	83 ec 08             	sub    esp,0x8
  1011c1:	e8 6a ff ff ff       	call   101130 <debug_isserial>
  1011c6:	84 c0                	test   al,al
  1011c8:	74 0e                	je     1011d8 <debug_write+0x1d>
  1011ca:	83 ec 0c             	sub    esp,0xc
  1011cd:	ff 75 08             	push   DWORD PTR [ebp+0x8]
  1011d0:	e8 d5 44 00 00       	call   1056aa <serial_write>
  1011d5:	83 c4 10             	add    esp,0x10
  1011d8:	e8 2e ff ff ff       	call   10110b <debug_isterm>
  1011dd:	84 c0                	test   al,al
  1011df:	74 0e                	je     1011ef <debug_write+0x34>
  1011e1:	83 ec 0c             	sub    esp,0xc
  1011e4:	ff 75 08             	push   DWORD PTR [ebp+0x8]
  1011e7:	e8 92 7a 00 00       	call   108c7e <vga_write>
  1011ec:	83 c4 10             	add    esp,0x10
  1011ef:	90                   	nop
  1011f0:	c9                   	leave  
  1011f1:	c3                   	ret    

001011f2 <debug_write_col>:
  1011f2:	55                   	push   ebp
  1011f3:	89 e5                	mov    ebp,esp
  1011f5:	83 ec 18             	sub    esp,0x18
  1011f8:	8b 45 0c             	mov    eax,DWORD PTR [ebp+0xc]
  1011fb:	88 45 f4             	mov    BYTE PTR [ebp-0xc],al
  1011fe:	e8 2d ff ff ff       	call   101130 <debug_isserial>
  101203:	84 c0                	test   al,al
  101205:	74 13                	je     10121a <debug_write_col+0x28>
  101207:	0f b6 45 f4          	movzx  eax,BYTE PTR [ebp-0xc]
  10120b:	83 ec 08             	sub    esp,0x8
  10120e:	50                   	push   eax
  10120f:	ff 75 08             	push   DWORD PTR [ebp+0x8]
  101212:	e8 dd 44 00 00       	call   1056f4 <serial_write_col>
  101217:	83 c4 10             	add    esp,0x10
  10121a:	e8 ec fe ff ff       	call   10110b <debug_isterm>
  10121f:	84 c0                	test   al,al
  101221:	74 13                	je     101236 <debug_write_col+0x44>
  101223:	0f b6 45 f4          	movzx  eax,BYTE PTR [ebp-0xc]
  101227:	83 ec 08             	sub    esp,0x8
  10122a:	50                   	push   eax
  10122b:	ff 75 08             	push   DWORD PTR [ebp+0x8]
  10122e:	e8 78 7a 00 00       	call   108cab <vga_write_fg>
  101233:	83 c4 10             	add    esp,0x10
  101236:	90                   	nop
  101237:	c9                   	leave  
  101238:	c3                   	ret    

00101239 <debug_writeln>:
  101239:	55                   	push   ebp
  10123a:	89 e5                	mov    ebp,esp
  10123c:	83 ec 08             	sub    esp,0x8
  10123f:	e8 ec fe ff ff       	call   101130 <debug_isserial>
  101244:	84 c0                	test   al,al
  101246:	74 0e                	je     101256 <debug_writeln+0x1d>
  101248:	83 ec 0c             	sub    esp,0xc
  10124b:	ff 75 08             	push   DWORD PTR [ebp+0x8]
  10124e:	e8 de 44 00 00       	call   105731 <serial_writeln>
  101253:	83 c4 10             	add    esp,0x10
  101256:	e8 b0 fe ff ff       	call   10110b <debug_isterm>
  10125b:	84 c0                	test   al,al
  10125d:	74 0e                	je     10126d <debug_writeln+0x34>
  10125f:	83 ec 0c             	sub    esp,0xc
  101262:	ff 75 08             	push   DWORD PTR [ebp+0x8]
  101265:	e8 f2 7a 00 00       	call   108d5c <vga_writeln>
  10126a:	83 c4 10             	add    esp,0x10
  10126d:	90                   	nop
  10126e:	c9                   	leave  
  10126f:	c3                   	ret    

00101270 <debug_writeln_col>:
  101270:	55                   	push   ebp
  101271:	89 e5                	mov    ebp,esp
  101273:	83 ec 18             	sub    esp,0x18
  101276:	8b 45 0c             	mov    eax,DWORD PTR [ebp+0xc]
  101279:	88 45 f4             	mov    BYTE PTR [ebp-0xc],al
  10127c:	e8 af fe ff ff       	call   101130 <debug_isserial>
  101281:	84 c0                	test   al,al
  101283:	74 13                	je     101298 <debug_writeln_col+0x28>
  101285:	0f b6 45 f4          	movzx  eax,BYTE PTR [ebp-0xc]
  101289:	83 ec 08             	sub    esp,0x8
  10128c:	50                   	push   eax
  10128d:	ff 75 08             	push   DWORD PTR [ebp+0x8]
  101290:	e8 b8 44 00 00       	call   10574d <serial_writeln_col>
  101295:	83 c4 10             	add    esp,0x10
  101298:	e8 6e fe ff ff       	call   10110b <debug_isterm>
  10129d:	84 c0                	test   al,al
  10129f:	74 13                	je     1012b4 <debug_writeln_col+0x44>
  1012a1:	0f b6 45 f4          	movzx  eax,BYTE PTR [ebp-0xc]
  1012a5:	83 ec 08             	sub    esp,0x8
  1012a8:	50                   	push   eax
  1012a9:	ff 75 08             	push   DWORD PTR [ebp+0x8]
  1012ac:	e8 d8 7a 00 00       	call   108d89 <vga_writeln_fg>
  1012b1:	83 c4 10             	add    esp,0x10
  1012b4:	90                   	nop
  1012b5:	c9                   	leave  
  1012b6:	c3                   	ret    

001012b7 <debug_vprintf>:
  1012b7:	55                   	push   ebp
  1012b8:	89 e5                	mov    ebp,esp
  1012ba:	81 ec c8 00 00 00    	sub    esp,0xc8
  1012c0:	e8 23 fe ff ff       	call   1010e8 <debug_getmode>
  1012c5:	89 45 f4             	mov    DWORD PTR [ebp-0xc],eax
  1012c8:	e9 bb 03 00 00       	jmp    101688 <debug_vprintf+0x3d1>
  1012cd:	8b 45 08             	mov    eax,DWORD PTR [ebp+0x8]
  1012d0:	0f b6 00             	movzx  eax,BYTE PTR [eax]
  1012d3:	3c 25                	cmp    al,0x25
  1012d5:	0f 85 94 03 00 00    	jne    10166f <debug_vprintf+0x3b8>
  1012db:	83 45 08 01          	add    DWORD PTR [ebp+0x8],0x1
  1012df:	8b 45 08             	mov    eax,DWORD PTR [ebp+0x8]
  1012e2:	0f b6 00             	movzx  eax,BYTE PTR [eax]
  1012e5:	3c 25                	cmp    al,0x25
  1012e7:	75 0d                	jne    1012f6 <debug_vprintf+0x3f>
  1012e9:	83 ec 0c             	sub    esp,0xc
  1012ec:	6a 25                	push   0x25
  1012ee:	e8 87 fe ff ff       	call   10117a <debug_writechar>
  1012f3:	83 c4 10             	add    esp,0x10
  1012f6:	8b 45 08             	mov    eax,DWORD PTR [ebp+0x8]
  1012f9:	0f b6 00             	movzx  eax,BYTE PTR [eax]
  1012fc:	3c 63                	cmp    al,0x63
  1012fe:	75 20                	jne    101320 <debug_vprintf+0x69>
  101300:	83 45 0c 04          	add    DWORD PTR [ebp+0xc],0x4
  101304:	8b 45 0c             	mov    eax,DWORD PTR [ebp+0xc]
  101307:	83 e8 04             	sub    eax,0x4
  10130a:	8b 00                	mov    eax,DWORD PTR [eax]
  10130c:	0f be c0             	movsx  eax,al
  10130f:	83 ec 0c             	sub    esp,0xc
  101312:	50                   	push   eax
  101313:	e8 62 fe ff ff       	call   10117a <debug_writechar>
  101318:	83 c4 10             	add    esp,0x10
  10131b:	e9 64 03 00 00       	jmp    101684 <debug_vprintf+0x3cd>
  101320:	8b 45 08             	mov    eax,DWORD PTR [ebp+0x8]
  101323:	0f b6 00             	movzx  eax,BYTE PTR [eax]
  101326:	3c 64                	cmp    al,0x64
  101328:	74 0a                	je     101334 <debug_vprintf+0x7d>
  10132a:	8b 45 08             	mov    eax,DWORD PTR [ebp+0x8]
  10132d:	0f b6 00             	movzx  eax,BYTE PTR [eax]
  101330:	3c 75                	cmp    al,0x75
  101332:	75 45                	jne    101379 <debug_vprintf+0xc2>
  101334:	83 45 0c 04          	add    DWORD PTR [ebp+0xc],0x4
  101338:	8b 45 0c             	mov    eax,DWORD PTR [ebp+0xc]
  10133b:	8b 40 fc             	mov    eax,DWORD PTR [eax-0x4]
  10133e:	89 45 c8             	mov    DWORD PTR [ebp-0x38],eax
  101341:	83 ec 04             	sub    esp,0x4
  101344:	6a 10                	push   0x10
  101346:	6a 00                	push   0x0
  101348:	8d 45 b8             	lea    eax,[ebp-0x48]
  10134b:	50                   	push   eax
  10134c:	e8 64 37 00 00       	call   104ab5 <memset>
  101351:	83 c4 10             	add    esp,0x10
  101354:	83 ec 04             	sub    esp,0x4
  101357:	6a 0a                	push   0xa
  101359:	8d 45 b8             	lea    eax,[ebp-0x48]
  10135c:	50                   	push   eax
  10135d:	ff 75 c8             	push   DWORD PTR [ebp-0x38]
  101360:	e8 95 fa ff ff       	call   100dfa <itoa>
  101365:	83 c4 10             	add    esp,0x10
  101368:	83 ec 0c             	sub    esp,0xc
  10136b:	50                   	push   eax
  10136c:	e8 4a fe ff ff       	call   1011bb <debug_write>
  101371:	83 c4 10             	add    esp,0x10
  101374:	e9 0b 03 00 00       	jmp    101684 <debug_vprintf+0x3cd>
  101379:	8b 45 08             	mov    eax,DWORD PTR [ebp+0x8]
  10137c:	0f b6 00             	movzx  eax,BYTE PTR [eax]
  10137f:	3c 75                	cmp    al,0x75
  101381:	75 45                	jne    1013c8 <debug_vprintf+0x111>
  101383:	83 45 0c 04          	add    DWORD PTR [ebp+0xc],0x4
  101387:	8b 45 0c             	mov    eax,DWORD PTR [ebp+0xc]
  10138a:	8b 40 fc             	mov    eax,DWORD PTR [eax-0x4]
  10138d:	89 45 cc             	mov    DWORD PTR [ebp-0x34],eax
  101390:	83 ec 04             	sub    esp,0x4
  101393:	6a 10                	push   0x10
  101395:	6a 00                	push   0x0
  101397:	8d 45 a8             	lea    eax,[ebp-0x58]
  10139a:	50                   	push   eax
  10139b:	e8 15 37 00 00       	call   104ab5 <memset>
  1013a0:	83 c4 10             	add    esp,0x10
  1013a3:	83 ec 04             	sub    esp,0x4
  1013a6:	6a 0a                	push   0xa
  1013a8:	8d 45 a8             	lea    eax,[ebp-0x58]
  1013ab:	50                   	push   eax
  1013ac:	ff 75 cc             	push   DWORD PTR [ebp-0x34]
  1013af:	e8 e7 fb ff ff       	call   100f9b <ltoa>
  1013b4:	83 c4 10             	add    esp,0x10
  1013b7:	83 ec 0c             	sub    esp,0xc
  1013ba:	50                   	push   eax
  1013bb:	e8 fb fd ff ff       	call   1011bb <debug_write>
  1013c0:	83 c4 10             	add    esp,0x10
  1013c3:	e9 bc 02 00 00       	jmp    101684 <debug_vprintf+0x3cd>
  1013c8:	8b 45 08             	mov    eax,DWORD PTR [ebp+0x8]
  1013cb:	0f b6 00             	movzx  eax,BYTE PTR [eax]
  1013ce:	3c 78                	cmp    al,0x78
  1013d0:	75 45                	jne    101417 <debug_vprintf+0x160>
  1013d2:	83 45 0c 04          	add    DWORD PTR [ebp+0xc],0x4
  1013d6:	8b 45 0c             	mov    eax,DWORD PTR [ebp+0xc]
  1013d9:	8b 40 fc             	mov    eax,DWORD PTR [eax-0x4]
  1013dc:	89 45 d0             	mov    DWORD PTR [ebp-0x30],eax
  1013df:	83 ec 04             	sub    esp,0x4
  1013e2:	6a 10                	push   0x10
  1013e4:	6a 00                	push   0x0
  1013e6:	8d 45 98             	lea    eax,[ebp-0x68]
  1013e9:	50                   	push   eax
  1013ea:	e8 c6 36 00 00       	call   104ab5 <memset>
  1013ef:	83 c4 10             	add    esp,0x10
  1013f2:	83 ec 04             	sub    esp,0x4
  1013f5:	6a 10                	push   0x10
  1013f7:	8d 45 98             	lea    eax,[ebp-0x68]
  1013fa:	50                   	push   eax
  1013fb:	ff 75 d0             	push   DWORD PTR [ebp-0x30]
  1013fe:	e8 98 fb ff ff       	call   100f9b <ltoa>
  101403:	83 c4 10             	add    esp,0x10
  101406:	83 ec 0c             	sub    esp,0xc
  101409:	50                   	push   eax
  10140a:	e8 ac fd ff ff       	call   1011bb <debug_write>
  10140f:	83 c4 10             	add    esp,0x10
  101412:	e9 6d 02 00 00       	jmp    101684 <debug_vprintf+0x3cd>
  101417:	8b 45 08             	mov    eax,DWORD PTR [ebp+0x8]
  10141a:	0f b6 00             	movzx  eax,BYTE PTR [eax]
  10141d:	3c 32                	cmp    al,0x32
  10141f:	75 76                	jne    101497 <debug_vprintf+0x1e0>
  101421:	83 45 08 01          	add    DWORD PTR [ebp+0x8],0x1
  101425:	8b 45 08             	mov    eax,DWORD PTR [ebp+0x8]
  101428:	0f b6 00             	movzx  eax,BYTE PTR [eax]
  10142b:	3c 78                	cmp    al,0x78
  10142d:	74 24                	je     101453 <debug_vprintf+0x19c>
  10142f:	8b 45 08             	mov    eax,DWORD PTR [ebp+0x8]
  101432:	0f b6 00             	movzx  eax,BYTE PTR [eax]
  101435:	3c 58                	cmp    al,0x58
  101437:	74 1a                	je     101453 <debug_vprintf+0x19c>
  101439:	8b 45 08             	mov    eax,DWORD PTR [ebp+0x8]
  10143c:	0f b6 00             	movzx  eax,BYTE PTR [eax]
  10143f:	0f be c0             	movsx  eax,al
  101442:	83 ec 0c             	sub    esp,0xc
  101445:	50                   	push   eax
  101446:	e8 2f fd ff ff       	call   10117a <debug_writechar>
  10144b:	83 c4 10             	add    esp,0x10
  10144e:	e9 31 02 00 00       	jmp    101684 <debug_vprintf+0x3cd>
  101453:	83 45 0c 04          	add    DWORD PTR [ebp+0xc],0x4
  101457:	8b 45 0c             	mov    eax,DWORD PTR [ebp+0xc]
  10145a:	8b 40 fc             	mov    eax,DWORD PTR [eax-0x4]
  10145d:	89 45 d4             	mov    DWORD PTR [ebp-0x2c],eax
  101460:	83 ec 04             	sub    esp,0x4
  101463:	6a 10                	push   0x10
  101465:	6a 00                	push   0x0
  101467:	8d 45 88             	lea    eax,[ebp-0x78]
  10146a:	50                   	push   eax
  10146b:	e8 45 36 00 00       	call   104ab5 <memset>
  101470:	83 c4 10             	add    esp,0x10
  101473:	6a 01                	push   0x1
  101475:	6a 00                	push   0x0
  101477:	8d 45 88             	lea    eax,[ebp-0x78]
  10147a:	50                   	push   eax
  10147b:	ff 75 d4             	push   DWORD PTR [ebp-0x2c]
  10147e:	e8 28 59 00 00       	call   106dab <strhex>
  101483:	83 c4 10             	add    esp,0x10
  101486:	83 ec 0c             	sub    esp,0xc
  101489:	50                   	push   eax
  10148a:	e8 2c fd ff ff       	call   1011bb <debug_write>
  10148f:	83 c4 10             	add    esp,0x10
  101492:	e9 ed 01 00 00       	jmp    101684 <debug_vprintf+0x3cd>
  101497:	8b 45 08             	mov    eax,DWORD PTR [ebp+0x8]
  10149a:	0f b6 00             	movzx  eax,BYTE PTR [eax]
  10149d:	3c 34                	cmp    al,0x34
  10149f:	75 7c                	jne    10151d <debug_vprintf+0x266>
  1014a1:	83 45 08 01          	add    DWORD PTR [ebp+0x8],0x1
  1014a5:	8b 45 08             	mov    eax,DWORD PTR [ebp+0x8]
  1014a8:	0f b6 00             	movzx  eax,BYTE PTR [eax]
  1014ab:	3c 78                	cmp    al,0x78
  1014ad:	74 24                	je     1014d3 <debug_vprintf+0x21c>
  1014af:	8b 45 08             	mov    eax,DWORD PTR [ebp+0x8]
  1014b2:	0f b6 00             	movzx  eax,BYTE PTR [eax]
  1014b5:	3c 58                	cmp    al,0x58
  1014b7:	74 1a                	je     1014d3 <debug_vprintf+0x21c>
  1014b9:	8b 45 08             	mov    eax,DWORD PTR [ebp+0x8]
  1014bc:	0f b6 00             	movzx  eax,BYTE PTR [eax]
  1014bf:	0f be c0             	movsx  eax,al
  1014c2:	83 ec 0c             	sub    esp,0xc
  1014c5:	50                   	push   eax
  1014c6:	e8 af fc ff ff       	call   10117a <debug_writechar>
  1014cb:	83 c4 10             	add    esp,0x10
  1014ce:	e9 b1 01 00 00       	jmp    101684 <debug_vprintf+0x3cd>
  1014d3:	83 45 0c 04          	add    DWORD PTR [ebp+0xc],0x4
  1014d7:	8b 45 0c             	mov    eax,DWORD PTR [ebp+0xc]
  1014da:	8b 40 fc             	mov    eax,DWORD PTR [eax-0x4]
  1014dd:	89 45 d8             	mov    DWORD PTR [ebp-0x28],eax
  1014e0:	83 ec 04             	sub    esp,0x4
  1014e3:	6a 10                	push   0x10
  1014e5:	6a 00                	push   0x0
  1014e7:	8d 85 78 ff ff ff    	lea    eax,[ebp-0x88]
  1014ed:	50                   	push   eax
  1014ee:	e8 c2 35 00 00       	call   104ab5 <memset>
  1014f3:	83 c4 10             	add    esp,0x10
  1014f6:	6a 02                	push   0x2
  1014f8:	6a 00                	push   0x0
  1014fa:	8d 85 78 ff ff ff    	lea    eax,[ebp-0x88]
  101500:	50                   	push   eax
  101501:	ff 75 d8             	push   DWORD PTR [ebp-0x28]
  101504:	e8 a2 58 00 00       	call   106dab <strhex>
  101509:	83 c4 10             	add    esp,0x10
  10150c:	83 ec 0c             	sub    esp,0xc
  10150f:	50                   	push   eax
  101510:	e8 a6 fc ff ff       	call   1011bb <debug_write>
  101515:	83 c4 10             	add    esp,0x10
  101518:	e9 67 01 00 00       	jmp    101684 <debug_vprintf+0x3cd>
  10151d:	8b 45 08             	mov    eax,DWORD PTR [ebp+0x8]
  101520:	0f b6 00             	movzx  eax,BYTE PTR [eax]
  101523:	3c 38                	cmp    al,0x38
  101525:	75 7c                	jne    1015a3 <debug_vprintf+0x2ec>
  101527:	83 45 08 01          	add    DWORD PTR [ebp+0x8],0x1
  10152b:	8b 45 08             	mov    eax,DWORD PTR [ebp+0x8]
  10152e:	0f b6 00             	movzx  eax,BYTE PTR [eax]
  101531:	3c 78                	cmp    al,0x78
  101533:	74 24                	je     101559 <debug_vprintf+0x2a2>
  101535:	8b 45 08             	mov    eax,DWORD PTR [ebp+0x8]
  101538:	0f b6 00             	movzx  eax,BYTE PTR [eax]
  10153b:	3c 58                	cmp    al,0x58
  10153d:	74 1a                	je     101559 <debug_vprintf+0x2a2>
  10153f:	8b 45 08             	mov    eax,DWORD PTR [ebp+0x8]
  101542:	0f b6 00             	movzx  eax,BYTE PTR [eax]
  101545:	0f be c0             	movsx  eax,al
  101548:	83 ec 0c             	sub    esp,0xc
  10154b:	50                   	push   eax
  10154c:	e8 29 fc ff ff       	call   10117a <debug_writechar>
  101551:	83 c4 10             	add    esp,0x10
  101554:	e9 2b 01 00 00       	jmp    101684 <debug_vprintf+0x3cd>
  101559:	83 45 0c 04          	add    DWORD PTR [ebp+0xc],0x4
  10155d:	8b 45 0c             	mov    eax,DWORD PTR [ebp+0xc]
  101560:	8b 40 fc             	mov    eax,DWORD PTR [eax-0x4]
  101563:	89 45 dc             	mov    DWORD PTR [ebp-0x24],eax
  101566:	83 ec 04             	sub    esp,0x4
  101569:	6a 10                	push   0x10
  10156b:	6a 00                	push   0x0
  10156d:	8d 85 68 ff ff ff    	lea    eax,[ebp-0x98]
  101573:	50                   	push   eax
  101574:	e8 3c 35 00 00       	call   104ab5 <memset>
  101579:	83 c4 10             	add    esp,0x10
  10157c:	6a 04                	push   0x4
  10157e:	6a 00                	push   0x0
  101580:	8d 85 68 ff ff ff    	lea    eax,[ebp-0x98]
  101586:	50                   	push   eax
  101587:	ff 75 dc             	push   DWORD PTR [ebp-0x24]
  10158a:	e8 1c 58 00 00       	call   106dab <strhex>
  10158f:	83 c4 10             	add    esp,0x10
  101592:	83 ec 0c             	sub    esp,0xc
  101595:	50                   	push   eax
  101596:	e8 20 fc ff ff       	call   1011bb <debug_write>
  10159b:	83 c4 10             	add    esp,0x10
  10159e:	e9 e1 00 00 00       	jmp    101684 <debug_vprintf+0x3cd>
  1015a3:	8b 45 08             	mov    eax,DWORD PTR [ebp+0x8]
  1015a6:	0f b6 00             	movzx  eax,BYTE PTR [eax]
  1015a9:	3c 66                	cmp    al,0x66
  1015ab:	75 5b                	jne    101608 <debug_vprintf+0x351>
  1015ad:	83 45 0c 08          	add    DWORD PTR [ebp+0xc],0x8
  1015b1:	8b 45 0c             	mov    eax,DWORD PTR [ebp+0xc]
  1015b4:	dd 40 f8             	fld    QWORD PTR [eax-0x8]
  1015b7:	dd 5d e0             	fstp   QWORD PTR [ebp-0x20]
  1015ba:	83 ec 04             	sub    esp,0x4
  1015bd:	6a 20                	push   0x20
  1015bf:	6a 00                	push   0x0
  1015c1:	8d 85 48 ff ff ff    	lea    eax,[ebp-0xb8]
  1015c7:	50                   	push   eax
  1015c8:	e8 e8 34 00 00       	call   104ab5 <memset>
  1015cd:	83 c4 10             	add    esp,0x10
  1015d0:	dd 45 e0             	fld    QWORD PTR [ebp-0x20]
  1015d3:	d9 9d 44 ff ff ff    	fstp   DWORD PTR [ebp-0xbc]
  1015d9:	d9 85 44 ff ff ff    	fld    DWORD PTR [ebp-0xbc]
  1015df:	83 ec 04             	sub    esp,0x4
  1015e2:	6a 02                	push   0x2
  1015e4:	8d 85 48 ff ff ff    	lea    eax,[ebp-0xb8]
  1015ea:	50                   	push   eax
  1015eb:	8d 64 24 fc          	lea    esp,[esp-0x4]
  1015ef:	d9 1c 24             	fstp   DWORD PTR [esp]
  1015f2:	e8 52 f7 ff ff       	call   100d49 <ftoa>
  1015f7:	83 c4 10             	add    esp,0x10
  1015fa:	83 ec 0c             	sub    esp,0xc
  1015fd:	50                   	push   eax
  1015fe:	e8 b8 fb ff ff       	call   1011bb <debug_write>
  101603:	83 c4 10             	add    esp,0x10
  101606:	eb 7c                	jmp    101684 <debug_vprintf+0x3cd>
  101608:	8b 45 08             	mov    eax,DWORD PTR [ebp+0x8]
  10160b:	0f b6 00             	movzx  eax,BYTE PTR [eax]
  10160e:	3c 73                	cmp    al,0x73
  101610:	75 1d                	jne    10162f <debug_vprintf+0x378>
  101612:	83 45 0c 04          	add    DWORD PTR [ebp+0xc],0x4
  101616:	8b 45 0c             	mov    eax,DWORD PTR [ebp+0xc]
  101619:	8b 40 fc             	mov    eax,DWORD PTR [eax-0x4]
  10161c:	89 45 ec             	mov    DWORD PTR [ebp-0x14],eax
  10161f:	83 ec 0c             	sub    esp,0xc
  101622:	ff 75 ec             	push   DWORD PTR [ebp-0x14]
  101625:	e8 91 fb ff ff       	call   1011bb <debug_write>
  10162a:	83 c4 10             	add    esp,0x10
  10162d:	eb 55                	jmp    101684 <debug_vprintf+0x3cd>
  10162f:	8b 45 08             	mov    eax,DWORD PTR [ebp+0x8]
  101632:	0f b6 00             	movzx  eax,BYTE PTR [eax]
  101635:	3c 61                	cmp    al,0x61
  101637:	75 1f                	jne    101658 <debug_vprintf+0x3a1>
  101639:	83 45 0c 04          	add    DWORD PTR [ebp+0xc],0x4
  10163d:	8b 45 0c             	mov    eax,DWORD PTR [ebp+0xc]
  101640:	83 e8 04             	sub    eax,0x4
  101643:	8b 00                	mov    eax,DWORD PTR [eax]
  101645:	89 45 f0             	mov    DWORD PTR [ebp-0x10],eax
  101648:	83 ec 0c             	sub    esp,0xc
  10164b:	ff 75 f0             	push   DWORD PTR [ebp-0x10]
  10164e:	e8 69 fa ff ff       	call   1010bc <debug_setmode>
  101653:	83 c4 10             	add    esp,0x10
  101656:	eb 2c                	jmp    101684 <debug_vprintf+0x3cd>
  101658:	8b 45 08             	mov    eax,DWORD PTR [ebp+0x8]
  10165b:	0f b6 00             	movzx  eax,BYTE PTR [eax]
  10165e:	0f be c0             	movsx  eax,al
  101661:	83 ec 0c             	sub    esp,0xc
  101664:	50                   	push   eax
  101665:	e8 10 fb ff ff       	call   10117a <debug_writechar>
  10166a:	83 c4 10             	add    esp,0x10
  10166d:	eb 15                	jmp    101684 <debug_vprintf+0x3cd>
  10166f:	8b 45 08             	mov    eax,DWORD PTR [ebp+0x8]
  101672:	0f b6 00             	movzx  eax,BYTE PTR [eax]
  101675:	0f be c0             	movsx  eax,al
  101678:	83 ec 0c             	sub    esp,0xc
  10167b:	50                   	push   eax
  10167c:	e8 f9 fa ff ff       	call   10117a <debug_writechar>
  101681:	83 c4 10             	add    esp,0x10
  101684:	83 45 08 01          	add    DWORD PTR [ebp+0x8],0x1
  101688:	8b 45 08             	mov    eax,DWORD PTR [ebp+0x8]
  10168b:	0f b6 00             	movzx  eax,BYTE PTR [eax]
  10168e:	84 c0                	test   al,al
  101690:	0f 85 37 fc ff ff    	jne    1012cd <debug_vprintf+0x16>
  101696:	83 ec 0c             	sub    esp,0xc
  101699:	ff 75 f4             	push   DWORD PTR [ebp-0xc]
  10169c:	e8 1b fa ff ff       	call   1010bc <debug_setmode>
  1016a1:	83 c4 10             	add    esp,0x10
  1016a4:	90                   	nop
  1016a5:	c9                   	leave  
  1016a6:	c3                   	ret    

001016a7 <debug_printf>:
  1016a7:	55                   	push   ebp
  1016a8:	89 e5                	mov    ebp,esp
  1016aa:	83 ec 18             	sub    esp,0x18
  1016ad:	8d 45 0c             	lea    eax,[ebp+0xc]
  1016b0:	89 45 f4             	mov    DWORD PTR [ebp-0xc],eax
  1016b3:	8b 45 08             	mov    eax,DWORD PTR [ebp+0x8]
  1016b6:	83 ec 08             	sub    esp,0x8
  1016b9:	ff 75 f4             	push   DWORD PTR [ebp-0xc]
  1016bc:	50                   	push   eax
  1016bd:	e8 f5 fb ff ff       	call   1012b7 <debug_vprintf>
  1016c2:	83 c4 10             	add    esp,0x10
  1016c5:	90                   	nop
  1016c6:	c9                   	leave  
  1016c7:	c3                   	ret    

001016c8 <debug_header>:
  1016c8:	55                   	push   ebp
  1016c9:	89 e5                	mov    ebp,esp
  1016cb:	83 ec 18             	sub    esp,0x18
  1016ce:	8b 45 0c             	mov    eax,DWORD PTR [ebp+0xc]
  1016d1:	88 45 f4             	mov    BYTE PTR [ebp-0xc],al
  1016d4:	83 ec 0c             	sub    esp,0xc
  1016d7:	68 d8 09 11 00       	push   0x1109d8
  1016dc:	e8 da fa ff ff       	call   1011bb <debug_write>
  1016e1:	83 c4 10             	add    esp,0x10
  1016e4:	0f b6 45 f4          	movzx  eax,BYTE PTR [ebp-0xc]
  1016e8:	83 ec 08             	sub    esp,0x8
  1016eb:	50                   	push   eax
  1016ec:	ff 75 08             	push   DWORD PTR [ebp+0x8]
  1016ef:	e8 fe fa ff ff       	call   1011f2 <debug_write_col>
  1016f4:	83 c4 10             	add    esp,0x10
  1016f7:	83 ec 0c             	sub    esp,0xc
  1016fa:	68 da 09 11 00       	push   0x1109da
  1016ff:	e8 b7 fa ff ff       	call   1011bb <debug_write>
  101704:	83 c4 10             	add    esp,0x10
  101707:	90                   	nop
  101708:	c9                   	leave  
  101709:	c3                   	ret    

0010170a <debug_headerf>:
  10170a:	55                   	push   ebp
  10170b:	89 e5                	mov    ebp,esp
  10170d:	83 ec 28             	sub    esp,0x28
  101710:	8b 45 0c             	mov    eax,DWORD PTR [ebp+0xc]
  101713:	88 45 e4             	mov    BYTE PTR [ebp-0x1c],al
  101716:	e8 cd f9 ff ff       	call   1010e8 <debug_getmode>
  10171b:	89 45 f4             	mov    DWORD PTR [ebp-0xc],eax
  10171e:	0f b6 45 e4          	movzx  eax,BYTE PTR [ebp-0x1c]
  101722:	83 ec 08             	sub    esp,0x8
  101725:	50                   	push   eax
  101726:	ff 75 08             	push   DWORD PTR [ebp+0x8]
  101729:	e8 9a ff ff ff       	call   1016c8 <debug_header>
  10172e:	83 c4 10             	add    esp,0x10
  101731:	83 ec 08             	sub    esp,0x8
  101734:	ff 75 14             	push   DWORD PTR [ebp+0x14]
  101737:	ff 75 10             	push   DWORD PTR [ebp+0x10]
  10173a:	e8 78 fb ff ff       	call   1012b7 <debug_vprintf>
  10173f:	83 c4 10             	add    esp,0x10
  101742:	e8 0e fa ff ff       	call   101155 <debug_newline>
  101747:	83 ec 0c             	sub    esp,0xc
  10174a:	ff 75 f4             	push   DWORD PTR [ebp-0xc]
  10174d:	e8 6a f9 ff ff       	call   1010bc <debug_setmode>
  101752:	83 c4 10             	add    esp,0x10
  101755:	90                   	nop
  101756:	c9                   	leave  
  101757:	c3                   	ret    

00101758 <debug_ok>:
  101758:	55                   	push   ebp
  101759:	89 e5                	mov    ebp,esp
  10175b:	83 ec 18             	sub    esp,0x18
  10175e:	8d 45 0c             	lea    eax,[ebp+0xc]
  101761:	89 45 f4             	mov    DWORD PTR [ebp-0xc],eax
  101764:	8b 45 08             	mov    eax,DWORD PTR [ebp+0x8]
  101767:	ff 75 f4             	push   DWORD PTR [ebp-0xc]
  10176a:	50                   	push   eax
  10176b:	6a 0a                	push   0xa
  10176d:	68 dd 09 11 00       	push   0x1109dd
  101772:	e8 93 ff ff ff       	call   10170a <debug_headerf>
  101777:	83 c4 10             	add    esp,0x10
  10177a:	90                   	nop
  10177b:	c9                   	leave  
  10177c:	c3                   	ret    

0010177d <debug_info>:
  10177d:	55                   	push   ebp
  10177e:	89 e5                	mov    ebp,esp
  101780:	83 ec 18             	sub    esp,0x18
  101783:	8d 45 0c             	lea    eax,[ebp+0xc]
  101786:	89 45 f4             	mov    DWORD PTR [ebp-0xc],eax
  101789:	8b 45 08             	mov    eax,DWORD PTR [ebp+0x8]
  10178c:	ff 75 f4             	push   DWORD PTR [ebp-0xc]
  10178f:	50                   	push   eax
  101790:	6a 0b                	push   0xb
  101792:	68 e4 09 11 00       	push   0x1109e4
  101797:	e8 6e ff ff ff       	call   10170a <debug_headerf>
  10179c:	83 c4 10             	add    esp,0x10
  10179f:	90                   	nop
  1017a0:	c9                   	leave  
  1017a1:	c3                   	ret    

001017a2 <debug_warn>:
  1017a2:	55                   	push   ebp
  1017a3:	89 e5                	mov    ebp,esp
  1017a5:	83 ec 18             	sub    esp,0x18
  1017a8:	8d 45 0c             	lea    eax,[ebp+0xc]
  1017ab:	89 45 f4             	mov    DWORD PTR [ebp-0xc],eax
  1017ae:	8b 45 08             	mov    eax,DWORD PTR [ebp+0x8]
  1017b1:	ff 75 f4             	push   DWORD PTR [ebp-0xc]
  1017b4:	50                   	push   eax
  1017b5:	6a 0e                	push   0xe
  1017b7:	68 eb 09 11 00       	push   0x1109eb
  1017bc:	e8 49 ff ff ff       	call   10170a <debug_headerf>
  1017c1:	83 c4 10             	add    esp,0x10
  1017c4:	90                   	nop
  1017c5:	c9                   	leave  
  1017c6:	c3                   	ret    

001017c7 <debug_error>:
  1017c7:	55                   	push   ebp
  1017c8:	89 e5                	mov    ebp,esp
  1017ca:	83 ec 18             	sub    esp,0x18
  1017cd:	8d 45 0c             	lea    eax,[ebp+0xc]
  1017d0:	89 45 f4             	mov    DWORD PTR [ebp-0xc],eax
  1017d3:	8b 45 08             	mov    eax,DWORD PTR [ebp+0x8]
  1017d6:	ff 75 f4             	push   DWORD PTR [ebp-0xc]
  1017d9:	50                   	push   eax
  1017da:	6a 0c                	push   0xc
  1017dc:	68 f2 09 11 00       	push   0x1109f2
  1017e1:	e8 24 ff ff ff       	call   10170a <debug_headerf>
  1017e6:	83 c4 10             	add    esp,0x10
  1017e9:	90                   	nop
  1017ea:	c9                   	leave  
  1017eb:	c3                   	ret    

001017ec <debug_dumpmem>:
  1017ec:	55                   	push   ebp
  1017ed:	89 e5                	mov    ebp,esp
  1017ef:	53                   	push   ebx
  1017f0:	83 ec 34             	sub    esp,0x34
  1017f3:	89 e0                	mov    eax,esp
  1017f5:	89 c3                	mov    ebx,eax
  1017f7:	e8 ec f8 ff ff       	call   1010e8 <debug_getmode>
  1017fc:	89 45 ec             	mov    DWORD PTR [ebp-0x14],eax
  1017ff:	ff 75 10             	push   DWORD PTR [ebp+0x10]
  101802:	e8 b5 f8 ff ff       	call   1010bc <debug_setmode>
  101807:	83 c4 04             	add    esp,0x4
  10180a:	c7 45 e8 10 00 00 00 	mov    DWORD PTR [ebp-0x18],0x10
  101811:	8b 45 e8             	mov    eax,DWORD PTR [ebp-0x18]
  101814:	8d 50 ff             	lea    edx,[eax-0x1]
  101817:	89 55 e4             	mov    DWORD PTR [ebp-0x1c],edx
  10181a:	89 c2                	mov    edx,eax
  10181c:	b8 10 00 00 00       	mov    eax,0x10
  101821:	83 e8 01             	sub    eax,0x1
  101824:	01 d0                	add    eax,edx
  101826:	b9 10 00 00 00       	mov    ecx,0x10
  10182b:	ba 00 00 00 00       	mov    edx,0x0
  101830:	f7 f1                	div    ecx
  101832:	6b c0 10             	imul   eax,eax,0x10
  101835:	29 c4                	sub    esp,eax
  101837:	89 e0                	mov    eax,esp
  101839:	83 c0 00             	add    eax,0x0
  10183c:	89 45 e0             	mov    DWORD PTR [ebp-0x20],eax
  10183f:	83 ec 04             	sub    esp,0x4
  101842:	6a 10                	push   0x10
  101844:	6a 00                	push   0x0
  101846:	8d 45 c8             	lea    eax,[ebp-0x38]
  101849:	50                   	push   eax
  10184a:	e8 66 32 00 00       	call   104ab5 <memset>
  10184f:	83 c4 10             	add    esp,0x10
  101852:	8b 55 e8             	mov    edx,DWORD PTR [ebp-0x18]
  101855:	8b 45 e0             	mov    eax,DWORD PTR [ebp-0x20]
  101858:	83 ec 04             	sub    esp,0x4
  10185b:	52                   	push   edx
  10185c:	6a 00                	push   0x0
  10185e:	50                   	push   eax
  10185f:	e8 51 32 00 00       	call   104ab5 <memset>
  101864:	83 c4 10             	add    esp,0x10
  101867:	83 ec 0c             	sub    esp,0xc
  10186a:	68 f9 09 11 00       	push   0x1109f9
  10186f:	e8 47 f9 ff ff       	call   1011bb <debug_write>
  101874:	83 c4 10             	add    esp,0x10
  101877:	8b 45 08             	mov    eax,DWORD PTR [ebp+0x8]
  10187a:	6a 04                	push   0x4
  10187c:	6a 00                	push   0x0
  10187e:	8d 55 c8             	lea    edx,[ebp-0x38]
  101881:	52                   	push   edx
  101882:	50                   	push   eax
  101883:	e8 23 55 00 00       	call   106dab <strhex>
  101888:	83 c4 10             	add    esp,0x10
  10188b:	83 ec 08             	sub    esp,0x8
  10188e:	6a 0b                	push   0xb
  101890:	8d 45 c8             	lea    eax,[ebp-0x38]
  101893:	50                   	push   eax
  101894:	e8 59 f9 ff ff       	call   1011f2 <debug_write_col>
  101899:	83 c4 10             	add    esp,0x10
  10189c:	e8 b4 f8 ff ff       	call   101155 <debug_newline>
  1018a1:	c7 45 dc 00 00 00 00 	mov    DWORD PTR [ebp-0x24],0x0
  1018a8:	c7 45 d8 00 00 00 00 	mov    DWORD PTR [ebp-0x28],0x0
  1018af:	c7 45 f0 00 00 00 00 	mov    DWORD PTR [ebp-0x10],0x0
  1018b6:	e9 b3 01 00 00       	jmp    101a6e <debug_dumpmem+0x282>
  1018bb:	8b 45 e8             	mov    eax,DWORD PTR [ebp-0x18]
  1018be:	8b 55 f0             	mov    edx,DWORD PTR [ebp-0x10]
  1018c1:	0f af c2             	imul   eax,edx
  1018c4:	89 45 d8             	mov    DWORD PTR [ebp-0x28],eax
  1018c7:	8b 45 e0             	mov    eax,DWORD PTR [ebp-0x20]
  1018ca:	c6 00 00             	mov    BYTE PTR [eax],0x0
  1018cd:	8b 55 08             	mov    edx,DWORD PTR [ebp+0x8]
  1018d0:	8b 45 d8             	mov    eax,DWORD PTR [ebp-0x28]
  1018d3:	01 d0                	add    eax,edx
  1018d5:	89 c2                	mov    edx,eax
  1018d7:	6a 04                	push   0x4
  1018d9:	6a 01                	push   0x1
  1018db:	8d 45 c8             	lea    eax,[ebp-0x38]
  1018de:	50                   	push   eax
  1018df:	52                   	push   edx
  1018e0:	e8 c6 54 00 00       	call   106dab <strhex>
  1018e5:	83 c4 10             	add    esp,0x10
  1018e8:	83 ec 08             	sub    esp,0x8
  1018eb:	6a 0b                	push   0xb
  1018ed:	8d 45 c8             	lea    eax,[ebp-0x38]
  1018f0:	50                   	push   eax
  1018f1:	e8 fc f8 ff ff       	call   1011f2 <debug_write_col>
  1018f6:	83 c4 10             	add    esp,0x10
  1018f9:	83 ec 0c             	sub    esp,0xc
  1018fc:	68 0d 0a 11 00       	push   0x110a0d
  101901:	e8 b5 f8 ff ff       	call   1011bb <debug_write>
  101906:	83 c4 10             	add    esp,0x10
  101909:	8b 55 e8             	mov    edx,DWORD PTR [ebp-0x18]
  10190c:	8b 45 d8             	mov    eax,DWORD PTR [ebp-0x28]
  10190f:	01 d0                	add    eax,edx
  101911:	8d 50 ff             	lea    edx,[eax-0x1]
  101914:	8b 45 08             	mov    eax,DWORD PTR [ebp+0x8]
  101917:	01 d0                	add    eax,edx
  101919:	89 c2                	mov    edx,eax
  10191b:	6a 04                	push   0x4
  10191d:	6a 00                	push   0x0
  10191f:	8d 45 c8             	lea    eax,[ebp-0x38]
  101922:	50                   	push   eax
  101923:	52                   	push   edx
  101924:	e8 82 54 00 00       	call   106dab <strhex>
  101929:	83 c4 10             	add    esp,0x10
  10192c:	83 ec 08             	sub    esp,0x8
  10192f:	6a 0b                	push   0xb
  101931:	8d 45 c8             	lea    eax,[ebp-0x38]
  101934:	50                   	push   eax
  101935:	e8 b8 f8 ff ff       	call   1011f2 <debug_write_col>
  10193a:	83 c4 10             	add    esp,0x10
  10193d:	83 ec 0c             	sub    esp,0xc
  101940:	68 0f 0a 11 00       	push   0x110a0f
  101945:	e8 71 f8 ff ff       	call   1011bb <debug_write>
  10194a:	83 c4 10             	add    esp,0x10
  10194d:	c7 45 f4 00 00 00 00 	mov    DWORD PTR [ebp-0xc],0x0
  101954:	e9 df 00 00 00       	jmp    101a38 <debug_dumpmem+0x24c>
  101959:	83 ec 04             	sub    esp,0x4
  10195c:	6a 10                	push   0x10
  10195e:	6a 00                	push   0x0
  101960:	8d 45 c8             	lea    eax,[ebp-0x38]
  101963:	50                   	push   eax
  101964:	e8 4c 31 00 00       	call   104ab5 <memset>
  101969:	83 c4 10             	add    esp,0x10
  10196c:	8b 55 d8             	mov    edx,DWORD PTR [ebp-0x28]
  10196f:	8b 45 f4             	mov    eax,DWORD PTR [ebp-0xc]
  101972:	01 c2                	add    edx,eax
  101974:	8b 45 08             	mov    eax,DWORD PTR [ebp+0x8]
  101977:	01 d0                	add    eax,edx
  101979:	0f b6 00             	movzx  eax,BYTE PTR [eax]
  10197c:	0f b6 c0             	movzx  eax,al
  10197f:	6a 01                	push   0x1
  101981:	6a 00                	push   0x0
  101983:	8d 55 c8             	lea    edx,[ebp-0x38]
  101986:	52                   	push   edx
  101987:	50                   	push   eax
  101988:	e8 1e 54 00 00       	call   106dab <strhex>
  10198d:	83 c4 10             	add    esp,0x10
  101990:	8b 55 d8             	mov    edx,DWORD PTR [ebp-0x28]
  101993:	8b 45 f4             	mov    eax,DWORD PTR [ebp-0xc]
  101996:	01 c2                	add    edx,eax
  101998:	8b 45 08             	mov    eax,DWORD PTR [ebp+0x8]
  10199b:	01 d0                	add    eax,edx
  10199d:	0f b6 00             	movzx  eax,BYTE PTR [eax]
  1019a0:	84 c0                	test   al,al
  1019a2:	74 11                	je     1019b5 <debug_dumpmem+0x1c9>
  1019a4:	83 ec 0c             	sub    esp,0xc
  1019a7:	8d 45 c8             	lea    eax,[ebp-0x38]
  1019aa:	50                   	push   eax
  1019ab:	e8 0b f8 ff ff       	call   1011bb <debug_write>
  1019b0:	83 c4 10             	add    esp,0x10
  1019b3:	eb 11                	jmp    1019c6 <debug_dumpmem+0x1da>
  1019b5:	83 ec 08             	sub    esp,0x8
  1019b8:	6a 0c                	push   0xc
  1019ba:	8d 45 c8             	lea    eax,[ebp-0x38]
  1019bd:	50                   	push   eax
  1019be:	e8 2f f8 ff ff       	call   1011f2 <debug_write_col>
  1019c3:	83 c4 10             	add    esp,0x10
  1019c6:	83 ec 0c             	sub    esp,0xc
  1019c9:	68 14 0a 11 00       	push   0x110a14
  1019ce:	e8 e8 f7 ff ff       	call   1011bb <debug_write>
  1019d3:	83 c4 10             	add    esp,0x10
  1019d6:	8b 55 d8             	mov    edx,DWORD PTR [ebp-0x28]
  1019d9:	8b 45 f4             	mov    eax,DWORD PTR [ebp-0xc]
  1019dc:	01 c2                	add    edx,eax
  1019de:	8b 45 08             	mov    eax,DWORD PTR [ebp+0x8]
  1019e1:	01 d0                	add    eax,edx
  1019e3:	0f b6 00             	movzx  eax,BYTE PTR [eax]
  1019e6:	3c 1f                	cmp    al,0x1f
  1019e8:	76 39                	jbe    101a23 <debug_dumpmem+0x237>
  1019ea:	8b 55 d8             	mov    edx,DWORD PTR [ebp-0x28]
  1019ed:	8b 45 f4             	mov    eax,DWORD PTR [ebp-0xc]
  1019f0:	01 c2                	add    edx,eax
  1019f2:	8b 45 08             	mov    eax,DWORD PTR [ebp+0x8]
  1019f5:	01 d0                	add    eax,edx
  1019f7:	0f b6 00             	movzx  eax,BYTE PTR [eax]
  1019fa:	3c 7e                	cmp    al,0x7e
  1019fc:	77 25                	ja     101a23 <debug_dumpmem+0x237>
  1019fe:	8b 55 d8             	mov    edx,DWORD PTR [ebp-0x28]
  101a01:	8b 45 f4             	mov    eax,DWORD PTR [ebp-0xc]
  101a04:	01 c2                	add    edx,eax
  101a06:	8b 45 08             	mov    eax,DWORD PTR [ebp+0x8]
  101a09:	01 d0                	add    eax,edx
  101a0b:	0f b6 00             	movzx  eax,BYTE PTR [eax]
  101a0e:	0f b6 d0             	movzx  edx,al
  101a11:	8b 45 e0             	mov    eax,DWORD PTR [ebp-0x20]
  101a14:	83 ec 08             	sub    esp,0x8
  101a17:	52                   	push   edx
  101a18:	50                   	push   eax
  101a19:	e8 7c 55 00 00       	call   106f9a <stradd>
  101a1e:	83 c4 10             	add    esp,0x10
  101a21:	eb 11                	jmp    101a34 <debug_dumpmem+0x248>
  101a23:	8b 45 e0             	mov    eax,DWORD PTR [ebp-0x20]
  101a26:	83 ec 08             	sub    esp,0x8
  101a29:	6a 2e                	push   0x2e
  101a2b:	50                   	push   eax
  101a2c:	e8 69 55 00 00       	call   106f9a <stradd>
  101a31:	83 c4 10             	add    esp,0x10
  101a34:	83 45 f4 01          	add    DWORD PTR [ebp-0xc],0x1
  101a38:	8b 45 e8             	mov    eax,DWORD PTR [ebp-0x18]
  101a3b:	39 45 f4             	cmp    DWORD PTR [ebp-0xc],eax
  101a3e:	0f 82 15 ff ff ff    	jb     101959 <debug_dumpmem+0x16d>
  101a44:	83 ec 0c             	sub    esp,0xc
  101a47:	68 0f 0a 11 00       	push   0x110a0f
  101a4c:	e8 6a f7 ff ff       	call   1011bb <debug_write>
  101a51:	83 c4 10             	add    esp,0x10
  101a54:	8b 45 e0             	mov    eax,DWORD PTR [ebp-0x20]
  101a57:	83 ec 08             	sub    esp,0x8
  101a5a:	6a 0e                	push   0xe
  101a5c:	50                   	push   eax
  101a5d:	e8 90 f7 ff ff       	call   1011f2 <debug_write_col>
  101a62:	83 c4 10             	add    esp,0x10
  101a65:	e8 eb f6 ff ff       	call   101155 <debug_newline>
  101a6a:	83 45 f0 01          	add    DWORD PTR [ebp-0x10],0x1
  101a6e:	8b 4d e8             	mov    ecx,DWORD PTR [ebp-0x18]
  101a71:	8b 45 0c             	mov    eax,DWORD PTR [ebp+0xc]
  101a74:	ba 00 00 00 00       	mov    edx,0x0
  101a79:	f7 f1                	div    ecx
  101a7b:	39 45 f0             	cmp    DWORD PTR [ebp-0x10],eax
  101a7e:	0f 82 37 fe ff ff    	jb     1018bb <debug_dumpmem+0xcf>
  101a84:	83 ec 0c             	sub    esp,0xc
  101a87:	ff 75 ec             	push   DWORD PTR [ebp-0x14]
  101a8a:	e8 2d f6 ff ff       	call   1010bc <debug_setmode>
  101a8f:	83 c4 10             	add    esp,0x10
  101a92:	89 dc                	mov    esp,ebx
  101a94:	90                   	nop
  101a95:	8b 5d fc             	mov    ebx,DWORD PTR [ebp-0x4]
  101a98:	c9                   	leave  
  101a99:	c3                   	ret    

00101a9a <debug_dumpregs>:
  101a9a:	55                   	push   ebp
  101a9b:	89 e5                	mov    ebp,esp
  101a9d:	83 ec 58             	sub    esp,0x58
  101aa0:	e8 43 f6 ff ff       	call   1010e8 <debug_getmode>
  101aa5:	89 45 f4             	mov    DWORD PTR [ebp-0xc],eax
  101aa8:	ff 75 0c             	push   DWORD PTR [ebp+0xc]
  101aab:	e8 0c f6 ff ff       	call   1010bc <debug_setmode>
  101ab0:	83 c4 04             	add    esp,0x4
  101ab3:	83 ec 0c             	sub    esp,0xc
  101ab6:	68 16 0a 11 00       	push   0x110a16
  101abb:	e8 79 f7 ff ff       	call   101239 <debug_writeln>
  101ac0:	83 c4 10             	add    esp,0x10
  101ac3:	83 ec 04             	sub    esp,0x4
  101ac6:	6a 40                	push   0x40
  101ac8:	6a 00                	push   0x0
  101aca:	8d 45 b4             	lea    eax,[ebp-0x4c]
  101acd:	50                   	push   eax
  101ace:	e8 e2 2f 00 00       	call   104ab5 <memset>
  101ad3:	83 c4 10             	add    esp,0x10
  101ad6:	83 ec 0c             	sub    esp,0xc
  101ad9:	68 21 0a 11 00       	push   0x110a21
  101ade:	e8 d8 f6 ff ff       	call   1011bb <debug_write>
  101ae3:	83 c4 10             	add    esp,0x10
  101ae6:	8b 45 08             	mov    eax,DWORD PTR [ebp+0x8]
  101ae9:	8b 40 20             	mov    eax,DWORD PTR [eax+0x20]
  101aec:	6a 04                	push   0x4
  101aee:	6a 01                	push   0x1
  101af0:	8d 55 b4             	lea    edx,[ebp-0x4c]
  101af3:	52                   	push   edx
  101af4:	50                   	push   eax
  101af5:	e8 b1 52 00 00       	call   106dab <strhex>
  101afa:	83 c4 10             	add    esp,0x10
  101afd:	83 ec 0c             	sub    esp,0xc
  101b00:	50                   	push   eax
  101b01:	e8 b5 f6 ff ff       	call   1011bb <debug_write>
  101b06:	83 c4 10             	add    esp,0x10
  101b09:	83 ec 0c             	sub    esp,0xc
  101b0c:	68 14 0a 11 00       	push   0x110a14
  101b11:	e8 a5 f6 ff ff       	call   1011bb <debug_write>
  101b16:	83 c4 10             	add    esp,0x10
  101b19:	83 ec 04             	sub    esp,0x4
  101b1c:	6a 40                	push   0x40
  101b1e:	6a 00                	push   0x0
  101b20:	8d 45 b4             	lea    eax,[ebp-0x4c]
  101b23:	50                   	push   eax
  101b24:	e8 8c 2f 00 00       	call   104ab5 <memset>
  101b29:	83 c4 10             	add    esp,0x10
  101b2c:	83 ec 0c             	sub    esp,0xc
  101b2f:	68 27 0a 11 00       	push   0x110a27
  101b34:	e8 82 f6 ff ff       	call   1011bb <debug_write>
  101b39:	83 c4 10             	add    esp,0x10
  101b3c:	8b 45 08             	mov    eax,DWORD PTR [ebp+0x8]
  101b3f:	8b 40 14             	mov    eax,DWORD PTR [eax+0x14]
  101b42:	6a 04                	push   0x4
  101b44:	6a 01                	push   0x1
  101b46:	8d 55 b4             	lea    edx,[ebp-0x4c]
  101b49:	52                   	push   edx
  101b4a:	50                   	push   eax
  101b4b:	e8 5b 52 00 00       	call   106dab <strhex>
  101b50:	83 c4 10             	add    esp,0x10
  101b53:	83 ec 0c             	sub    esp,0xc
  101b56:	50                   	push   eax
  101b57:	e8 5f f6 ff ff       	call   1011bb <debug_write>
  101b5c:	83 c4 10             	add    esp,0x10
  101b5f:	83 ec 0c             	sub    esp,0xc
  101b62:	68 14 0a 11 00       	push   0x110a14
  101b67:	e8 4f f6 ff ff       	call   1011bb <debug_write>
  101b6c:	83 c4 10             	add    esp,0x10
  101b6f:	83 ec 04             	sub    esp,0x4
  101b72:	6a 40                	push   0x40
  101b74:	6a 00                	push   0x0
  101b76:	8d 45 b4             	lea    eax,[ebp-0x4c]
  101b79:	50                   	push   eax
  101b7a:	e8 36 2f 00 00       	call   104ab5 <memset>
  101b7f:	83 c4 10             	add    esp,0x10
  101b82:	83 ec 0c             	sub    esp,0xc
  101b85:	68 2d 0a 11 00       	push   0x110a2d
  101b8a:	e8 2c f6 ff ff       	call   1011bb <debug_write>
  101b8f:	83 c4 10             	add    esp,0x10
  101b92:	8b 45 08             	mov    eax,DWORD PTR [ebp+0x8]
  101b95:	8b 40 1c             	mov    eax,DWORD PTR [eax+0x1c]
  101b98:	6a 04                	push   0x4
  101b9a:	6a 01                	push   0x1
  101b9c:	8d 55 b4             	lea    edx,[ebp-0x4c]
  101b9f:	52                   	push   edx
  101ba0:	50                   	push   eax
  101ba1:	e8 05 52 00 00       	call   106dab <strhex>
  101ba6:	83 c4 10             	add    esp,0x10
  101ba9:	83 ec 0c             	sub    esp,0xc
  101bac:	50                   	push   eax
  101bad:	e8 09 f6 ff ff       	call   1011bb <debug_write>
  101bb2:	83 c4 10             	add    esp,0x10
  101bb5:	83 ec 0c             	sub    esp,0xc
  101bb8:	68 14 0a 11 00       	push   0x110a14
  101bbd:	e8 f9 f5 ff ff       	call   1011bb <debug_write>
  101bc2:	83 c4 10             	add    esp,0x10
  101bc5:	83 ec 04             	sub    esp,0x4
  101bc8:	6a 40                	push   0x40
  101bca:	6a 00                	push   0x0
  101bcc:	8d 45 b4             	lea    eax,[ebp-0x4c]
  101bcf:	50                   	push   eax
  101bd0:	e8 e0 2e 00 00       	call   104ab5 <memset>
  101bd5:	83 c4 10             	add    esp,0x10
  101bd8:	83 ec 0c             	sub    esp,0xc
  101bdb:	68 33 0a 11 00       	push   0x110a33
  101be0:	e8 d6 f5 ff ff       	call   1011bb <debug_write>
  101be5:	83 c4 10             	add    esp,0x10
  101be8:	8b 45 08             	mov    eax,DWORD PTR [ebp+0x8]
  101beb:	8b 40 18             	mov    eax,DWORD PTR [eax+0x18]
  101bee:	6a 04                	push   0x4
  101bf0:	6a 01                	push   0x1
  101bf2:	8d 55 b4             	lea    edx,[ebp-0x4c]
  101bf5:	52                   	push   edx
  101bf6:	50                   	push   eax
  101bf7:	e8 af 51 00 00       	call   106dab <strhex>
  101bfc:	83 c4 10             	add    esp,0x10
  101bff:	83 ec 0c             	sub    esp,0xc
  101c02:	50                   	push   eax
  101c03:	e8 b3 f5 ff ff       	call   1011bb <debug_write>
  101c08:	83 c4 10             	add    esp,0x10
  101c0b:	83 ec 0c             	sub    esp,0xc
  101c0e:	68 14 0a 11 00       	push   0x110a14
  101c13:	e8 a3 f5 ff ff       	call   1011bb <debug_write>
  101c18:	83 c4 10             	add    esp,0x10
  101c1b:	83 ec 04             	sub    esp,0x4
  101c1e:	6a 40                	push   0x40
  101c20:	6a 00                	push   0x0
  101c22:	8d 45 b4             	lea    eax,[ebp-0x4c]
  101c25:	50                   	push   eax
  101c26:	e8 8a 2e 00 00       	call   104ab5 <memset>
  101c2b:	83 c4 10             	add    esp,0x10
  101c2e:	e8 22 f5 ff ff       	call   101155 <debug_newline>
  101c33:	83 ec 0c             	sub    esp,0xc
  101c36:	68 39 0a 11 00       	push   0x110a39
  101c3b:	e8 7b f5 ff ff       	call   1011bb <debug_write>
  101c40:	83 c4 10             	add    esp,0x10
  101c43:	8b 45 08             	mov    eax,DWORD PTR [ebp+0x8]
  101c46:	8b 40 10             	mov    eax,DWORD PTR [eax+0x10]
  101c49:	6a 04                	push   0x4
  101c4b:	6a 01                	push   0x1
  101c4d:	8d 55 b4             	lea    edx,[ebp-0x4c]
  101c50:	52                   	push   edx
  101c51:	50                   	push   eax
  101c52:	e8 54 51 00 00       	call   106dab <strhex>
  101c57:	83 c4 10             	add    esp,0x10
  101c5a:	83 ec 0c             	sub    esp,0xc
  101c5d:	50                   	push   eax
  101c5e:	e8 58 f5 ff ff       	call   1011bb <debug_write>
  101c63:	83 c4 10             	add    esp,0x10
  101c66:	83 ec 0c             	sub    esp,0xc
  101c69:	68 14 0a 11 00       	push   0x110a14
  101c6e:	e8 48 f5 ff ff       	call   1011bb <debug_write>
  101c73:	83 c4 10             	add    esp,0x10
  101c76:	83 ec 04             	sub    esp,0x4
  101c79:	6a 40                	push   0x40
  101c7b:	6a 00                	push   0x0
  101c7d:	8d 45 b4             	lea    eax,[ebp-0x4c]
  101c80:	50                   	push   eax
  101c81:	e8 2f 2e 00 00       	call   104ab5 <memset>
  101c86:	83 c4 10             	add    esp,0x10
  101c89:	83 ec 0c             	sub    esp,0xc
  101c8c:	68 3f 0a 11 00       	push   0x110a3f
  101c91:	e8 25 f5 ff ff       	call   1011bb <debug_write>
  101c96:	83 c4 10             	add    esp,0x10
  101c99:	8b 45 08             	mov    eax,DWORD PTR [ebp+0x8]
  101c9c:	8b 40 0c             	mov    eax,DWORD PTR [eax+0xc]
  101c9f:	6a 04                	push   0x4
  101ca1:	6a 01                	push   0x1
  101ca3:	8d 55 b4             	lea    edx,[ebp-0x4c]
  101ca6:	52                   	push   edx
  101ca7:	50                   	push   eax
  101ca8:	e8 fe 50 00 00       	call   106dab <strhex>
  101cad:	83 c4 10             	add    esp,0x10
  101cb0:	83 ec 0c             	sub    esp,0xc
  101cb3:	50                   	push   eax
  101cb4:	e8 02 f5 ff ff       	call   1011bb <debug_write>
  101cb9:	83 c4 10             	add    esp,0x10
  101cbc:	83 ec 0c             	sub    esp,0xc
  101cbf:	68 14 0a 11 00       	push   0x110a14
  101cc4:	e8 f2 f4 ff ff       	call   1011bb <debug_write>
  101cc9:	83 c4 10             	add    esp,0x10
  101ccc:	83 ec 04             	sub    esp,0x4
  101ccf:	6a 40                	push   0x40
  101cd1:	6a 00                	push   0x0
  101cd3:	8d 45 b4             	lea    eax,[ebp-0x4c]
  101cd6:	50                   	push   eax
  101cd7:	e8 d9 2d 00 00       	call   104ab5 <memset>
  101cdc:	83 c4 10             	add    esp,0x10
  101cdf:	83 ec 0c             	sub    esp,0xc
  101ce2:	68 45 0a 11 00       	push   0x110a45
  101ce7:	e8 cf f4 ff ff       	call   1011bb <debug_write>
  101cec:	83 c4 10             	add    esp,0x10
  101cef:	8b 45 08             	mov    eax,DWORD PTR [ebp+0x8]
  101cf2:	8b 40 08             	mov    eax,DWORD PTR [eax+0x8]
  101cf5:	6a 04                	push   0x4
  101cf7:	6a 01                	push   0x1
  101cf9:	8d 55 b4             	lea    edx,[ebp-0x4c]
  101cfc:	52                   	push   edx
  101cfd:	50                   	push   eax
  101cfe:	e8 a8 50 00 00       	call   106dab <strhex>
  101d03:	83 c4 10             	add    esp,0x10
  101d06:	83 ec 0c             	sub    esp,0xc
  101d09:	50                   	push   eax
  101d0a:	e8 ac f4 ff ff       	call   1011bb <debug_write>
  101d0f:	83 c4 10             	add    esp,0x10
  101d12:	83 ec 0c             	sub    esp,0xc
  101d15:	68 14 0a 11 00       	push   0x110a14
  101d1a:	e8 9c f4 ff ff       	call   1011bb <debug_write>
  101d1f:	83 c4 10             	add    esp,0x10
  101d22:	83 ec 04             	sub    esp,0x4
  101d25:	6a 40                	push   0x40
  101d27:	6a 00                	push   0x0
  101d29:	8d 45 b4             	lea    eax,[ebp-0x4c]
  101d2c:	50                   	push   eax
  101d2d:	e8 83 2d 00 00       	call   104ab5 <memset>
  101d32:	83 c4 10             	add    esp,0x10
  101d35:	83 ec 0c             	sub    esp,0xc
  101d38:	68 4b 0a 11 00       	push   0x110a4b
  101d3d:	e8 79 f4 ff ff       	call   1011bb <debug_write>
  101d42:	83 c4 10             	add    esp,0x10
  101d45:	8b 45 08             	mov    eax,DWORD PTR [ebp+0x8]
  101d48:	8b 40 04             	mov    eax,DWORD PTR [eax+0x4]
  101d4b:	6a 04                	push   0x4
  101d4d:	6a 01                	push   0x1
  101d4f:	8d 55 b4             	lea    edx,[ebp-0x4c]
  101d52:	52                   	push   edx
  101d53:	50                   	push   eax
  101d54:	e8 52 50 00 00       	call   106dab <strhex>
  101d59:	83 c4 10             	add    esp,0x10
  101d5c:	83 ec 0c             	sub    esp,0xc
  101d5f:	50                   	push   eax
  101d60:	e8 56 f4 ff ff       	call   1011bb <debug_write>
  101d65:	83 c4 10             	add    esp,0x10
  101d68:	83 ec 0c             	sub    esp,0xc
  101d6b:	68 14 0a 11 00       	push   0x110a14
  101d70:	e8 46 f4 ff ff       	call   1011bb <debug_write>
  101d75:	83 c4 10             	add    esp,0x10
  101d78:	83 ec 04             	sub    esp,0x4
  101d7b:	6a 40                	push   0x40
  101d7d:	6a 00                	push   0x0
  101d7f:	8d 45 b4             	lea    eax,[ebp-0x4c]
  101d82:	50                   	push   eax
  101d83:	e8 2d 2d 00 00       	call   104ab5 <memset>
  101d88:	83 c4 10             	add    esp,0x10
  101d8b:	e8 c5 f3 ff ff       	call   101155 <debug_newline>
  101d90:	83 ec 0c             	sub    esp,0xc
  101d93:	68 51 0a 11 00       	push   0x110a51
  101d98:	e8 1e f4 ff ff       	call   1011bb <debug_write>
  101d9d:	83 c4 10             	add    esp,0x10
  101da0:	8b 45 08             	mov    eax,DWORD PTR [ebp+0x8]
  101da3:	8b 40 2c             	mov    eax,DWORD PTR [eax+0x2c]
  101da6:	6a 04                	push   0x4
  101da8:	6a 01                	push   0x1
  101daa:	8d 55 b4             	lea    edx,[ebp-0x4c]
  101dad:	52                   	push   edx
  101dae:	50                   	push   eax
  101daf:	e8 f7 4f 00 00       	call   106dab <strhex>
  101db4:	83 c4 10             	add    esp,0x10
  101db7:	83 ec 0c             	sub    esp,0xc
  101dba:	50                   	push   eax
  101dbb:	e8 79 f4 ff ff       	call   101239 <debug_writeln>
  101dc0:	83 c4 10             	add    esp,0x10
  101dc3:	83 ec 04             	sub    esp,0x4
  101dc6:	6a 40                	push   0x40
  101dc8:	6a 00                	push   0x0
  101dca:	8d 45 b4             	lea    eax,[ebp-0x4c]
  101dcd:	50                   	push   eax
  101dce:	e8 e2 2c 00 00       	call   104ab5 <memset>
  101dd3:	83 c4 10             	add    esp,0x10
  101dd6:	83 ec 0c             	sub    esp,0xc
  101dd9:	68 57 0a 11 00       	push   0x110a57
  101dde:	e8 d8 f3 ff ff       	call   1011bb <debug_write>
  101de3:	83 c4 10             	add    esp,0x10
  101de6:	8b 45 08             	mov    eax,DWORD PTR [ebp+0x8]
  101de9:	8b 40 34             	mov    eax,DWORD PTR [eax+0x34]
  101dec:	0f b7 c0             	movzx  eax,ax
  101def:	6a 02                	push   0x2
  101df1:	6a 01                	push   0x1
  101df3:	8d 55 b4             	lea    edx,[ebp-0x4c]
  101df6:	52                   	push   edx
  101df7:	50                   	push   eax
  101df8:	e8 ae 4f 00 00       	call   106dab <strhex>
  101dfd:	83 c4 10             	add    esp,0x10
  101e00:	83 ec 0c             	sub    esp,0xc
  101e03:	50                   	push   eax
  101e04:	e8 30 f4 ff ff       	call   101239 <debug_writeln>
  101e09:	83 c4 10             	add    esp,0x10
  101e0c:	83 ec 04             	sub    esp,0x4
  101e0f:	6a 40                	push   0x40
  101e11:	6a 00                	push   0x0
  101e13:	8d 45 b4             	lea    eax,[ebp-0x4c]
  101e16:	50                   	push   eax
  101e17:	e8 99 2c 00 00       	call   104ab5 <memset>
  101e1c:	83 c4 10             	add    esp,0x10
  101e1f:	83 ec 0c             	sub    esp,0xc
  101e22:	68 5d 0a 11 00       	push   0x110a5d
  101e27:	e8 8f f3 ff ff       	call   1011bb <debug_write>
  101e2c:	83 c4 10             	add    esp,0x10
  101e2f:	8b 45 08             	mov    eax,DWORD PTR [ebp+0x8]
  101e32:	8b 40 30             	mov    eax,DWORD PTR [eax+0x30]
  101e35:	0f b7 c0             	movzx  eax,ax
  101e38:	6a 02                	push   0x2
  101e3a:	6a 01                	push   0x1
  101e3c:	8d 55 b4             	lea    edx,[ebp-0x4c]
  101e3f:	52                   	push   edx
  101e40:	50                   	push   eax
  101e41:	e8 65 4f 00 00       	call   106dab <strhex>
  101e46:	83 c4 10             	add    esp,0x10
  101e49:	83 ec 0c             	sub    esp,0xc
  101e4c:	50                   	push   eax
  101e4d:	e8 e7 f3 ff ff       	call   101239 <debug_writeln>
  101e52:	83 c4 10             	add    esp,0x10
  101e55:	83 ec 04             	sub    esp,0x4
  101e58:	6a 40                	push   0x40
  101e5a:	6a 00                	push   0x0
  101e5c:	8d 45 b4             	lea    eax,[ebp-0x4c]
  101e5f:	50                   	push   eax
  101e60:	e8 50 2c 00 00       	call   104ab5 <memset>
  101e65:	83 c4 10             	add    esp,0x10
  101e68:	83 ec 0c             	sub    esp,0xc
  101e6b:	68 63 0a 11 00       	push   0x110a63
  101e70:	e8 46 f3 ff ff       	call   1011bb <debug_write>
  101e75:	83 c4 10             	add    esp,0x10
  101e78:	8b 45 08             	mov    eax,DWORD PTR [ebp+0x8]
  101e7b:	8b 00                	mov    eax,DWORD PTR [eax]
  101e7d:	0f b7 c0             	movzx  eax,ax
  101e80:	6a 02                	push   0x2
  101e82:	6a 01                	push   0x1
  101e84:	8d 55 b4             	lea    edx,[ebp-0x4c]
  101e87:	52                   	push   edx
  101e88:	50                   	push   eax
  101e89:	e8 1d 4f 00 00       	call   106dab <strhex>
  101e8e:	83 c4 10             	add    esp,0x10
  101e91:	83 ec 0c             	sub    esp,0xc
  101e94:	50                   	push   eax
  101e95:	e8 9f f3 ff ff       	call   101239 <debug_writeln>
  101e9a:	83 c4 10             	add    esp,0x10
  101e9d:	83 ec 04             	sub    esp,0x4
  101ea0:	6a 40                	push   0x40
  101ea2:	6a 00                	push   0x0
  101ea4:	8d 45 b4             	lea    eax,[ebp-0x4c]
  101ea7:	50                   	push   eax
  101ea8:	e8 08 2c 00 00       	call   104ab5 <memset>
  101ead:	83 c4 10             	add    esp,0x10
  101eb0:	83 ec 0c             	sub    esp,0xc
  101eb3:	68 69 0a 11 00       	push   0x110a69
  101eb8:	e8 fe f2 ff ff       	call   1011bb <debug_write>
  101ebd:	83 c4 10             	add    esp,0x10
  101ec0:	8b 45 08             	mov    eax,DWORD PTR [ebp+0x8]
  101ec3:	8b 40 3c             	mov    eax,DWORD PTR [eax+0x3c]
  101ec6:	0f b7 c0             	movzx  eax,ax
  101ec9:	6a 02                	push   0x2
  101ecb:	6a 01                	push   0x1
  101ecd:	8d 55 b4             	lea    edx,[ebp-0x4c]
  101ed0:	52                   	push   edx
  101ed1:	50                   	push   eax
  101ed2:	e8 d4 4e 00 00       	call   106dab <strhex>
  101ed7:	83 c4 10             	add    esp,0x10
  101eda:	83 ec 0c             	sub    esp,0xc
  101edd:	50                   	push   eax
  101ede:	e8 56 f3 ff ff       	call   101239 <debug_writeln>
  101ee3:	83 c4 10             	add    esp,0x10
  101ee6:	83 ec 04             	sub    esp,0x4
  101ee9:	6a 40                	push   0x40
  101eeb:	6a 00                	push   0x0
  101eed:	8d 45 b4             	lea    eax,[ebp-0x4c]
  101ef0:	50                   	push   eax
  101ef1:	e8 bf 2b 00 00       	call   104ab5 <memset>
  101ef6:	83 c4 10             	add    esp,0x10
  101ef9:	83 ec 0c             	sub    esp,0xc
  101efc:	68 6f 0a 11 00       	push   0x110a6f
  101f01:	e8 b5 f2 ff ff       	call   1011bb <debug_write>
  101f06:	83 c4 10             	add    esp,0x10
  101f09:	8b 45 08             	mov    eax,DWORD PTR [ebp+0x8]
  101f0c:	8b 40 24             	mov    eax,DWORD PTR [eax+0x24]
  101f0f:	0f b7 c0             	movzx  eax,ax
  101f12:	6a 02                	push   0x2
  101f14:	6a 01                	push   0x1
  101f16:	8d 55 b4             	lea    edx,[ebp-0x4c]
  101f19:	52                   	push   edx
  101f1a:	50                   	push   eax
  101f1b:	e8 8b 4e 00 00       	call   106dab <strhex>
  101f20:	83 c4 10             	add    esp,0x10
  101f23:	83 ec 0c             	sub    esp,0xc
  101f26:	50                   	push   eax
  101f27:	e8 0d f3 ff ff       	call   101239 <debug_writeln>
  101f2c:	83 c4 10             	add    esp,0x10
  101f2f:	83 ec 04             	sub    esp,0x4
  101f32:	6a 40                	push   0x40
  101f34:	6a 00                	push   0x0
  101f36:	8d 45 b4             	lea    eax,[ebp-0x4c]
  101f39:	50                   	push   eax
  101f3a:	e8 76 2b 00 00       	call   104ab5 <memset>
  101f3f:	83 c4 10             	add    esp,0x10
  101f42:	83 ec 0c             	sub    esp,0xc
  101f45:	68 75 0a 11 00       	push   0x110a75
  101f4a:	e8 6c f2 ff ff       	call   1011bb <debug_write>
  101f4f:	83 c4 10             	add    esp,0x10
  101f52:	8b 45 08             	mov    eax,DWORD PTR [ebp+0x8]
  101f55:	8b 40 28             	mov    eax,DWORD PTR [eax+0x28]
  101f58:	0f b7 c0             	movzx  eax,ax
  101f5b:	6a 02                	push   0x2
  101f5d:	6a 01                	push   0x1
  101f5f:	8d 55 b4             	lea    edx,[ebp-0x4c]
  101f62:	52                   	push   edx
  101f63:	50                   	push   eax
  101f64:	e8 42 4e 00 00       	call   106dab <strhex>
  101f69:	83 c4 10             	add    esp,0x10
  101f6c:	83 ec 0c             	sub    esp,0xc
  101f6f:	50                   	push   eax
  101f70:	e8 c4 f2 ff ff       	call   101239 <debug_writeln>
  101f75:	83 c4 10             	add    esp,0x10
  101f78:	83 ec 04             	sub    esp,0x4
  101f7b:	6a 40                	push   0x40
  101f7d:	6a 00                	push   0x0
  101f7f:	8d 45 b4             	lea    eax,[ebp-0x4c]
  101f82:	50                   	push   eax
  101f83:	e8 2d 2b 00 00       	call   104ab5 <memset>
  101f88:	83 c4 10             	add    esp,0x10
  101f8b:	83 ec 0c             	sub    esp,0xc
  101f8e:	ff 75 f4             	push   DWORD PTR [ebp-0xc]
  101f91:	e8 26 f1 ff ff       	call   1010bc <debug_setmode>
  101f96:	83 c4 10             	add    esp,0x10
  101f99:	90                   	nop
  101f9a:	c9                   	leave  
  101f9b:	c3                   	ret    

00101f9c <debug_dumpregs_raw>:
  101f9c:	55                   	push   ebp
  101f9d:	89 e5                	mov    ebp,esp
  101f9f:	57                   	push   edi
  101fa0:	56                   	push   esi
  101fa1:	53                   	push   ebx
  101fa2:	83 ec 6c             	sub    esp,0x6c
  101fa5:	e8 3e f1 ff ff       	call   1010e8 <debug_getmode>
  101faa:	89 45 e4             	mov    DWORD PTR [ebp-0x1c],eax
  101fad:	ff 75 08             	push   DWORD PTR [ebp+0x8]
  101fb0:	e8 07 f1 ff ff       	call   1010bc <debug_setmode>
  101fb5:	83 c4 04             	add    esp,0x4
  101fb8:	83 ec 08             	sub    esp,0x8
  101fbb:	6a 08                	push   0x8
  101fbd:	68 7b 0a 11 00       	push   0x110a7b
  101fc2:	e8 2b f2 ff ff       	call   1011f2 <debug_write_col>
  101fc7:	83 c4 10             	add    esp,0x10
  101fca:	83 ec 08             	sub    esp,0x8
  101fcd:	6a 0e                	push   0xe
  101fcf:	68 83 0a 11 00       	push   0x110a83
  101fd4:	e8 19 f2 ff ff       	call   1011f2 <debug_write_col>
  101fd9:	83 c4 10             	add    esp,0x10
  101fdc:	83 ec 08             	sub    esp,0x8
  101fdf:	6a 08                	push   0x8
  101fe1:	68 90 0a 11 00       	push   0x110a90
  101fe6:	e8 07 f2 ff ff       	call   1011f2 <debug_write_col>
  101feb:	83 c4 10             	add    esp,0x10
  101fee:	83 ec 04             	sub    esp,0x4
  101ff1:	6a 40                	push   0x40
  101ff3:	6a 00                	push   0x0
  101ff5:	8d 45 a4             	lea    eax,[ebp-0x5c]
  101ff8:	50                   	push   eax
  101ff9:	e8 b7 2a 00 00       	call   104ab5 <memset>
  101ffe:	83 c4 10             	add    esp,0x10
  102001:	83 ec 0c             	sub    esp,0xc
  102004:	68 3f 0a 11 00       	push   0x110a3f
  102009:	e8 ad f1 ff ff       	call   1011bb <debug_write>
  10200e:	83 c4 10             	add    esp,0x10
  102011:	89 6d 94             	mov    DWORD PTR [ebp-0x6c],ebp
  102014:	6a 04                	push   0x4
  102016:	6a 01                	push   0x1
  102018:	8d 45 a4             	lea    eax,[ebp-0x5c]
  10201b:	50                   	push   eax
  10201c:	ff 75 94             	push   DWORD PTR [ebp-0x6c]
  10201f:	e8 87 4d 00 00       	call   106dab <strhex>
  102024:	83 c4 10             	add    esp,0x10
  102027:	83 ec 0c             	sub    esp,0xc
  10202a:	50                   	push   eax
  10202b:	e8 8b f1 ff ff       	call   1011bb <debug_write>
  102030:	83 c4 10             	add    esp,0x10
  102033:	83 ec 0c             	sub    esp,0xc
  102036:	68 14 0a 11 00       	push   0x110a14
  10203b:	e8 7b f1 ff ff       	call   1011bb <debug_write>
  102040:	83 c4 10             	add    esp,0x10
  102043:	83 ec 0c             	sub    esp,0xc
  102046:	68 39 0a 11 00       	push   0x110a39
  10204b:	e8 6b f1 ff ff       	call   1011bb <debug_write>
  102050:	83 c4 10             	add    esp,0x10
  102053:	89 65 94             	mov    DWORD PTR [ebp-0x6c],esp
  102056:	6a 04                	push   0x4
  102058:	6a 01                	push   0x1
  10205a:	8d 45 a4             	lea    eax,[ebp-0x5c]
  10205d:	50                   	push   eax
  10205e:	ff 75 94             	push   DWORD PTR [ebp-0x6c]
  102061:	e8 45 4d 00 00       	call   106dab <strhex>
  102066:	83 c4 10             	add    esp,0x10
  102069:	83 ec 0c             	sub    esp,0xc
  10206c:	50                   	push   eax
  10206d:	e8 49 f1 ff ff       	call   1011bb <debug_write>
  102072:	83 c4 10             	add    esp,0x10
  102075:	83 ec 0c             	sub    esp,0xc
  102078:	68 14 0a 11 00       	push   0x110a14
  10207d:	e8 39 f1 ff ff       	call   1011bb <debug_write>
  102082:	83 c4 10             	add    esp,0x10
  102085:	83 ec 0c             	sub    esp,0xc
  102088:	68 45 0a 11 00       	push   0x110a45
  10208d:	e8 29 f1 ff ff       	call   1011bb <debug_write>
  102092:	83 c4 10             	add    esp,0x10
  102095:	6a 04                	push   0x4
  102097:	6a 01                	push   0x1
  102099:	8d 45 a4             	lea    eax,[ebp-0x5c]
  10209c:	50                   	push   eax
  10209d:	56                   	push   esi
  10209e:	e8 08 4d 00 00       	call   106dab <strhex>
  1020a3:	83 c4 10             	add    esp,0x10
  1020a6:	83 ec 0c             	sub    esp,0xc
  1020a9:	50                   	push   eax
  1020aa:	e8 0c f1 ff ff       	call   1011bb <debug_write>
  1020af:	83 c4 10             	add    esp,0x10
  1020b2:	83 ec 0c             	sub    esp,0xc
  1020b5:	68 14 0a 11 00       	push   0x110a14
  1020ba:	e8 fc f0 ff ff       	call   1011bb <debug_write>
  1020bf:	83 c4 10             	add    esp,0x10
  1020c2:	83 ec 0c             	sub    esp,0xc
  1020c5:	68 4b 0a 11 00       	push   0x110a4b
  1020ca:	e8 ec f0 ff ff       	call   1011bb <debug_write>
  1020cf:	83 c4 10             	add    esp,0x10
  1020d2:	89 fe                	mov    esi,edi
  1020d4:	6a 04                	push   0x4
  1020d6:	6a 01                	push   0x1
  1020d8:	8d 45 a4             	lea    eax,[ebp-0x5c]
  1020db:	50                   	push   eax
  1020dc:	56                   	push   esi
  1020dd:	e8 c9 4c 00 00       	call   106dab <strhex>
  1020e2:	83 c4 10             	add    esp,0x10
  1020e5:	83 ec 0c             	sub    esp,0xc
  1020e8:	50                   	push   eax
  1020e9:	e8 cd f0 ff ff       	call   1011bb <debug_write>
  1020ee:	83 c4 10             	add    esp,0x10
  1020f1:	83 ec 0c             	sub    esp,0xc
  1020f4:	68 14 0a 11 00       	push   0x110a14
  1020f9:	e8 bd f0 ff ff       	call   1011bb <debug_write>
  1020fe:	83 c4 10             	add    esp,0x10
  102101:	83 ec 0c             	sub    esp,0xc
  102104:	68 27 0a 11 00       	push   0x110a27
  102109:	e8 ad f0 ff ff       	call   1011bb <debug_write>
  10210e:	83 c4 10             	add    esp,0x10
  102111:	6a 04                	push   0x4
  102113:	6a 01                	push   0x1
  102115:	8d 45 a4             	lea    eax,[ebp-0x5c]
  102118:	50                   	push   eax
  102119:	53                   	push   ebx
  10211a:	e8 8c 4c 00 00       	call   106dab <strhex>
  10211f:	83 c4 10             	add    esp,0x10
  102122:	89 c3                	mov    ebx,eax
  102124:	83 ec 0c             	sub    esp,0xc
  102127:	53                   	push   ebx
  102128:	e8 8e f0 ff ff       	call   1011bb <debug_write>
  10212d:	83 c4 10             	add    esp,0x10
  102130:	83 ec 0c             	sub    esp,0xc
  102133:	68 14 0a 11 00       	push   0x110a14
  102138:	e8 7e f0 ff ff       	call   1011bb <debug_write>
  10213d:	83 c4 10             	add    esp,0x10
  102140:	e8 10 f0 ff ff       	call   101155 <debug_newline>
  102145:	83 ec 0c             	sub    esp,0xc
  102148:	68 21 0a 11 00       	push   0x110a21
  10214d:	e8 69 f0 ff ff       	call   1011bb <debug_write>
  102152:	83 c4 10             	add    esp,0x10
  102155:	89 c3                	mov    ebx,eax
  102157:	6a 04                	push   0x4
  102159:	6a 01                	push   0x1
  10215b:	8d 45 a4             	lea    eax,[ebp-0x5c]
  10215e:	50                   	push   eax
  10215f:	53                   	push   ebx
  102160:	e8 46 4c 00 00       	call   106dab <strhex>
  102165:	83 c4 10             	add    esp,0x10
  102168:	83 ec 0c             	sub    esp,0xc
  10216b:	50                   	push   eax
  10216c:	e8 4a f0 ff ff       	call   1011bb <debug_write>
  102171:	83 c4 10             	add    esp,0x10
  102174:	83 ec 0c             	sub    esp,0xc
  102177:	68 14 0a 11 00       	push   0x110a14
  10217c:	e8 3a f0 ff ff       	call   1011bb <debug_write>
  102181:	83 c4 10             	add    esp,0x10
  102184:	83 ec 0c             	sub    esp,0xc
  102187:	68 2d 0a 11 00       	push   0x110a2d
  10218c:	e8 2a f0 ff ff       	call   1011bb <debug_write>
  102191:	83 c4 10             	add    esp,0x10
  102194:	6a 04                	push   0x4
  102196:	6a 01                	push   0x1
  102198:	8d 45 a4             	lea    eax,[ebp-0x5c]
  10219b:	50                   	push   eax
  10219c:	51                   	push   ecx
  10219d:	e8 09 4c 00 00       	call   106dab <strhex>
  1021a2:	83 c4 10             	add    esp,0x10
  1021a5:	83 ec 0c             	sub    esp,0xc
  1021a8:	50                   	push   eax
  1021a9:	e8 0d f0 ff ff       	call   1011bb <debug_write>
  1021ae:	83 c4 10             	add    esp,0x10
  1021b1:	83 ec 0c             	sub    esp,0xc
  1021b4:	68 14 0a 11 00       	push   0x110a14
  1021b9:	e8 fd ef ff ff       	call   1011bb <debug_write>
  1021be:	83 c4 10             	add    esp,0x10
  1021c1:	83 ec 0c             	sub    esp,0xc
  1021c4:	68 33 0a 11 00       	push   0x110a33
  1021c9:	e8 ed ef ff ff       	call   1011bb <debug_write>
  1021ce:	83 c4 10             	add    esp,0x10
  1021d1:	6a 04                	push   0x4
  1021d3:	6a 01                	push   0x1
  1021d5:	8d 45 a4             	lea    eax,[ebp-0x5c]
  1021d8:	50                   	push   eax
  1021d9:	52                   	push   edx
  1021da:	e8 cc 4b 00 00       	call   106dab <strhex>
  1021df:	83 c4 10             	add    esp,0x10
  1021e2:	83 ec 0c             	sub    esp,0xc
  1021e5:	50                   	push   eax
  1021e6:	e8 d0 ef ff ff       	call   1011bb <debug_write>
  1021eb:	83 c4 10             	add    esp,0x10
  1021ee:	83 ec 0c             	sub    esp,0xc
  1021f1:	68 14 0a 11 00       	push   0x110a14
  1021f6:	e8 c0 ef ff ff       	call   1011bb <debug_write>
  1021fb:	83 c4 10             	add    esp,0x10
  1021fe:	e8 52 ef ff ff       	call   101155 <debug_newline>
  102203:	83 ec 0c             	sub    esp,0xc
  102206:	ff 75 e4             	push   DWORD PTR [ebp-0x1c]
  102209:	e8 ae ee ff ff       	call   1010bc <debug_setmode>
  10220e:	83 c4 10             	add    esp,0x10
  102211:	90                   	nop
  102212:	8d 65 f4             	lea    esp,[ebp-0xc]
  102215:	5b                   	pop    ebx
  102216:	5e                   	pop    esi
  102217:	5f                   	pop    edi
  102218:	5d                   	pop    ebp
  102219:	c3                   	ret    

0010221a <error>:
  10221a:	55                   	push   ebp
  10221b:	89 e5                	mov    ebp,esp
  10221d:	83 ec 08             	sub    esp,0x8
  102220:	83 ec 08             	sub    esp,0x8
  102223:	6a 0c                	push   0xc
  102225:	68 f2 09 11 00       	push   0x1109f2
  10222a:	e8 99 f4 ff ff       	call   1016c8 <debug_header>
  10222f:	83 c4 10             	add    esp,0x10
  102232:	8b 45 08             	mov    eax,DWORD PTR [ebp+0x8]
  102235:	8b 04 85 00 d3 10 00 	mov    eax,DWORD PTR [eax*4+0x10d300]
  10223c:	83 ec 0c             	sub    esp,0xc
  10223f:	50                   	push   eax
  102240:	e8 f4 ef ff ff       	call   101239 <debug_writeln>
  102245:	83 c4 10             	add    esp,0x10
  102248:	90                   	nop
  102249:	c9                   	leave  
  10224a:	c3                   	ret    

0010224b <errorf>:
  10224b:	55                   	push   ebp
  10224c:	89 e5                	mov    ebp,esp
  10224e:	83 ec 18             	sub    esp,0x18
  102251:	8d 45 0c             	lea    eax,[ebp+0xc]
  102254:	83 c0 04             	add    eax,0x4
  102257:	89 45 f4             	mov    DWORD PTR [ebp-0xc],eax
  10225a:	8b 45 0c             	mov    eax,DWORD PTR [ebp+0xc]
  10225d:	ff 75 f4             	push   DWORD PTR [ebp-0xc]
  102260:	50                   	push   eax
  102261:	6a 0c                	push   0xc
  102263:	68 f2 09 11 00       	push   0x1109f2
  102268:	e8 9d f4 ff ff       	call   10170a <debug_headerf>
  10226d:	83 c4 10             	add    esp,0x10
  102270:	90                   	nop
  102271:	c9                   	leave  
  102272:	c3                   	ret    

00102273 <panic>:
  102273:	55                   	push   ebp
  102274:	89 e5                	mov    ebp,esp
  102276:	83 ec 08             	sub    esp,0x8
  102279:	e8 30 ee ff ff       	call   1010ae <cli>
  10227e:	83 ec 0c             	sub    esp,0xc
  102281:	ff 75 08             	push   DWORD PTR [ebp+0x8]
  102284:	e8 91 ff ff ff       	call   10221a <error>
  102289:	83 c4 10             	add    esp,0x10
  10228c:	83 7d 0c 00          	cmp    DWORD PTR [ebp+0xc],0x0
  102290:	74 16                	je     1022a8 <panic+0x35>
  102292:	a1 2c 80 51 00       	mov    eax,ds:0x51802c
  102297:	83 ec 08             	sub    esp,0x8
  10229a:	50                   	push   eax
  10229b:	ff 75 0c             	push   DWORD PTR [ebp+0xc]
  10229e:	e8 f7 f7 ff ff       	call   101a9a <debug_dumpregs>
  1022a3:	83 c4 10             	add    esp,0x10
  1022a6:	eb 11                	jmp    1022b9 <panic+0x46>
  1022a8:	a1 2c 80 51 00       	mov    eax,ds:0x51802c
  1022ad:	83 ec 0c             	sub    esp,0xc
  1022b0:	50                   	push   eax
  1022b1:	e8 e6 fc ff ff       	call   101f9c <debug_dumpregs_raw>
  1022b6:	83 c4 10             	add    esp,0x10
  1022b9:	e8 34 ee ff ff       	call   1010f2 <debug_halt>
  1022be:	90                   	nop
  1022bf:	c9                   	leave  
  1022c0:	c3                   	ret    

001022c1 <panici>:
  1022c1:	55                   	push   ebp
  1022c2:	89 e5                	mov    ebp,esp
  1022c4:	83 ec 08             	sub    esp,0x8
  1022c7:	e8 e2 ed ff ff       	call   1010ae <cli>
  1022cc:	83 ec 08             	sub    esp,0x8
  1022cf:	6a 0c                	push   0xc
  1022d1:	68 f2 09 11 00       	push   0x1109f2
  1022d6:	e8 ed f3 ff ff       	call   1016c8 <debug_header>
  1022db:	83 c4 10             	add    esp,0x10
  1022de:	8b 45 08             	mov    eax,DWORD PTR [ebp+0x8]
  1022e1:	8b 04 85 40 d3 10 00 	mov    eax,DWORD PTR [eax*4+0x10d340]
  1022e8:	83 ec 0c             	sub    esp,0xc
  1022eb:	50                   	push   eax
  1022ec:	e8 48 ef ff ff       	call   101239 <debug_writeln>
  1022f1:	83 c4 10             	add    esp,0x10
  1022f4:	83 7d 0c 00          	cmp    DWORD PTR [ebp+0xc],0x0
  1022f8:	74 16                	je     102310 <panici+0x4f>
  1022fa:	a1 2c 80 51 00       	mov    eax,ds:0x51802c
  1022ff:	83 ec 08             	sub    esp,0x8
  102302:	50                   	push   eax
  102303:	ff 75 0c             	push   DWORD PTR [ebp+0xc]
  102306:	e8 8f f7 ff ff       	call   101a9a <debug_dumpregs>
  10230b:	83 c4 10             	add    esp,0x10
  10230e:	eb 11                	jmp    102321 <panici+0x60>
  102310:	a1 2c 80 51 00       	mov    eax,ds:0x51802c
  102315:	83 ec 0c             	sub    esp,0xc
  102318:	50                   	push   eax
  102319:	e8 7e fc ff ff       	call   101f9c <debug_dumpregs_raw>
  10231e:	83 c4 10             	add    esp,0x10
  102321:	e8 cc ed ff ff       	call   1010f2 <debug_halt>
  102326:	90                   	nop
  102327:	c9                   	leave  
  102328:	c3                   	ret    

00102329 <panicf>:
  102329:	55                   	push   ebp
  10232a:	89 e5                	mov    ebp,esp
  10232c:	83 ec 18             	sub    esp,0x18
  10232f:	e8 7a ed ff ff       	call   1010ae <cli>
  102334:	8d 45 10             	lea    eax,[ebp+0x10]
  102337:	83 c0 04             	add    eax,0x4
  10233a:	89 45 f4             	mov    DWORD PTR [ebp-0xc],eax
  10233d:	83 ec 0c             	sub    esp,0xc
  102340:	ff 75 08             	push   DWORD PTR [ebp+0x8]
  102343:	e8 d2 fe ff ff       	call   10221a <error>
  102348:	83 c4 10             	add    esp,0x10
  10234b:	83 ec 08             	sub    esp,0x8
  10234e:	6a 0c                	push   0xc
  102350:	68 bb 0a 11 00       	push   0x110abb
  102355:	e8 6e f3 ff ff       	call   1016c8 <debug_header>
  10235a:	83 c4 10             	add    esp,0x10
  10235d:	8b 45 10             	mov    eax,DWORD PTR [ebp+0x10]
  102360:	83 ec 08             	sub    esp,0x8
  102363:	ff 75 f4             	push   DWORD PTR [ebp-0xc]
  102366:	50                   	push   eax
  102367:	e8 4b ef ff ff       	call   1012b7 <debug_vprintf>
  10236c:	83 c4 10             	add    esp,0x10
  10236f:	e8 e1 ed ff ff       	call   101155 <debug_newline>
  102374:	83 7d 0c 00          	cmp    DWORD PTR [ebp+0xc],0x0
  102378:	74 16                	je     102390 <panicf+0x67>
  10237a:	a1 2c 80 51 00       	mov    eax,ds:0x51802c
  10237f:	83 ec 08             	sub    esp,0x8
  102382:	50                   	push   eax
  102383:	ff 75 0c             	push   DWORD PTR [ebp+0xc]
  102386:	e8 0f f7 ff ff       	call   101a9a <debug_dumpregs>
  10238b:	83 c4 10             	add    esp,0x10
  10238e:	eb 11                	jmp    1023a1 <panicf+0x78>
  102390:	a1 2c 80 51 00       	mov    eax,ds:0x51802c
  102395:	83 ec 0c             	sub    esp,0xc
  102398:	50                   	push   eax
  102399:	e8 fe fb ff ff       	call   101f9c <debug_dumpregs_raw>
  10239e:	83 c4 10             	add    esp,0x10
  1023a1:	e8 4c ed ff ff       	call   1010f2 <debug_halt>
  1023a6:	90                   	nop
  1023a7:	c9                   	leave  
  1023a8:	c3                   	ret    

001023a9 <gdt_clear>:
  1023a9:	55                   	push   ebp
  1023aa:	89 e5                	mov    ebp,esp
  1023ac:	83 ec 10             	sub    esp,0x10
  1023af:	c6 45 ff 00          	mov    BYTE PTR [ebp-0x1],0x0
  1023b3:	eb 42                	jmp    1023f7 <gdt_clear+0x4e>
  1023b5:	0f b6 45 ff          	movzx  eax,BYTE PTR [ebp-0x1]
  1023b9:	66 c7 04 c5 60 80 51 00 00 00 	mov    WORD PTR [eax*8+0x518060],0x0
  1023c3:	66 c7 04 c5 62 80 51 00 00 00 	mov    WORD PTR [eax*8+0x518062],0x0
  1023cd:	c6 04 c5 64 80 51 00 00 	mov    BYTE PTR [eax*8+0x518064],0x0
  1023d5:	c6 04 c5 65 80 51 00 00 	mov    BYTE PTR [eax*8+0x518065],0x0
  1023dd:	c6 04 c5 66 80 51 00 00 	mov    BYTE PTR [eax*8+0x518066],0x0
  1023e5:	c6 04 c5 67 80 51 00 00 	mov    BYTE PTR [eax*8+0x518067],0x0
  1023ed:	0f b6 45 ff          	movzx  eax,BYTE PTR [ebp-0x1]
  1023f1:	83 c0 01             	add    eax,0x1
  1023f4:	88 45 ff             	mov    BYTE PTR [ebp-0x1],al
  1023f7:	80 7d ff 04          	cmp    BYTE PTR [ebp-0x1],0x4
  1023fb:	76 b8                	jbe    1023b5 <gdt_clear+0xc>
  1023fd:	90                   	nop
  1023fe:	c9                   	leave  
  1023ff:	c3                   	ret    

00102400 <idt_clear>:
  102400:	55                   	push   ebp
  102401:	89 e5                	mov    ebp,esp
  102403:	83 ec 10             	sub    esp,0x10
  102406:	66 c7 45 fe 00 00    	mov    WORD PTR [ebp-0x2],0x0
  10240c:	eb 3d                	jmp    10244b <idt_clear+0x4b>
  10240e:	0f b7 45 fe          	movzx  eax,WORD PTR [ebp-0x2]
  102412:	66 c7 04 c5 a0 80 51 00 00 00 	mov    WORD PTR [eax*8+0x5180a0],0x0
  10241c:	66 c7 04 c5 a2 80 51 00 00 00 	mov    WORD PTR [eax*8+0x5180a2],0x0
  102426:	c6 04 c5 a4 80 51 00 00 	mov    BYTE PTR [eax*8+0x5180a4],0x0
  10242e:	c6 04 c5 a5 80 51 00 00 	mov    BYTE PTR [eax*8+0x5180a5],0x0
  102436:	66 c7 04 c5 a6 80 51 00 00 00 	mov    WORD PTR [eax*8+0x5180a6],0x0
  102440:	0f b7 45 fe          	movzx  eax,WORD PTR [ebp-0x2]
  102444:	83 c0 01             	add    eax,0x1
  102447:	66 89 45 fe          	mov    WORD PTR [ebp-0x2],ax
  10244b:	66 81 7d fe ff 00    	cmp    WORD PTR [ebp-0x2],0xff
  102451:	76 bb                	jbe    10240e <idt_clear+0xe>
  102453:	90                   	nop
  102454:	c9                   	leave  
  102455:	c3                   	ret    

00102456 <gdt_init>:
  102456:	55                   	push   ebp
  102457:	89 e5                	mov    ebp,esp
  102459:	83 ec 08             	sub    esp,0x8
  10245c:	e8 48 ff ff ff       	call   1023a9 <gdt_clear>
  102461:	66 c7 05 a0 88 51 00 27 00 	mov    WORD PTR ds:0x5188a0,0x27
  10246a:	b8 60 80 51 00       	mov    eax,0x518060
  10246f:	a3 a2 88 51 00       	mov    ds:0x5188a2,eax
  102474:	e8 75 00 00 00       	call   1024ee <gdt_set>
  102479:	b8 a0 88 51 00       	mov    eax,0x5188a0
  10247e:	83 ec 0c             	sub    esp,0xc
  102481:	50                   	push   eax
  102482:	e8 a9 07 00 00       	call   102c30 <gdt_flush>
  102487:	83 c4 10             	add    esp,0x10
  10248a:	83 ec 0c             	sub    esp,0xc
  10248d:	68 d4 0a 11 00       	push   0x110ad4
  102492:	e8 c1 f2 ff ff       	call   101758 <debug_ok>
  102497:	83 c4 10             	add    esp,0x10
  10249a:	90                   	nop
  10249b:	c9                   	leave  
  10249c:	c3                   	ret    

0010249d <idt_init>:
  10249d:	55                   	push   ebp
  10249e:	89 e5                	mov    ebp,esp
  1024a0:	83 ec 08             	sub    esp,0x8
  1024a3:	e8 58 ff ff ff       	call   102400 <idt_clear>
  1024a8:	66 c7 05 40 80 51 00 ff 07 	mov    WORD PTR ds:0x518040,0x7ff
  1024b1:	b8 a0 80 51 00       	mov    eax,0x5180a0
  1024b6:	a3 42 80 51 00       	mov    ds:0x518042,eax
  1024bb:	e8 c4 00 00 00       	call   102584 <idt_set_isrs>
  1024c0:	e8 61 28 00 00       	call   104d26 <pic_init>
  1024c5:	e8 a3 03 00 00       	call   10286d <idt_set_irqs>
  1024ca:	b8 40 80 51 00       	mov    eax,0x518040
  1024cf:	83 ec 0c             	sub    esp,0xc
  1024d2:	50                   	push   eax
  1024d3:	e8 75 07 00 00       	call   102c4d <idt_flush>
  1024d8:	83 c4 10             	add    esp,0x10
  1024db:	83 ec 0c             	sub    esp,0xc
  1024de:	68 ec 0a 11 00       	push   0x110aec
  1024e3:	e8 70 f2 ff ff       	call   101758 <debug_ok>
  1024e8:	83 c4 10             	add    esp,0x10
  1024eb:	90                   	nop
  1024ec:	c9                   	leave  
  1024ed:	c3                   	ret    

001024ee <gdt_set>:
  1024ee:	55                   	push   ebp
  1024ef:	89 e5                	mov    ebp,esp
  1024f1:	83 ec 08             	sub    esp,0x8
  1024f4:	83 ec 0c             	sub    esp,0xc
  1024f7:	6a 00                	push   0x0
  1024f9:	6a 00                	push   0x0
  1024fb:	6a 00                	push   0x0
  1024fd:	6a 00                	push   0x0
  1024ff:	6a 00                	push   0x0
  102501:	e8 41 05 00 00       	call   102a47 <gdt_set_descriptor>
  102506:	83 c4 20             	add    esp,0x20
  102509:	83 ec 0c             	sub    esp,0xc
  10250c:	68 cf 00 00 00       	push   0xcf
  102511:	68 9a 00 00 00       	push   0x9a
  102516:	68 ff ff 0f 00       	push   0xfffff
  10251b:	6a 00                	push   0x0
  10251d:	6a 01                	push   0x1
  10251f:	e8 23 05 00 00       	call   102a47 <gdt_set_descriptor>
  102524:	83 c4 20             	add    esp,0x20
  102527:	83 ec 0c             	sub    esp,0xc
  10252a:	68 cf 00 00 00       	push   0xcf
  10252f:	68 92 00 00 00       	push   0x92
  102534:	68 ff ff 0f 00       	push   0xfffff
  102539:	6a 00                	push   0x0
  10253b:	6a 02                	push   0x2
  10253d:	e8 05 05 00 00       	call   102a47 <gdt_set_descriptor>
  102542:	83 c4 20             	add    esp,0x20
  102545:	83 ec 0c             	sub    esp,0xc
  102548:	68 cf 00 00 00       	push   0xcf
  10254d:	68 fa 00 00 00       	push   0xfa
  102552:	68 ff ff 0f 00       	push   0xfffff
  102557:	6a 00                	push   0x0
  102559:	6a 03                	push   0x3
  10255b:	e8 e7 04 00 00       	call   102a47 <gdt_set_descriptor>
  102560:	83 c4 20             	add    esp,0x20
  102563:	83 ec 0c             	sub    esp,0xc
  102566:	68 cf 00 00 00       	push   0xcf
  10256b:	68 f2 00 00 00       	push   0xf2
  102570:	68 ff ff 0f 00       	push   0xfffff
  102575:	6a 00                	push   0x0
  102577:	6a 04                	push   0x4
  102579:	e8 c9 04 00 00       	call   102a47 <gdt_set_descriptor>
  10257e:	83 c4 20             	add    esp,0x20
  102581:	90                   	nop
  102582:	c9                   	leave  
  102583:	c3                   	ret    

00102584 <idt_set_isrs>:
  102584:	55                   	push   ebp
  102585:	89 e5                	mov    ebp,esp
  102587:	83 ec 08             	sub    esp,0x8
  10258a:	b8 ee 2c 10 00       	mov    eax,0x102cee
  10258f:	68 8e 00 00 00       	push   0x8e
  102594:	6a 08                	push   0x8
  102596:	50                   	push   eax
  102597:	6a 00                	push   0x0
  102599:	e8 48 04 00 00       	call   1029e6 <idt_set_descriptor>
  10259e:	83 c4 10             	add    esp,0x10
  1025a1:	b8 f7 2c 10 00       	mov    eax,0x102cf7
  1025a6:	68 8e 00 00 00       	push   0x8e
  1025ab:	6a 08                	push   0x8
  1025ad:	50                   	push   eax
  1025ae:	6a 01                	push   0x1
  1025b0:	e8 31 04 00 00       	call   1029e6 <idt_set_descriptor>
  1025b5:	83 c4 10             	add    esp,0x10
  1025b8:	b8 00 2d 10 00       	mov    eax,0x102d00
  1025bd:	68 8e 00 00 00       	push   0x8e
  1025c2:	6a 08                	push   0x8
  1025c4:	50                   	push   eax
  1025c5:	6a 02                	push   0x2
  1025c7:	e8 1a 04 00 00       	call   1029e6 <idt_set_descriptor>
  1025cc:	83 c4 10             	add    esp,0x10
  1025cf:	b8 09 2d 10 00       	mov    eax,0x102d09
  1025d4:	68 8e 00 00 00       	push   0x8e
  1025d9:	6a 08                	push   0x8
  1025db:	50                   	push   eax
  1025dc:	6a 03                	push   0x3
  1025de:	e8 03 04 00 00       	call   1029e6 <idt_set_descriptor>
  1025e3:	83 c4 10             	add    esp,0x10
  1025e6:	b8 12 2d 10 00       	mov    eax,0x102d12
  1025eb:	68 8e 00 00 00       	push   0x8e
  1025f0:	6a 08                	push   0x8
  1025f2:	50                   	push   eax
  1025f3:	6a 04                	push   0x4
  1025f5:	e8 ec 03 00 00       	call   1029e6 <idt_set_descriptor>
  1025fa:	83 c4 10             	add    esp,0x10
  1025fd:	b8 1b 2d 10 00       	mov    eax,0x102d1b
  102602:	68 8e 00 00 00       	push   0x8e
  102607:	6a 08                	push   0x8
  102609:	50                   	push   eax
  10260a:	6a 05                	push   0x5
  10260c:	e8 d5 03 00 00       	call   1029e6 <idt_set_descriptor>
  102611:	83 c4 10             	add    esp,0x10
  102614:	b8 24 2d 10 00       	mov    eax,0x102d24
  102619:	68 8e 00 00 00       	push   0x8e
  10261e:	6a 08                	push   0x8
  102620:	50                   	push   eax
  102621:	6a 06                	push   0x6
  102623:	e8 be 03 00 00       	call   1029e6 <idt_set_descriptor>
  102628:	83 c4 10             	add    esp,0x10
  10262b:	b8 2d 2d 10 00       	mov    eax,0x102d2d
  102630:	68 8e 00 00 00       	push   0x8e
  102635:	6a 08                	push   0x8
  102637:	50                   	push   eax
  102638:	6a 07                	push   0x7
  10263a:	e8 a7 03 00 00       	call   1029e6 <idt_set_descriptor>
  10263f:	83 c4 10             	add    esp,0x10
  102642:	b8 36 2d 10 00       	mov    eax,0x102d36
  102647:	68 8e 00 00 00       	push   0x8e
  10264c:	6a 08                	push   0x8
  10264e:	50                   	push   eax
  10264f:	6a 08                	push   0x8
  102651:	e8 90 03 00 00       	call   1029e6 <idt_set_descriptor>
  102656:	83 c4 10             	add    esp,0x10
  102659:	b8 3d 2d 10 00       	mov    eax,0x102d3d
  10265e:	68 8e 00 00 00       	push   0x8e
  102663:	6a 08                	push   0x8
  102665:	50                   	push   eax
  102666:	6a 09                	push   0x9
  102668:	e8 79 03 00 00       	call   1029e6 <idt_set_descriptor>
  10266d:	83 c4 10             	add    esp,0x10
  102670:	b8 46 2d 10 00       	mov    eax,0x102d46
  102675:	68 8e 00 00 00       	push   0x8e
  10267a:	6a 08                	push   0x8
  10267c:	50                   	push   eax
  10267d:	6a 0a                	push   0xa
  10267f:	e8 62 03 00 00       	call   1029e6 <idt_set_descriptor>
  102684:	83 c4 10             	add    esp,0x10
  102687:	b8 4d 2d 10 00       	mov    eax,0x102d4d
  10268c:	68 8e 00 00 00       	push   0x8e
  102691:	6a 08                	push   0x8
  102693:	50                   	push   eax
  102694:	6a 0b                	push   0xb
  102696:	e8 4b 03 00 00       	call   1029e6 <idt_set_descriptor>
  10269b:	83 c4 10             	add    esp,0x10
  10269e:	b8 54 2d 10 00       	mov    eax,0x102d54
  1026a3:	68 8e 00 00 00       	push   0x8e
  1026a8:	6a 08                	push   0x8
  1026aa:	50                   	push   eax
  1026ab:	6a 0c                	push   0xc
  1026ad:	e8 34 03 00 00       	call   1029e6 <idt_set_descriptor>
  1026b2:	83 c4 10             	add    esp,0x10
  1026b5:	b8 5b 2d 10 00       	mov    eax,0x102d5b
  1026ba:	68 8e 00 00 00       	push   0x8e
  1026bf:	6a 08                	push   0x8
  1026c1:	50                   	push   eax
  1026c2:	6a 0d                	push   0xd
  1026c4:	e8 1d 03 00 00       	call   1029e6 <idt_set_descriptor>
  1026c9:	83 c4 10             	add    esp,0x10
  1026cc:	b8 62 2d 10 00       	mov    eax,0x102d62
  1026d1:	68 8e 00 00 00       	push   0x8e
  1026d6:	6a 08                	push   0x8
  1026d8:	50                   	push   eax
  1026d9:	6a 0e                	push   0xe
  1026db:	e8 06 03 00 00       	call   1029e6 <idt_set_descriptor>
  1026e0:	83 c4 10             	add    esp,0x10
  1026e3:	b8 69 2d 10 00       	mov    eax,0x102d69
  1026e8:	68 8e 00 00 00       	push   0x8e
  1026ed:	6a 08                	push   0x8
  1026ef:	50                   	push   eax
  1026f0:	6a 0f                	push   0xf
  1026f2:	e8 ef 02 00 00       	call   1029e6 <idt_set_descriptor>
  1026f7:	83 c4 10             	add    esp,0x10
  1026fa:	b8 72 2d 10 00       	mov    eax,0x102d72
  1026ff:	68 8e 00 00 00       	push   0x8e
  102704:	6a 08                	push   0x8
  102706:	50                   	push   eax
  102707:	6a 10                	push   0x10
  102709:	e8 d8 02 00 00       	call   1029e6 <idt_set_descriptor>
  10270e:	83 c4 10             	add    esp,0x10
  102711:	b8 7b 2d 10 00       	mov    eax,0x102d7b
  102716:	68 8e 00 00 00       	push   0x8e
  10271b:	6a 08                	push   0x8
  10271d:	50                   	push   eax
  10271e:	6a 11                	push   0x11
  102720:	e8 c1 02 00 00       	call   1029e6 <idt_set_descriptor>
  102725:	83 c4 10             	add    esp,0x10
  102728:	b8 82 2d 10 00       	mov    eax,0x102d82
  10272d:	68 8e 00 00 00       	push   0x8e
  102732:	6a 08                	push   0x8
  102734:	50                   	push   eax
  102735:	6a 12                	push   0x12
  102737:	e8 aa 02 00 00       	call   1029e6 <idt_set_descriptor>
  10273c:	83 c4 10             	add    esp,0x10
  10273f:	b8 8b 2d 10 00       	mov    eax,0x102d8b
  102744:	68 8e 00 00 00       	push   0x8e
  102749:	6a 08                	push   0x8
  10274b:	50                   	push   eax
  10274c:	6a 13                	push   0x13
  10274e:	e8 93 02 00 00       	call   1029e6 <idt_set_descriptor>
  102753:	83 c4 10             	add    esp,0x10
  102756:	b8 94 2d 10 00       	mov    eax,0x102d94
  10275b:	68 8e 00 00 00       	push   0x8e
  102760:	6a 08                	push   0x8
  102762:	50                   	push   eax
  102763:	6a 14                	push   0x14
  102765:	e8 7c 02 00 00       	call   1029e6 <idt_set_descriptor>
  10276a:	83 c4 10             	add    esp,0x10
  10276d:	b8 9d 2d 10 00       	mov    eax,0x102d9d
  102772:	68 8e 00 00 00       	push   0x8e
  102777:	6a 08                	push   0x8
  102779:	50                   	push   eax
  10277a:	6a 15                	push   0x15
  10277c:	e8 65 02 00 00       	call   1029e6 <idt_set_descriptor>
  102781:	83 c4 10             	add    esp,0x10
  102784:	b8 a4 2d 10 00       	mov    eax,0x102da4
  102789:	68 8e 00 00 00       	push   0x8e
  10278e:	6a 08                	push   0x8
  102790:	50                   	push   eax
  102791:	6a 16                	push   0x16
  102793:	e8 4e 02 00 00       	call   1029e6 <idt_set_descriptor>
  102798:	83 c4 10             	add    esp,0x10
  10279b:	b8 ad 2d 10 00       	mov    eax,0x102dad
  1027a0:	68 8e 00 00 00       	push   0x8e
  1027a5:	6a 08                	push   0x8
  1027a7:	50                   	push   eax
  1027a8:	6a 17                	push   0x17
  1027aa:	e8 37 02 00 00       	call   1029e6 <idt_set_descriptor>
  1027af:	83 c4 10             	add    esp,0x10
  1027b2:	b8 b6 2d 10 00       	mov    eax,0x102db6
  1027b7:	68 8e 00 00 00       	push   0x8e
  1027bc:	6a 08                	push   0x8
  1027be:	50                   	push   eax
  1027bf:	6a 18                	push   0x18
  1027c1:	e8 20 02 00 00       	call   1029e6 <idt_set_descriptor>
  1027c6:	83 c4 10             	add    esp,0x10
  1027c9:	b8 bf 2d 10 00       	mov    eax,0x102dbf
  1027ce:	68 8e 00 00 00       	push   0x8e
  1027d3:	6a 08                	push   0x8
  1027d5:	50                   	push   eax
  1027d6:	6a 19                	push   0x19
  1027d8:	e8 09 02 00 00       	call   1029e6 <idt_set_descriptor>
  1027dd:	83 c4 10             	add    esp,0x10
  1027e0:	b8 c8 2d 10 00       	mov    eax,0x102dc8
  1027e5:	68 8e 00 00 00       	push   0x8e
  1027ea:	6a 08                	push   0x8
  1027ec:	50                   	push   eax
  1027ed:	6a 1a                	push   0x1a
  1027ef:	e8 f2 01 00 00       	call   1029e6 <idt_set_descriptor>
  1027f4:	83 c4 10             	add    esp,0x10
  1027f7:	b8 d1 2d 10 00       	mov    eax,0x102dd1
  1027fc:	68 8e 00 00 00       	push   0x8e
  102801:	6a 08                	push   0x8
  102803:	50                   	push   eax
  102804:	6a 1b                	push   0x1b
  102806:	e8 db 01 00 00       	call   1029e6 <idt_set_descriptor>
  10280b:	83 c4 10             	add    esp,0x10
  10280e:	b8 da 2d 10 00       	mov    eax,0x102dda
  102813:	68 8e 00 00 00       	push   0x8e
  102818:	6a 08                	push   0x8
  10281a:	50                   	push   eax
  10281b:	6a 1c                	push   0x1c
  10281d:	e8 c4 01 00 00       	call   1029e6 <idt_set_descriptor>
  102822:	83 c4 10             	add    esp,0x10
  102825:	b8 e3 2d 10 00       	mov    eax,0x102de3
  10282a:	68 8e 00 00 00       	push   0x8e
  10282f:	6a 08                	push   0x8
  102831:	50                   	push   eax
  102832:	6a 1d                	push   0x1d
  102834:	e8 ad 01 00 00       	call   1029e6 <idt_set_descriptor>
  102839:	83 c4 10             	add    esp,0x10
  10283c:	b8 ec 2d 10 00       	mov    eax,0x102dec
  102841:	68 8e 00 00 00       	push   0x8e
  102846:	6a 08                	push   0x8
  102848:	50                   	push   eax
  102849:	6a 1e                	push   0x1e
  10284b:	e8 96 01 00 00       	call   1029e6 <idt_set_descriptor>
  102850:	83 c4 10             	add    esp,0x10
  102853:	b8 f5 2d 10 00       	mov    eax,0x102df5
  102858:	68 8e 00 00 00       	push   0x8e
  10285d:	6a 08                	push   0x8
  10285f:	50                   	push   eax
  102860:	6a 1f                	push   0x1f
  102862:	e8 7f 01 00 00       	call   1029e6 <idt_set_descriptor>
  102867:	83 c4 10             	add    esp,0x10
  10286a:	90                   	nop
  10286b:	c9                   	leave  
  10286c:	c3                   	ret    

0010286d <idt_set_irqs>:
  10286d:	55                   	push   ebp
  10286e:	89 e5                	mov    ebp,esp
  102870:	83 ec 08             	sub    esp,0x8
  102873:	b8 fe 2d 10 00       	mov    eax,0x102dfe
  102878:	68 8e 00 00 00       	push   0x8e
  10287d:	6a 08                	push   0x8
  10287f:	50                   	push   eax
  102880:	6a 20                	push   0x20
  102882:	e8 5f 01 00 00       	call   1029e6 <idt_set_descriptor>
  102887:	83 c4 10             	add    esp,0x10
  10288a:	b8 07 2e 10 00       	mov    eax,0x102e07
  10288f:	68 8e 00 00 00       	push   0x8e
  102894:	6a 08                	push   0x8
  102896:	50                   	push   eax
  102897:	6a 21                	push   0x21
  102899:	e8 48 01 00 00       	call   1029e6 <idt_set_descriptor>
  10289e:	83 c4 10             	add    esp,0x10
  1028a1:	b8 10 2e 10 00       	mov    eax,0x102e10
  1028a6:	68 8e 00 00 00       	push   0x8e
  1028ab:	6a 08                	push   0x8
  1028ad:	50                   	push   eax
  1028ae:	6a 22                	push   0x22
  1028b0:	e8 31 01 00 00       	call   1029e6 <idt_set_descriptor>
  1028b5:	83 c4 10             	add    esp,0x10
  1028b8:	b8 19 2e 10 00       	mov    eax,0x102e19
  1028bd:	68 8e 00 00 00       	push   0x8e
  1028c2:	6a 08                	push   0x8
  1028c4:	50                   	push   eax
  1028c5:	6a 23                	push   0x23
  1028c7:	e8 1a 01 00 00       	call   1029e6 <idt_set_descriptor>
  1028cc:	83 c4 10             	add    esp,0x10
  1028cf:	b8 22 2e 10 00       	mov    eax,0x102e22
  1028d4:	68 8e 00 00 00       	push   0x8e
  1028d9:	6a 08                	push   0x8
  1028db:	50                   	push   eax
  1028dc:	6a 24                	push   0x24
  1028de:	e8 03 01 00 00       	call   1029e6 <idt_set_descriptor>
  1028e3:	83 c4 10             	add    esp,0x10
  1028e6:	b8 2b 2e 10 00       	mov    eax,0x102e2b
  1028eb:	68 8e 00 00 00       	push   0x8e
  1028f0:	6a 08                	push   0x8
  1028f2:	50                   	push   eax
  1028f3:	6a 25                	push   0x25
  1028f5:	e8 ec 00 00 00       	call   1029e6 <idt_set_descriptor>
  1028fa:	83 c4 10             	add    esp,0x10
  1028fd:	b8 34 2e 10 00       	mov    eax,0x102e34
  102902:	68 8e 00 00 00       	push   0x8e
  102907:	6a 08                	push   0x8
  102909:	50                   	push   eax
  10290a:	6a 26                	push   0x26
  10290c:	e8 d5 00 00 00       	call   1029e6 <idt_set_descriptor>
  102911:	83 c4 10             	add    esp,0x10
  102914:	b8 3d 2e 10 00       	mov    eax,0x102e3d
  102919:	68 8e 00 00 00       	push   0x8e
  10291e:	6a 08                	push   0x8
  102920:	50                   	push   eax
  102921:	6a 27                	push   0x27
  102923:	e8 be 00 00 00       	call   1029e6 <idt_set_descriptor>
  102928:	83 c4 10             	add    esp,0x10
  10292b:	b8 46 2e 10 00       	mov    eax,0x102e46
  102930:	68 8e 00 00 00       	push   0x8e
  102935:	6a 08                	push   0x8
  102937:	50                   	push   eax
  102938:	6a 28                	push   0x28
  10293a:	e8 a7 00 00 00       	call   1029e6 <idt_set_descriptor>
  10293f:	83 c4 10             	add    esp,0x10
  102942:	b8 4f 2e 10 00       	mov    eax,0x102e4f
  102947:	68 8e 00 00 00       	push   0x8e
  10294c:	6a 08                	push   0x8
  10294e:	50                   	push   eax
  10294f:	6a 29                	push   0x29
  102951:	e8 90 00 00 00       	call   1029e6 <idt_set_descriptor>
  102956:	83 c4 10             	add    esp,0x10
  102959:	b8 58 2e 10 00       	mov    eax,0x102e58
  10295e:	68 8e 00 00 00       	push   0x8e
  102963:	6a 08                	push   0x8
  102965:	50                   	push   eax
  102966:	6a 2a                	push   0x2a
  102968:	e8 79 00 00 00       	call   1029e6 <idt_set_descriptor>
  10296d:	83 c4 10             	add    esp,0x10
  102970:	b8 61 2e 10 00       	mov    eax,0x102e61
  102975:	68 8e 00 00 00       	push   0x8e
  10297a:	6a 08                	push   0x8
  10297c:	50                   	push   eax
  10297d:	6a 2b                	push   0x2b
  10297f:	e8 62 00 00 00       	call   1029e6 <idt_set_descriptor>
  102984:	83 c4 10             	add    esp,0x10
  102987:	b8 6a 2e 10 00       	mov    eax,0x102e6a
  10298c:	68 8e 00 00 00       	push   0x8e
  102991:	6a 08                	push   0x8
  102993:	50                   	push   eax
  102994:	6a 2c                	push   0x2c
  102996:	e8 4b 00 00 00       	call   1029e6 <idt_set_descriptor>
  10299b:	83 c4 10             	add    esp,0x10
  10299e:	b8 73 2e 10 00       	mov    eax,0x102e73
  1029a3:	68 8e 00 00 00       	push   0x8e
  1029a8:	6a 08                	push   0x8
  1029aa:	50                   	push   eax
  1029ab:	6a 2d                	push   0x2d
  1029ad:	e8 34 00 00 00       	call   1029e6 <idt_set_descriptor>
  1029b2:	83 c4 10             	add    esp,0x10
  1029b5:	b8 7c 2e 10 00       	mov    eax,0x102e7c
  1029ba:	68 8e 00 00 00       	push   0x8e
  1029bf:	6a 08                	push   0x8
  1029c1:	50                   	push   eax
  1029c2:	6a 2e                	push   0x2e
  1029c4:	e8 1d 00 00 00       	call   1029e6 <idt_set_descriptor>
  1029c9:	83 c4 10             	add    esp,0x10
  1029cc:	b8 85 2e 10 00       	mov    eax,0x102e85
  1029d1:	68 8e 00 00 00       	push   0x8e
  1029d6:	6a 08                	push   0x8
  1029d8:	50                   	push   eax
  1029d9:	6a 2f                	push   0x2f
  1029db:	e8 06 00 00 00       	call   1029e6 <idt_set_descriptor>
  1029e0:	83 c4 10             	add    esp,0x10
  1029e3:	90                   	nop
  1029e4:	c9                   	leave  
  1029e5:	c3                   	ret    

001029e6 <idt_set_descriptor>:
  1029e6:	55                   	push   ebp
  1029e7:	89 e5                	mov    ebp,esp
  1029e9:	83 ec 08             	sub    esp,0x8
  1029ec:	8b 55 10             	mov    edx,DWORD PTR [ebp+0x10]
  1029ef:	8b 45 14             	mov    eax,DWORD PTR [ebp+0x14]
  1029f2:	66 89 55 fc          	mov    WORD PTR [ebp-0x4],dx
  1029f6:	88 45 f8             	mov    BYTE PTR [ebp-0x8],al
  1029f9:	8b 45 0c             	mov    eax,DWORD PTR [ebp+0xc]
  1029fc:	89 c2                	mov    edx,eax
  1029fe:	8b 45 08             	mov    eax,DWORD PTR [ebp+0x8]
  102a01:	66 89 14 c5 a0 80 51 00 	mov    WORD PTR [eax*8+0x5180a0],dx
  102a09:	8b 45 0c             	mov    eax,DWORD PTR [ebp+0xc]
  102a0c:	c1 e8 10             	shr    eax,0x10
  102a0f:	89 c2                	mov    edx,eax
  102a11:	8b 45 08             	mov    eax,DWORD PTR [ebp+0x8]
  102a14:	66 89 14 c5 a6 80 51 00 	mov    WORD PTR [eax*8+0x5180a6],dx
  102a1c:	8b 45 08             	mov    eax,DWORD PTR [ebp+0x8]
  102a1f:	0f b7 55 fc          	movzx  edx,WORD PTR [ebp-0x4]
  102a23:	66 89 14 c5 a2 80 51 00 	mov    WORD PTR [eax*8+0x5180a2],dx
  102a2b:	8b 45 08             	mov    eax,DWORD PTR [ebp+0x8]
  102a2e:	c6 04 c5 a4 80 51 00 00 	mov    BYTE PTR [eax*8+0x5180a4],0x0
  102a36:	8b 45 08             	mov    eax,DWORD PTR [ebp+0x8]
  102a39:	0f b6 55 f8          	movzx  edx,BYTE PTR [ebp-0x8]
  102a3d:	88 14 c5 a5 80 51 00 	mov    BYTE PTR [eax*8+0x5180a5],dl
  102a44:	90                   	nop
  102a45:	c9                   	leave  
  102a46:	c3                   	ret    

00102a47 <gdt_set_descriptor>:
  102a47:	55                   	push   ebp
  102a48:	89 e5                	mov    ebp,esp
  102a4a:	83 ec 08             	sub    esp,0x8
  102a4d:	8b 55 14             	mov    edx,DWORD PTR [ebp+0x14]
  102a50:	8b 45 18             	mov    eax,DWORD PTR [ebp+0x18]
  102a53:	88 55 fc             	mov    BYTE PTR [ebp-0x4],dl
  102a56:	88 45 f8             	mov    BYTE PTR [ebp-0x8],al
  102a59:	8b 45 0c             	mov    eax,DWORD PTR [ebp+0xc]
  102a5c:	89 c2                	mov    edx,eax
  102a5e:	8b 45 08             	mov    eax,DWORD PTR [ebp+0x8]
  102a61:	66 89 14 c5 62 80 51 00 	mov    WORD PTR [eax*8+0x518062],dx
  102a69:	8b 45 0c             	mov    eax,DWORD PTR [ebp+0xc]
  102a6c:	c1 e8 10             	shr    eax,0x10
  102a6f:	89 c2                	mov    edx,eax
  102a71:	8b 45 08             	mov    eax,DWORD PTR [ebp+0x8]
  102a74:	88 14 c5 64 80 51 00 	mov    BYTE PTR [eax*8+0x518064],dl
  102a7b:	8b 45 0c             	mov    eax,DWORD PTR [ebp+0xc]
  102a7e:	c1 e8 18             	shr    eax,0x18
  102a81:	89 c2                	mov    edx,eax
  102a83:	8b 45 08             	mov    eax,DWORD PTR [ebp+0x8]
  102a86:	88 14 c5 67 80 51 00 	mov    BYTE PTR [eax*8+0x518067],dl
  102a8d:	8b 45 10             	mov    eax,DWORD PTR [ebp+0x10]
  102a90:	89 c2                	mov    edx,eax
  102a92:	8b 45 08             	mov    eax,DWORD PTR [ebp+0x8]
  102a95:	66 89 14 c5 60 80 51 00 	mov    WORD PTR [eax*8+0x518060],dx
  102a9d:	8b 45 10             	mov    eax,DWORD PTR [ebp+0x10]
  102aa0:	c1 e8 10             	shr    eax,0x10
  102aa3:	83 e0 0f             	and    eax,0xf
  102aa6:	89 c2                	mov    edx,eax
  102aa8:	8b 45 08             	mov    eax,DWORD PTR [ebp+0x8]
  102aab:	88 14 c5 66 80 51 00 	mov    BYTE PTR [eax*8+0x518066],dl
  102ab2:	8b 45 08             	mov    eax,DWORD PTR [ebp+0x8]
  102ab5:	0f b6 04 c5 66 80 51 00 	movzx  eax,BYTE PTR [eax*8+0x518066]
  102abd:	89 c2                	mov    edx,eax
  102abf:	0f b6 45 f8          	movzx  eax,BYTE PTR [ebp-0x8]
  102ac3:	83 e0 f0             	and    eax,0xfffffff0
  102ac6:	09 d0                	or     eax,edx
  102ac8:	89 c2                	mov    edx,eax
  102aca:	8b 45 08             	mov    eax,DWORD PTR [ebp+0x8]
  102acd:	88 14 c5 66 80 51 00 	mov    BYTE PTR [eax*8+0x518066],dl
  102ad4:	8b 45 08             	mov    eax,DWORD PTR [ebp+0x8]
  102ad7:	0f b6 55 fc          	movzx  edx,BYTE PTR [ebp-0x4]
  102adb:	88 14 c5 65 80 51 00 	mov    BYTE PTR [eax*8+0x518065],dl
  102ae2:	90                   	nop
  102ae3:	c9                   	leave  
  102ae4:	c3                   	ret    

00102ae5 <cli>:
  102ae5:	55                   	push   ebp
  102ae6:	89 e5                	mov    ebp,esp
  102ae8:	fa                   	cli    
  102ae9:	90                   	nop
  102aea:	5d                   	pop    ebp
  102aeb:	c3                   	ret    

00102aec <sti>:
  102aec:	55                   	push   ebp
  102aed:	89 e5                	mov    ebp,esp
  102aef:	fb                   	sti    
  102af0:	90                   	nop
  102af1:	5d                   	pop    ebp
  102af2:	c3                   	ret    

00102af3 <isr_clear>:
  102af3:	55                   	push   ebp
  102af4:	89 e5                	mov    ebp,esp
  102af6:	83 ec 10             	sub    esp,0x10
  102af9:	c7 45 fc 00 00 00 00 	mov    DWORD PTR [ebp-0x4],0x0
  102b00:	eb 12                	jmp    102b14 <isr_clear+0x21>
  102b02:	8b 45 fc             	mov    eax,DWORD PTR [ebp-0x4]
  102b05:	c7 04 85 c0 88 51 00 00 00 00 00 	mov    DWORD PTR [eax*4+0x5188c0],0x0
  102b10:	83 45 fc 01          	add    DWORD PTR [ebp-0x4],0x1
  102b14:	81 7d fc ff 00 00 00 	cmp    DWORD PTR [ebp-0x4],0xff
  102b1b:	76 e5                	jbe    102b02 <isr_clear+0xf>
  102b1d:	90                   	nop
  102b1e:	c9                   	leave  
  102b1f:	c3                   	ret    

00102b20 <isr_init>:
  102b20:	55                   	push   ebp
  102b21:	89 e5                	mov    ebp,esp
  102b23:	83 ec 08             	sub    esp,0x8
  102b26:	e8 c8 ff ff ff       	call   102af3 <isr_clear>
  102b2b:	83 ec 0c             	sub    esp,0xc
  102b2e:	68 68 0f 11 00       	push   0x110f68
  102b33:	e8 20 ec ff ff       	call   101758 <debug_ok>
  102b38:	83 c4 10             	add    esp,0x10
  102b3b:	90                   	nop
  102b3c:	c9                   	leave  
  102b3d:	c3                   	ret    

00102b3e <irq_register>:
  102b3e:	55                   	push   ebp
  102b3f:	89 e5                	mov    ebp,esp
  102b41:	83 ec 04             	sub    esp,0x4
  102b44:	8b 45 08             	mov    eax,DWORD PTR [ebp+0x8]
  102b47:	88 45 fc             	mov    BYTE PTR [ebp-0x4],al
  102b4a:	83 7d 0c 00          	cmp    DWORD PTR [ebp+0xc],0x0
  102b4e:	74 10                	je     102b60 <irq_register+0x22>
  102b50:	0f b6 45 fc          	movzx  eax,BYTE PTR [ebp-0x4]
  102b54:	8b 55 0c             	mov    edx,DWORD PTR [ebp+0xc]
  102b57:	89 14 85 c0 88 51 00 	mov    DWORD PTR [eax*4+0x5188c0],edx
  102b5e:	eb 01                	jmp    102b61 <irq_register+0x23>
  102b60:	90                   	nop
  102b61:	c9                   	leave  
  102b62:	c3                   	ret    

00102b63 <irq_unregister>:
  102b63:	55                   	push   ebp
  102b64:	89 e5                	mov    ebp,esp
  102b66:	83 ec 04             	sub    esp,0x4
  102b69:	8b 45 08             	mov    eax,DWORD PTR [ebp+0x8]
  102b6c:	88 45 fc             	mov    BYTE PTR [ebp-0x4],al
  102b6f:	e8 71 ff ff ff       	call   102ae5 <cli>
  102b74:	0f b6 45 fc          	movzx  eax,BYTE PTR [ebp-0x4]
  102b78:	c7 04 85 c0 88 51 00 00 00 00 00 	mov    DWORD PTR [eax*4+0x5188c0],0x0
  102b83:	e8 64 ff ff ff       	call   102aec <sti>
  102b88:	90                   	nop
  102b89:	c9                   	leave  
  102b8a:	c3                   	ret    

00102b8b <isr_handler>:
  102b8b:	55                   	push   ebp
  102b8c:	89 e5                	mov    ebp,esp
  102b8e:	83 ec 08             	sub    esp,0x8
  102b91:	8b 45 08             	mov    eax,DWORD PTR [ebp+0x8]
  102b94:	8b 40 24             	mov    eax,DWORD PTR [eax+0x24]
  102b97:	83 ec 08             	sub    esp,0x8
  102b9a:	ff 75 08             	push   DWORD PTR [ebp+0x8]
  102b9d:	50                   	push   eax
  102b9e:	e8 1e f7 ff ff       	call   1022c1 <panici>
  102ba3:	83 c4 10             	add    esp,0x10
  102ba6:	90                   	nop
  102ba7:	c9                   	leave  
  102ba8:	c3                   	ret    

00102ba9 <irq_handler>:
  102ba9:	55                   	push   ebp
  102baa:	89 e5                	mov    ebp,esp
  102bac:	83 ec 08             	sub    esp,0x8
  102baf:	8b 45 08             	mov    eax,DWORD PTR [ebp+0x8]
  102bb2:	8b 40 24             	mov    eax,DWORD PTR [eax+0x24]
  102bb5:	8b 04 85 c0 88 51 00 	mov    eax,DWORD PTR [eax*4+0x5188c0]
  102bbc:	85 c0                	test   eax,eax
  102bbe:	74 18                	je     102bd8 <irq_handler+0x2f>
  102bc0:	8b 45 08             	mov    eax,DWORD PTR [ebp+0x8]
  102bc3:	8b 40 24             	mov    eax,DWORD PTR [eax+0x24]
  102bc6:	8b 04 85 c0 88 51 00 	mov    eax,DWORD PTR [eax*4+0x5188c0]
  102bcd:	83 ec 0c             	sub    esp,0xc
  102bd0:	ff 75 08             	push   DWORD PTR [ebp+0x8]
  102bd3:	ff d0                	call   eax
  102bd5:	83 c4 10             	add    esp,0x10
  102bd8:	8b 45 08             	mov    eax,DWORD PTR [ebp+0x8]
  102bdb:	8b 40 24             	mov    eax,DWORD PTR [eax+0x24]
  102bde:	83 f8 27             	cmp    eax,0x27
  102be1:	76 12                	jbe    102bf5 <irq_handler+0x4c>
  102be3:	83 ec 08             	sub    esp,0x8
  102be6:	6a 20                	push   0x20
  102be8:	68 a0 00 00 00       	push   0xa0
  102bed:	e8 0f 24 00 00       	call   105001 <port_outb>
  102bf2:	83 c4 10             	add    esp,0x10
  102bf5:	83 ec 08             	sub    esp,0x8
  102bf8:	6a 20                	push   0x20
  102bfa:	6a 20                	push   0x20
  102bfc:	e8 00 24 00 00       	call   105001 <port_outb>
  102c01:	83 c4 10             	add    esp,0x10
  102c04:	90                   	nop
  102c05:	c9                   	leave  
  102c06:	c3                   	ret    

00102c07 <pit_handler>:
  102c07:	55                   	push   ebp
  102c08:	89 e5                	mov    ebp,esp
  102c0a:	83 ec 08             	sub    esp,0x8
  102c0d:	83 ec 08             	sub    esp,0x8
  102c10:	6a 20                	push   0x20
  102c12:	6a 20                	push   0x20
  102c14:	e8 e8 23 00 00       	call   105001 <port_outb>
  102c19:	83 c4 10             	add    esp,0x10
  102c1c:	e8 84 22 00 00       	call   104ea5 <pit_calculate>
  102c21:	e8 f9 4e 00 00       	call   107b1f <taskmgr_schedule>
  102c26:	90                   	nop
  102c27:	c9                   	leave  
  102c28:	c3                   	ret    
  102c29:	66 90                	xchg   ax,ax
  102c2b:	66 90                	xchg   ax,ax
  102c2d:	66 90                	xchg   ax,ax
  102c2f:	90                   	nop

00102c30 <gdt_flush>:
  102c30:	8b 44 24 04          	mov    eax,DWORD PTR [esp+0x4]
  102c34:	0f 01 10             	lgdtd  [eax]
  102c37:	66 b8 10 00          	mov    ax,0x10
  102c3b:	8e d8                	mov    ds,eax
  102c3d:	8e c0                	mov    es,eax
  102c3f:	8e e0                	mov    fs,eax
  102c41:	8e e8                	mov    gs,eax
  102c43:	8e d0                	mov    ss,eax
  102c45:	ea 4c 2c 10 00 08 00 	jmp    0x8:0x102c4c

00102c4c <gdt_flush.gdt_flush_end>:
  102c4c:	c3                   	ret    

00102c4d <idt_flush>:
  102c4d:	8b 44 24 04          	mov    eax,DWORD PTR [esp+0x4]
  102c51:	0f 01 18             	lidtd  [eax]
  102c54:	66 b8 10 00          	mov    ax,0x10
  102c58:	8e d8                	mov    ds,eax
  102c5a:	8e c0                	mov    es,eax
  102c5c:	8e e0                	mov    fs,eax
  102c5e:	8e e8                	mov    gs,eax
  102c60:	8e d0                	mov    ss,eax
  102c62:	ea 69 2c 10 00 08 00 	jmp    0x8:0x102c69

00102c69 <idt_flush.idt_flush_end>:
  102c69:	c3                   	ret    

00102c6a <isr_common_stub>:
  102c6a:	60                   	pusha  
  102c6b:	66 8c d8             	mov    ax,ds
  102c6e:	50                   	push   eax
  102c6f:	66 b8 10 00          	mov    ax,0x10
  102c73:	8e d8                	mov    ds,eax
  102c75:	8e c0                	mov    es,eax
  102c77:	8e e0                	mov    fs,eax
  102c79:	8e e8                	mov    gs,eax
  102c7b:	8e d0                	mov    ss,eax
  102c7d:	54                   	push   esp
  102c7e:	e8 08 ff ff ff       	call   102b8b <isr_handler>
  102c83:	83 c4 04             	add    esp,0x4
  102c86:	5b                   	pop    ebx
  102c87:	8e db                	mov    ds,ebx
  102c89:	8e c3                	mov    es,ebx
  102c8b:	8e e3                	mov    fs,ebx
  102c8d:	8e eb                	mov    gs,ebx
  102c8f:	8e d3                	mov    ss,ebx
  102c91:	61                   	popa   
  102c92:	83 c4 08             	add    esp,0x8
  102c95:	cf                   	iret   

00102c96 <irq_common_stub>:
  102c96:	60                   	pusha  
  102c97:	66 8c d8             	mov    ax,ds
  102c9a:	50                   	push   eax
  102c9b:	66 b8 10 00          	mov    ax,0x10
  102c9f:	8e d8                	mov    ds,eax
  102ca1:	8e c0                	mov    es,eax
  102ca3:	8e e0                	mov    fs,eax
  102ca5:	8e e8                	mov    gs,eax
  102ca7:	8e d0                	mov    ss,eax
  102ca9:	54                   	push   esp
  102caa:	e8 fa fe ff ff       	call   102ba9 <irq_handler>
  102caf:	83 c4 04             	add    esp,0x4
  102cb2:	5b                   	pop    ebx
  102cb3:	8e db                	mov    ds,ebx
  102cb5:	8e c3                	mov    es,ebx
  102cb7:	8e e3                	mov    fs,ebx
  102cb9:	8e eb                	mov    gs,ebx
  102cbb:	8e d3                	mov    ss,ebx
  102cbd:	61                   	popa   
  102cbe:	83 c4 08             	add    esp,0x8
  102cc1:	cf                   	iret   

00102cc2 <ts_common_stub>:
  102cc2:	60                   	pusha  
  102cc3:	66 8c d8             	mov    ax,ds
  102cc6:	50                   	push   eax
  102cc7:	66 b8 10 00          	mov    ax,0x10
  102ccb:	8e d8                	mov    ds,eax
  102ccd:	8e c0                	mov    es,eax
  102ccf:	8e e0                	mov    fs,eax
  102cd1:	8e e8                	mov    gs,eax
  102cd3:	8e d0                	mov    ss,eax
  102cd5:	54                   	push   esp
  102cd6:	e8 2c ff ff ff       	call   102c07 <pit_handler>
  102cdb:	83 c4 04             	add    esp,0x4
  102cde:	5b                   	pop    ebx
  102cdf:	8e db                	mov    ds,ebx
  102ce1:	8e c3                	mov    es,ebx
  102ce3:	8e e3                	mov    fs,ebx
  102ce5:	8e eb                	mov    gs,ebx
  102ce7:	8e d3                	mov    ss,ebx
  102ce9:	61                   	popa   
  102cea:	83 c4 08             	add    esp,0x8
  102ced:	cf                   	iret   

00102cee <isr0>:
  102cee:	6a 00                	push   0x0
  102cf0:	6a 00                	push   0x0
  102cf2:	e9 73 ff ff ff       	jmp    102c6a <isr_common_stub>

00102cf7 <isr1>:
  102cf7:	6a 00                	push   0x0
  102cf9:	6a 01                	push   0x1
  102cfb:	e9 6a ff ff ff       	jmp    102c6a <isr_common_stub>

00102d00 <isr2>:
  102d00:	6a 00                	push   0x0
  102d02:	6a 02                	push   0x2
  102d04:	e9 61 ff ff ff       	jmp    102c6a <isr_common_stub>

00102d09 <isr3>:
  102d09:	6a 00                	push   0x0
  102d0b:	6a 03                	push   0x3
  102d0d:	e9 58 ff ff ff       	jmp    102c6a <isr_common_stub>

00102d12 <isr4>:
  102d12:	6a 00                	push   0x0
  102d14:	6a 04                	push   0x4
  102d16:	e9 4f ff ff ff       	jmp    102c6a <isr_common_stub>

00102d1b <isr5>:
  102d1b:	6a 00                	push   0x0
  102d1d:	6a 05                	push   0x5
  102d1f:	e9 46 ff ff ff       	jmp    102c6a <isr_common_stub>

00102d24 <isr6>:
  102d24:	6a 00                	push   0x0
  102d26:	6a 06                	push   0x6
  102d28:	e9 3d ff ff ff       	jmp    102c6a <isr_common_stub>

00102d2d <isr7>:
  102d2d:	6a 00                	push   0x0
  102d2f:	6a 07                	push   0x7
  102d31:	e9 34 ff ff ff       	jmp    102c6a <isr_common_stub>

00102d36 <isr8>:
  102d36:	6a 08                	push   0x8
  102d38:	e9 2d ff ff ff       	jmp    102c6a <isr_common_stub>

00102d3d <isr9>:
  102d3d:	6a 00                	push   0x0
  102d3f:	6a 09                	push   0x9
  102d41:	e9 24 ff ff ff       	jmp    102c6a <isr_common_stub>

00102d46 <isr10>:
  102d46:	6a 0a                	push   0xa
  102d48:	e9 1d ff ff ff       	jmp    102c6a <isr_common_stub>

00102d4d <isr11>:
  102d4d:	6a 0b                	push   0xb
  102d4f:	e9 16 ff ff ff       	jmp    102c6a <isr_common_stub>

00102d54 <isr12>:
  102d54:	6a 0c                	push   0xc
  102d56:	e9 0f ff ff ff       	jmp    102c6a <isr_common_stub>

00102d5b <isr13>:
  102d5b:	6a 0d                	push   0xd
  102d5d:	e9 08 ff ff ff       	jmp    102c6a <isr_common_stub>

00102d62 <isr14>:
  102d62:	6a 0e                	push   0xe
  102d64:	e9 01 ff ff ff       	jmp    102c6a <isr_common_stub>

00102d69 <isr15>:
  102d69:	6a 00                	push   0x0
  102d6b:	6a 0f                	push   0xf
  102d6d:	e9 f8 fe ff ff       	jmp    102c6a <isr_common_stub>

00102d72 <isr16>:
  102d72:	6a 00                	push   0x0
  102d74:	6a 10                	push   0x10
  102d76:	e9 ef fe ff ff       	jmp    102c6a <isr_common_stub>

00102d7b <isr17>:
  102d7b:	6a 11                	push   0x11
  102d7d:	e9 e8 fe ff ff       	jmp    102c6a <isr_common_stub>

00102d82 <isr18>:
  102d82:	6a 00                	push   0x0
  102d84:	6a 12                	push   0x12
  102d86:	e9 df fe ff ff       	jmp    102c6a <isr_common_stub>

00102d8b <isr19>:
  102d8b:	6a 00                	push   0x0
  102d8d:	6a 13                	push   0x13
  102d8f:	e9 d6 fe ff ff       	jmp    102c6a <isr_common_stub>

00102d94 <isr20>:
  102d94:	6a 00                	push   0x0
  102d96:	6a 14                	push   0x14
  102d98:	e9 cd fe ff ff       	jmp    102c6a <isr_common_stub>

00102d9d <isr21>:
  102d9d:	6a 15                	push   0x15
  102d9f:	e9 c6 fe ff ff       	jmp    102c6a <isr_common_stub>

00102da4 <isr22>:
  102da4:	6a 00                	push   0x0
  102da6:	6a 16                	push   0x16
  102da8:	e9 bd fe ff ff       	jmp    102c6a <isr_common_stub>

00102dad <isr23>:
  102dad:	6a 00                	push   0x0
  102daf:	6a 17                	push   0x17
  102db1:	e9 b4 fe ff ff       	jmp    102c6a <isr_common_stub>

00102db6 <isr24>:
  102db6:	6a 00                	push   0x0
  102db8:	6a 18                	push   0x18
  102dba:	e9 ab fe ff ff       	jmp    102c6a <isr_common_stub>

00102dbf <isr25>:
  102dbf:	6a 00                	push   0x0
  102dc1:	6a 19                	push   0x19
  102dc3:	e9 a2 fe ff ff       	jmp    102c6a <isr_common_stub>

00102dc8 <isr26>:
  102dc8:	6a 00                	push   0x0
  102dca:	6a 1a                	push   0x1a
  102dcc:	e9 99 fe ff ff       	jmp    102c6a <isr_common_stub>

00102dd1 <isr27>:
  102dd1:	6a 00                	push   0x0
  102dd3:	6a 1b                	push   0x1b
  102dd5:	e9 90 fe ff ff       	jmp    102c6a <isr_common_stub>

00102dda <isr28>:
  102dda:	6a 00                	push   0x0
  102ddc:	6a 1c                	push   0x1c
  102dde:	e9 87 fe ff ff       	jmp    102c6a <isr_common_stub>

00102de3 <isr29>:
  102de3:	6a 00                	push   0x0
  102de5:	6a 1d                	push   0x1d
  102de7:	e9 7e fe ff ff       	jmp    102c6a <isr_common_stub>

00102dec <isr30>:
  102dec:	6a 00                	push   0x0
  102dee:	6a 1e                	push   0x1e
  102df0:	e9 75 fe ff ff       	jmp    102c6a <isr_common_stub>

00102df5 <isr31>:
  102df5:	6a 00                	push   0x0
  102df7:	6a 1f                	push   0x1f
  102df9:	e9 6c fe ff ff       	jmp    102c6a <isr_common_stub>

00102dfe <irq0>:
  102dfe:	6a 00                	push   0x0
  102e00:	6a 00                	push   0x0
  102e02:	e9 bb fe ff ff       	jmp    102cc2 <ts_common_stub>

00102e07 <irq1>:
  102e07:	6a 01                	push   0x1
  102e09:	6a 21                	push   0x21
  102e0b:	e9 86 fe ff ff       	jmp    102c96 <irq_common_stub>

00102e10 <irq2>:
  102e10:	6a 02                	push   0x2
  102e12:	6a 22                	push   0x22
  102e14:	e9 7d fe ff ff       	jmp    102c96 <irq_common_stub>

00102e19 <irq3>:
  102e19:	6a 03                	push   0x3
  102e1b:	6a 23                	push   0x23
  102e1d:	e9 74 fe ff ff       	jmp    102c96 <irq_common_stub>

00102e22 <irq4>:
  102e22:	6a 04                	push   0x4
  102e24:	6a 24                	push   0x24
  102e26:	e9 6b fe ff ff       	jmp    102c96 <irq_common_stub>

00102e2b <irq5>:
  102e2b:	6a 05                	push   0x5
  102e2d:	6a 25                	push   0x25
  102e2f:	e9 62 fe ff ff       	jmp    102c96 <irq_common_stub>

00102e34 <irq6>:
  102e34:	6a 06                	push   0x6
  102e36:	6a 26                	push   0x26
  102e38:	e9 59 fe ff ff       	jmp    102c96 <irq_common_stub>

00102e3d <irq7>:
  102e3d:	6a 07                	push   0x7
  102e3f:	6a 27                	push   0x27
  102e41:	e9 50 fe ff ff       	jmp    102c96 <irq_common_stub>

00102e46 <irq8>:
  102e46:	6a 08                	push   0x8
  102e48:	6a 28                	push   0x28
  102e4a:	e9 47 fe ff ff       	jmp    102c96 <irq_common_stub>

00102e4f <irq9>:
  102e4f:	6a 09                	push   0x9
  102e51:	6a 29                	push   0x29
  102e53:	e9 3e fe ff ff       	jmp    102c96 <irq_common_stub>

00102e58 <irq10>:
  102e58:	6a 0a                	push   0xa
  102e5a:	6a 2a                	push   0x2a
  102e5c:	e9 35 fe ff ff       	jmp    102c96 <irq_common_stub>

00102e61 <irq11>:
  102e61:	6a 0b                	push   0xb
  102e63:	6a 2b                	push   0x2b
  102e65:	e9 2c fe ff ff       	jmp    102c96 <irq_common_stub>

00102e6a <irq12>:
  102e6a:	6a 0c                	push   0xc
  102e6c:	6a 2c                	push   0x2c
  102e6e:	e9 23 fe ff ff       	jmp    102c96 <irq_common_stub>

00102e73 <irq13>:
  102e73:	6a 0d                	push   0xd
  102e75:	6a 2d                	push   0x2d
  102e77:	e9 1a fe ff ff       	jmp    102c96 <irq_common_stub>

00102e7c <irq14>:
  102e7c:	6a 0e                	push   0xe
  102e7e:	6a 2e                	push   0x2e
  102e80:	e9 11 fe ff ff       	jmp    102c96 <irq_common_stub>

00102e85 <irq15>:
  102e85:	6a 0f                	push   0xf
  102e87:	6a 2f                	push   0x2f
  102e89:	e9 08 fe ff ff       	jmp    102c96 <irq_common_stub>

00102e8e <sti>:
  102e8e:	55                   	push   ebp
  102e8f:	89 e5                	mov    ebp,esp
  102e91:	fb                   	sti    
  102e92:	90                   	nop
  102e93:	5d                   	pop    ebp
  102e94:	c3                   	ret    

00102e95 <kernel_entry>:
  102e95:	55                   	push   ebp
  102e96:	89 e5                	mov    ebp,esp
  102e98:	83 ec 08             	sub    esp,0x8
  102e9b:	8b 45 08             	mov    eax,DWORD PTR [ebp+0x8]
  102e9e:	a3 c0 8c 51 00       	mov    ds:0x518cc0,eax
  102ea3:	e8 0c 00 00 00       	call   102eb4 <kernel_boot>
  102ea8:	e8 75 00 00 00       	call   102f22 <kernel_before_run>
  102ead:	e8 e8 00 00 00       	call   102f9a <kernel_run>
  102eb2:	eb f9                	jmp    102ead <kernel_entry+0x18>

00102eb4 <kernel_boot>:
  102eb4:	55                   	push   ebp
  102eb5:	89 e5                	mov    ebp,esp
  102eb7:	83 ec 08             	sub    esp,0x8
  102eba:	83 ec 0c             	sub    esp,0xc
  102ebd:	68 f8 03 00 00       	push   0x3f8
  102ec2:	e8 92 25 00 00       	call   105459 <serial_setport>
  102ec7:	83 c4 10             	add    esp,0x10
  102eca:	83 ec 0c             	sub    esp,0xc
  102ecd:	6a 01                	push   0x1
  102ecf:	e8 e8 e1 ff ff       	call   1010bc <debug_setmode>
  102ed4:	83 c4 10             	add    esp,0x10
  102ed7:	83 ec 0c             	sub    esp,0xc
  102eda:	68 e8 13 11 00       	push   0x1113e8
  102edf:	e8 74 e8 ff ff       	call   101758 <debug_ok>
  102ee4:	83 c4 10             	add    esp,0x10
  102ee7:	e8 6a f5 ff ff       	call   102456 <gdt_init>
  102eec:	e8 ac f5 ff ff       	call   10249d <idt_init>
  102ef1:	e8 2a fc ff ff       	call   102b20 <isr_init>
  102ef6:	e8 85 1d 00 00       	call   104c80 <mboot_read>
  102efb:	e8 d8 07 00 00       	call   1036d8 <mm_init>
  102f00:	e8 39 2e 00 00       	call   105d3e <service_initmgr>
  102f05:	e8 eb 57 00 00       	call   1086f5 <vga_init>
  102f0a:	e8 b6 21 00 00       	call   1050c5 <rtc_init>
  102f0f:	83 ec 0c             	sub    esp,0xc
  102f12:	68 88 13 00 00       	push   0x1388
  102f17:	e8 ea 1e 00 00       	call   104e06 <pit_init>
  102f1c:	83 c4 10             	add    esp,0x10
  102f1f:	90                   	nop
  102f20:	c9                   	leave  
  102f21:	c3                   	ret    

00102f22 <kernel_before_run>:
  102f22:	55                   	push   ebp
  102f23:	89 e5                	mov    ebp,esp
  102f25:	83 ec 08             	sub    esp,0x8
  102f28:	e8 7a 4e 00 00       	call   107da7 <thread_initial>
  102f2d:	a3 dc 8c 51 00       	mov    ds:0x518cdc,eax
  102f32:	c7 05 c8 8c 51 00 ff ff ff ff 	mov    DWORD PTR ds:0x518cc8,0xffffffff
  102f3c:	c7 05 d4 8c 51 00 00 00 00 00 	mov    DWORD PTR ds:0x518cd4,0x0
  102f46:	a1 dc 8c 51 00       	mov    eax,ds:0x518cdc
  102f4b:	83 ec 0c             	sub    esp,0xc
  102f4e:	50                   	push   eax
  102f4f:	e8 57 48 00 00       	call   1077ab <taskmgr_init>
  102f54:	83 c4 10             	add    esp,0x10
  102f57:	83 ec 08             	sub    esp,0x8
  102f5a:	68 00 20 00 00       	push   0x2000
  102f5f:	68 55 31 10 00       	push   0x103155
  102f64:	e8 9a 4e 00 00       	call   107e03 <thread_create>
  102f69:	83 c4 10             	add    esp,0x10
  102f6c:	a3 c4 8c 51 00       	mov    ds:0x518cc4,eax
  102f71:	e8 a6 02 00 00       	call   10321c <kbps2_init>
  102f76:	83 ec 0c             	sub    esp,0xc
  102f79:	6a 01                	push   0x1
  102f7b:	e8 fb 06 00 00       	call   10367b <kbps2_toggle_term_output>
  102f80:	83 c4 10             	add    esp,0x10
  102f83:	e8 a6 d1 ff ff       	call   10012e <cli_init>
  102f88:	e8 d7 d3 ff ff       	call   100364 <cli_print_caret>
  102f8d:	e8 7d 48 00 00       	call   10780f <taskmgr_start>
  102f92:	e8 f7 fe ff ff       	call   102e8e <sti>
  102f97:	90                   	nop
  102f98:	c9                   	leave  
  102f99:	c3                   	ret    

00102f9a <kernel_run>:
  102f9a:	55                   	push   ebp
  102f9b:	89 e5                	mov    ebp,esp
  102f9d:	81 ec c8 00 00 00    	sub    esp,0xc8
  102fa3:	e8 69 d5 ff ff       	call   100511 <cli_monitor>
  102fa8:	a1 dc 8c 51 00       	mov    eax,ds:0x518cdc
  102fad:	83 ec 0c             	sub    esp,0xc
  102fb0:	50                   	push   eax
  102fb1:	e8 46 4f 00 00       	call   107efc <thread_monitor>
  102fb6:	83 c4 10             	add    esp,0x10
  102fb9:	e8 89 1f 00 00       	call   104f47 <pit_get_seconds_total>
  102fbe:	a3 c8 8c 51 00       	mov    ds:0x518cc8,eax
  102fc3:	8b 15 c8 8c 51 00    	mov    edx,DWORD PTR ds:0x518cc8
  102fc9:	a1 d4 8c 51 00       	mov    eax,ds:0x518cd4
  102fce:	39 c2                	cmp    edx,eax
  102fd0:	0f 84 7c 01 00 00    	je     103152 <kernel_run+0x1b8>
  102fd6:	e8 9e 49 00 00       	call   107979 <tlock>
  102fdb:	a1 c8 8c 51 00       	mov    eax,ds:0x518cc8
  102fe0:	a3 d4 8c 51 00       	mov    ds:0x518cd4,eax
  102fe5:	e8 ad 49 00 00       	call   107997 <taskmgr_calculate_cpu_usage>
  102fea:	83 ec 0c             	sub    esp,0xc
  102fed:	68 08 14 11 00       	push   0x111408
  102ff2:	e8 86 e7 ff ff       	call   10177d <debug_info>
  102ff7:	83 c4 10             	add    esp,0x10
  102ffa:	83 ec 04             	sub    esp,0x4
  102ffd:	6a 40                	push   0x40
  102fff:	6a 00                	push   0x0
  103001:	8d 85 38 ff ff ff    	lea    eax,[ebp-0xc8]
  103007:	50                   	push   eax
  103008:	e8 a8 1a 00 00       	call   104ab5 <memset>
  10300d:	83 c4 10             	add    esp,0x10
  103010:	83 ec 04             	sub    esp,0x4
  103013:	6a 40                	push   0x40
  103015:	6a 00                	push   0x0
  103017:	8d 85 78 ff ff ff    	lea    eax,[ebp-0x88]
  10301d:	50                   	push   eax
  10301e:	e8 92 1a 00 00       	call   104ab5 <memset>
  103023:	83 c4 10             	add    esp,0x10
  103026:	83 ec 04             	sub    esp,0x4
  103029:	6a 40                	push   0x40
  10302b:	6a 00                	push   0x0
  10302d:	8d 45 b8             	lea    eax,[ebp-0x48]
  103030:	50                   	push   eax
  103031:	e8 7f 1a 00 00       	call   104ab5 <memset>
  103036:	83 c4 10             	add    esp,0x10
  103039:	83 ec 08             	sub    esp,0x8
  10303c:	68 10 14 11 00       	push   0x111410
  103041:	8d 85 38 ff ff ff    	lea    eax,[ebp-0xc8]
  103047:	50                   	push   eax
  103048:	e8 88 39 00 00       	call   1069d5 <strcat>
  10304d:	83 c4 10             	add    esp,0x10
  103050:	a1 dc 8c 51 00       	mov    eax,ds:0x518cdc
  103055:	8b 40 36             	mov    eax,DWORD PTR [eax+0x36]
  103058:	83 ec 04             	sub    esp,0x4
  10305b:	6a 0a                	push   0xa
  10305d:	8d 55 b8             	lea    edx,[ebp-0x48]
  103060:	52                   	push   edx
  103061:	50                   	push   eax
  103062:	e8 34 df ff ff       	call   100f9b <ltoa>
  103067:	83 c4 10             	add    esp,0x10
  10306a:	83 ec 08             	sub    esp,0x8
  10306d:	50                   	push   eax
  10306e:	8d 85 38 ff ff ff    	lea    eax,[ebp-0xc8]
  103074:	50                   	push   eax
  103075:	e8 5b 39 00 00       	call   1069d5 <strcat>
  10307a:	83 c4 10             	add    esp,0x10
  10307d:	83 ec 08             	sub    esp,0x8
  103080:	68 1d 14 11 00       	push   0x11141d
  103085:	8d 85 78 ff ff ff    	lea    eax,[ebp-0x88]
  10308b:	50                   	push   eax
  10308c:	e8 44 39 00 00       	call   1069d5 <strcat>
  103091:	83 c4 10             	add    esp,0x10
  103094:	a1 c4 8c 51 00       	mov    eax,ds:0x518cc4
  103099:	8b 40 36             	mov    eax,DWORD PTR [eax+0x36]
  10309c:	83 ec 04             	sub    esp,0x4
  10309f:	6a 0a                	push   0xa
  1030a1:	8d 55 b8             	lea    edx,[ebp-0x48]
  1030a4:	52                   	push   edx
  1030a5:	50                   	push   eax
  1030a6:	e8 f0 de ff ff       	call   100f9b <ltoa>
  1030ab:	83 c4 10             	add    esp,0x10
  1030ae:	83 ec 08             	sub    esp,0x8
  1030b1:	50                   	push   eax
  1030b2:	8d 85 78 ff ff ff    	lea    eax,[ebp-0x88]
  1030b8:	50                   	push   eax
  1030b9:	e8 17 39 00 00       	call   1069d5 <strcat>
  1030be:	83 c4 10             	add    esp,0x10
  1030c1:	e8 c6 63 00 00       	call   10948c <vga_get_height>
  1030c6:	83 e8 01             	sub    eax,0x1
  1030c9:	0f b7 c0             	movzx  eax,ax
  1030cc:	83 ec 0c             	sub    esp,0xc
  1030cf:	6a 01                	push   0x1
  1030d1:	6a 0f                	push   0xf
  1030d3:	68 2c 14 11 00       	push   0x11142c
  1030d8:	50                   	push   eax
  1030d9:	6a 00                	push   0x0
  1030db:	e8 01 5a 00 00       	call   108ae1 <vga_putstr>
  1030e0:	83 c4 20             	add    esp,0x20
  1030e3:	e8 a4 63 00 00       	call   10948c <vga_get_height>
  1030e8:	83 e8 02             	sub    eax,0x2
  1030eb:	0f b7 c0             	movzx  eax,ax
  1030ee:	83 ec 0c             	sub    esp,0xc
  1030f1:	6a 01                	push   0x1
  1030f3:	6a 0f                	push   0xf
  1030f5:	68 2c 14 11 00       	push   0x11142c
  1030fa:	50                   	push   eax
  1030fb:	6a 00                	push   0x0
  1030fd:	e8 df 59 00 00       	call   108ae1 <vga_putstr>
  103102:	83 c4 20             	add    esp,0x20
  103105:	e8 82 63 00 00       	call   10948c <vga_get_height>
  10310a:	83 e8 01             	sub    eax,0x1
  10310d:	0f b7 c0             	movzx  eax,ax
  103110:	83 ec 0c             	sub    esp,0xc
  103113:	6a 01                	push   0x1
  103115:	6a 0f                	push   0xf
  103117:	8d 95 38 ff ff ff    	lea    edx,[ebp-0xc8]
  10311d:	52                   	push   edx
  10311e:	50                   	push   eax
  10311f:	6a 00                	push   0x0
  103121:	e8 bb 59 00 00       	call   108ae1 <vga_putstr>
  103126:	83 c4 20             	add    esp,0x20
  103129:	e8 5e 63 00 00       	call   10948c <vga_get_height>
  10312e:	83 e8 02             	sub    eax,0x2
  103131:	0f b7 c0             	movzx  eax,ax
  103134:	83 ec 0c             	sub    esp,0xc
  103137:	6a 01                	push   0x1
  103139:	6a 0f                	push   0xf
  10313b:	8d 95 78 ff ff ff    	lea    edx,[ebp-0x88]
  103141:	52                   	push   edx
  103142:	50                   	push   eax
  103143:	6a 00                	push   0x0
  103145:	e8 97 59 00 00       	call   108ae1 <vga_putstr>
  10314a:	83 c4 20             	add    esp,0x20
  10314d:	e8 36 48 00 00       	call   107988 <tunlock>
  103152:	90                   	nop
  103153:	c9                   	leave  
  103154:	c3                   	ret    

00103155 <idle_main>:
  103155:	55                   	push   ebp
  103156:	89 e5                	mov    ebp,esp
  103158:	83 ec 08             	sub    esp,0x8
  10315b:	e8 19 48 00 00       	call   107979 <tlock>
  103160:	83 ec 0c             	sub    esp,0xc
  103163:	ff 75 08             	push   DWORD PTR [ebp+0x8]
  103166:	e8 91 4d 00 00       	call   107efc <thread_monitor>
  10316b:	83 c4 10             	add    esp,0x10
  10316e:	e8 15 48 00 00       	call   107988 <tunlock>
  103173:	eb e6                	jmp    10315b <idle_main+0x6>

00103175 <kernel_get_thread>:
  103175:	55                   	push   ebp
  103176:	89 e5                	mov    ebp,esp
  103178:	a1 dc 8c 51 00       	mov    eax,ds:0x518cdc
  10317d:	5d                   	pop    ebp
  10317e:	c3                   	ret    

0010317f <idle_get_thread>:
  10317f:	55                   	push   ebp
  103180:	89 e5                	mov    ebp,esp
  103182:	a1 c4 8c 51 00       	mov    eax,ds:0x518cc4
  103187:	5d                   	pop    ebp
  103188:	c3                   	ret    

00103189 <kernel_address_start>:
  103189:	55                   	push   ebp
  10318a:	89 e5                	mov    ebp,esp
  10318c:	b8 00 00 00 00       	mov    eax,0x0
  103191:	5d                   	pop    ebp
  103192:	c3                   	ret    

00103193 <kernel_address_end>:
  103193:	55                   	push   ebp
  103194:	89 e5                	mov    ebp,esp
  103196:	b8 38 8e 51 00       	mov    eax,0x518e38
  10319b:	5d                   	pop    ebp
  10319c:	c3                   	ret    

0010319d <kernel_mboot_address_start>:
  10319d:	55                   	push   ebp
  10319e:	89 e5                	mov    ebp,esp
  1031a0:	a1 c0 8c 51 00       	mov    eax,ds:0x518cc0
  1031a5:	5d                   	pop    ebp
  1031a6:	c3                   	ret    

001031a7 <kbps2_start>:
  1031a7:	55                   	push   ebp
  1031a8:	89 e5                	mov    ebp,esp
  1031aa:	83 ec 08             	sub    esp,0x8
  1031ad:	c6 05 f9 8c 51 00 00 	mov    BYTE PTR ds:0x518cf9,0x0
  1031b4:	83 ec 08             	sub    esp,0x8
  1031b7:	6a 05                	push   0x5
  1031b9:	68 00 01 00 00       	push   0x100
  1031be:	e8 1b 1a 00 00       	call   104bde <tcalloc>
  1031c3:	83 c4 10             	add    esp,0x10
  1031c6:	a3 fc 8c 51 00       	mov    ds:0x518cfc,eax
  1031cb:	c7 05 e8 8c 51 00 00 00 00 00 	mov    DWORD PTR ds:0x518ce8,0x0
  1031d5:	c7 05 ec 8c 51 00 00 00 00 00 	mov    DWORD PTR ds:0x518cec,0x0
  1031df:	e8 13 04 00 00       	call   1035f7 <kbps2_keymap_clear>
  1031e4:	83 ec 08             	sub    esp,0x8
  1031e7:	68 76 32 10 00       	push   0x103276
  1031ec:	6a 21                	push   0x21
  1031ee:	e8 4b f9 ff ff       	call   102b3e <irq_register>
  1031f3:	83 c4 10             	add    esp,0x10
  1031f6:	90                   	nop
  1031f7:	c9                   	leave  
  1031f8:	c3                   	ret    

001031f9 <kbps2_stop>:
  1031f9:	55                   	push   ebp
  1031fa:	89 e5                	mov    ebp,esp
  1031fc:	83 ec 08             	sub    esp,0x8
  1031ff:	a1 fc 8c 51 00       	mov    eax,ds:0x518cfc
  103204:	85 c0                	test   eax,eax
  103206:	74 11                	je     103219 <kbps2_stop+0x20>
  103208:	a1 fc 8c 51 00       	mov    eax,ds:0x518cfc
  10320d:	83 ec 0c             	sub    esp,0xc
  103210:	50                   	push   eax
  103211:	e8 f5 19 00 00       	call   104c0b <free>
  103216:	83 c4 10             	add    esp,0x10
  103219:	90                   	nop
  10321a:	c9                   	leave  
  10321b:	c3                   	ret    

0010321c <kbps2_init>:
  10321c:	55                   	push   ebp
  10321d:	89 e5                	mov    ebp,esp
  10321f:	83 ec 08             	sub    esp,0x8
  103222:	68 f9 31 10 00       	push   0x1031f9
  103227:	68 a7 31 10 00       	push   0x1031a7
  10322c:	6a 01                	push   0x1
  10322e:	68 a8 18 11 00       	push   0x1118a8
  103233:	e8 55 2c 00 00       	call   105e8d <service_create>
  103238:	83 c4 10             	add    esp,0x10
  10323b:	a3 04 8d 51 00       	mov    ds:0x518d04,eax
  103240:	a1 04 8d 51 00       	mov    eax,ds:0x518d04
  103245:	83 ec 0c             	sub    esp,0xc
  103248:	50                   	push   eax
  103249:	e8 ec 2c 00 00       	call   105f3a <service_register>
  10324e:	83 c4 10             	add    esp,0x10
  103251:	84 c0                	test   al,al
  103253:	74 1e                	je     103273 <kbps2_init+0x57>
  103255:	a1 04 8d 51 00       	mov    eax,ds:0x518d04
  10325a:	c6 40 08 01          	mov    BYTE PTR [eax+0x8],0x1
  10325e:	a1 04 8d 51 00       	mov    eax,ds:0x518d04
  103263:	83 ec 0c             	sub    esp,0xc
  103266:	50                   	push   eax
  103267:	e8 4c 2d 00 00       	call   105fb8 <service_start>
  10326c:	83 c4 10             	add    esp,0x10
  10326f:	84 c0                	test   al,al
  103271:	eb 01                	jmp    103274 <kbps2_init+0x58>
  103273:	90                   	nop
  103274:	c9                   	leave  
  103275:	c3                   	ret    

00103276 <kbps2_callback>:
  103276:	55                   	push   ebp
  103277:	89 e5                	mov    ebp,esp
  103279:	83 ec 18             	sub    esp,0x18
  10327c:	e8 f8 46 00 00       	call   107979 <tlock>
  103281:	83 ec 0c             	sub    esp,0xc
  103284:	6a 64                	push   0x64
  103286:	e8 ea 1c 00 00       	call   104f75 <port_inb>
  10328b:	83 c4 10             	add    esp,0x10
  10328e:	88 45 f7             	mov    BYTE PTR [ebp-0x9],al
  103291:	83 ec 0c             	sub    esp,0xc
  103294:	6a 60                	push   0x60
  103296:	e8 da 1c 00 00       	call   104f75 <port_inb>
  10329b:	83 c4 10             	add    esp,0x10
  10329e:	a2 f9 8c 51 00       	mov    ds:0x518cf9,al
  1032a3:	0f b6 05 f9 8c 51 00 	movzx  eax,BYTE PTR ds:0x518cf9
  1032aa:	0f b6 c0             	movzx  eax,al
  1032ad:	83 ec 0c             	sub    esp,0xc
  1032b0:	50                   	push   eax
  1032b1:	e8 0a 00 00 00       	call   1032c0 <kbps2_handle_scancode>
  1032b6:	83 c4 10             	add    esp,0x10
  1032b9:	e8 ca 46 00 00       	call   107988 <tunlock>
  1032be:	c9                   	leave  
  1032bf:	c3                   	ret    

001032c0 <kbps2_handle_scancode>:
  1032c0:	55                   	push   ebp
  1032c1:	89 e5                	mov    ebp,esp
  1032c3:	83 ec 28             	sub    esp,0x28
  1032c6:	8b 45 08             	mov    eax,DWORD PTR [ebp+0x8]
  1032c9:	88 45 e4             	mov    BYTE PTR [ebp-0x1c],al
  1032cc:	c6 45 f7 00          	mov    BYTE PTR [ebp-0x9],0x0
  1032d0:	e8 43 03 00 00       	call   103618 <kbps2_keymap_update>
  1032d5:	0f b6 45 e4          	movzx  eax,BYTE PTR [ebp-0x1c]
  1032d9:	83 f8 3a             	cmp    eax,0x3a
  1032dc:	0f 84 b8 00 00 00    	je     10339a <kbps2_handle_scancode+0xda>
  1032e2:	83 f8 3a             	cmp    eax,0x3a
  1032e5:	7f 45                	jg     10332c <kbps2_handle_scancode+0x6c>
  1032e7:	83 f8 1d             	cmp    eax,0x1d
  1032ea:	0f 84 25 01 00 00    	je     103415 <kbps2_handle_scancode+0x155>
  1032f0:	83 f8 1d             	cmp    eax,0x1d
  1032f3:	7f 17                	jg     10330c <kbps2_handle_scancode+0x4c>
  1032f5:	83 f8 0e             	cmp    eax,0xe
  1032f8:	0f 84 84 00 00 00    	je     103382 <kbps2_handle_scancode+0xc2>
  1032fe:	83 f8 1c             	cmp    eax,0x1c
  103301:	0f 84 ab 00 00 00    	je     1033b2 <kbps2_handle_scancode+0xf2>
  103307:	e9 39 01 00 00       	jmp    103445 <kbps2_handle_scancode+0x185>
  10330c:	83 f8 36             	cmp    eax,0x36
  10330f:	0f 84 e8 00 00 00    	je     1033fd <kbps2_handle_scancode+0x13d>
  103315:	83 f8 38             	cmp    eax,0x38
  103318:	0f 84 0f 01 00 00    	je     10342d <kbps2_handle_scancode+0x16d>
  10331e:	83 f8 2a             	cmp    eax,0x2a
  103321:	0f 84 be 00 00 00    	je     1033e5 <kbps2_handle_scancode+0x125>
  103327:	e9 19 01 00 00       	jmp    103445 <kbps2_handle_scancode+0x185>
  10332c:	3d aa 00 00 00       	cmp    eax,0xaa
  103331:	0f 84 ba 00 00 00    	je     1033f1 <kbps2_handle_scancode+0x131>
  103337:	3d aa 00 00 00       	cmp    eax,0xaa
  10333c:	7f 22                	jg     103360 <kbps2_handle_scancode+0xa0>
  10333e:	3d 9c 00 00 00       	cmp    eax,0x9c
  103343:	0f 84 90 00 00 00    	je     1033d9 <kbps2_handle_scancode+0x119>
  103349:	3d 9d 00 00 00       	cmp    eax,0x9d
  10334e:	0f 84 cd 00 00 00    	je     103421 <kbps2_handle_scancode+0x161>
  103354:	3d 8e 00 00 00       	cmp    eax,0x8e
  103359:	74 33                	je     10338e <kbps2_handle_scancode+0xce>
  10335b:	e9 e5 00 00 00       	jmp    103445 <kbps2_handle_scancode+0x185>
  103360:	3d b8 00 00 00       	cmp    eax,0xb8
  103365:	0f 84 ce 00 00 00    	je     103439 <kbps2_handle_scancode+0x179>
  10336b:	3d ba 00 00 00       	cmp    eax,0xba
  103370:	74 34                	je     1033a6 <kbps2_handle_scancode+0xe6>
  103372:	3d b6 00 00 00       	cmp    eax,0xb6
  103377:	0f 84 8c 00 00 00    	je     103409 <kbps2_handle_scancode+0x149>
  10337d:	e9 c3 00 00 00       	jmp    103445 <kbps2_handle_scancode+0x185>
  103382:	c6 05 f0 8c 51 00 01 	mov    BYTE PTR ds:0x518cf0,0x1
  103389:	e9 43 01 00 00       	jmp    1034d1 <kbps2_handle_scancode+0x211>
  10338e:	c6 05 f0 8c 51 00 00 	mov    BYTE PTR ds:0x518cf0,0x0
  103395:	e9 37 01 00 00       	jmp    1034d1 <kbps2_handle_scancode+0x211>
  10339a:	c6 05 e0 8c 51 00 01 	mov    BYTE PTR ds:0x518ce0,0x1
  1033a1:	e9 2b 01 00 00       	jmp    1034d1 <kbps2_handle_scancode+0x211>
  1033a6:	c6 05 e0 8c 51 00 00 	mov    BYTE PTR ds:0x518ce0,0x0
  1033ad:	e9 1f 01 00 00       	jmp    1034d1 <kbps2_handle_scancode+0x211>
  1033b2:	a1 0c 8d 51 00       	mov    eax,ds:0x518d0c
  1033b7:	85 c0                	test   eax,eax
  1033b9:	74 12                	je     1033cd <kbps2_handle_scancode+0x10d>
  1033bb:	a1 0c 8d 51 00       	mov    eax,ds:0x518d0c
  1033c0:	83 ec 0c             	sub    esp,0xc
  1033c3:	68 e4 8c 51 00       	push   0x518ce4
  1033c8:	ff d0                	call   eax
  1033ca:	83 c4 10             	add    esp,0x10
  1033cd:	c6 05 fb 8c 51 00 01 	mov    BYTE PTR ds:0x518cfb,0x1
  1033d4:	e9 f8 00 00 00       	jmp    1034d1 <kbps2_handle_scancode+0x211>
  1033d9:	c6 05 fb 8c 51 00 00 	mov    BYTE PTR ds:0x518cfb,0x0
  1033e0:	e9 ec 00 00 00       	jmp    1034d1 <kbps2_handle_scancode+0x211>
  1033e5:	c6 05 00 8d 51 00 01 	mov    BYTE PTR ds:0x518d00,0x1
  1033ec:	e9 e0 00 00 00       	jmp    1034d1 <kbps2_handle_scancode+0x211>
  1033f1:	c6 05 00 8d 51 00 00 	mov    BYTE PTR ds:0x518d00,0x0
  1033f8:	e9 d4 00 00 00       	jmp    1034d1 <kbps2_handle_scancode+0x211>
  1033fd:	c6 05 08 8d 51 00 01 	mov    BYTE PTR ds:0x518d08,0x1
  103404:	e9 c8 00 00 00       	jmp    1034d1 <kbps2_handle_scancode+0x211>
  103409:	c6 05 08 8d 51 00 00 	mov    BYTE PTR ds:0x518d08,0x0
  103410:	e9 bc 00 00 00       	jmp    1034d1 <kbps2_handle_scancode+0x211>
  103415:	c6 05 e1 8c 51 00 01 	mov    BYTE PTR ds:0x518ce1,0x1
  10341c:	e9 b0 00 00 00       	jmp    1034d1 <kbps2_handle_scancode+0x211>
  103421:	c6 05 e1 8c 51 00 00 	mov    BYTE PTR ds:0x518ce1,0x0
  103428:	e9 a4 00 00 00       	jmp    1034d1 <kbps2_handle_scancode+0x211>
  10342d:	c6 05 f8 8c 51 00 01 	mov    BYTE PTR ds:0x518cf8,0x1
  103434:	e9 98 00 00 00       	jmp    1034d1 <kbps2_handle_scancode+0x211>
  103439:	c6 05 f8 8c 51 00 00 	mov    BYTE PTR ds:0x518cf8,0x0
  103440:	e9 8c 00 00 00       	jmp    1034d1 <kbps2_handle_scancode+0x211>
  103445:	0f b6 05 00 8d 51 00 	movzx  eax,BYTE PTR ds:0x518d00
  10344c:	84 c0                	test   al,al
  10344e:	75 0b                	jne    10345b <kbps2_handle_scancode+0x19b>
  103450:	0f b6 05 08 8d 51 00 	movzx  eax,BYTE PTR ds:0x518d08
  103457:	84 c0                	test   al,al
  103459:	74 0b                	je     103466 <kbps2_handle_scancode+0x1a6>
  10345b:	0f b6 05 e0 8c 51 00 	movzx  eax,BYTE PTR ds:0x518ce0
  103462:	84 c0                	test   al,al
  103464:	74 21                	je     103487 <kbps2_handle_scancode+0x1c7>
  103466:	0f b6 05 00 8d 51 00 	movzx  eax,BYTE PTR ds:0x518d00
  10346d:	84 c0                	test   al,al
  10346f:	75 1d                	jne    10348e <kbps2_handle_scancode+0x1ce>
  103471:	0f b6 05 08 8d 51 00 	movzx  eax,BYTE PTR ds:0x518d08
  103478:	84 c0                	test   al,al
  10347a:	75 12                	jne    10348e <kbps2_handle_scancode+0x1ce>
  10347c:	0f b6 05 e0 8c 51 00 	movzx  eax,BYTE PTR ds:0x518ce0
  103483:	84 c0                	test   al,al
  103485:	74 07                	je     10348e <kbps2_handle_scancode+0x1ce>
  103487:	b8 01 00 00 00       	mov    eax,0x1
  10348c:	eb 05                	jmp    103493 <kbps2_handle_scancode+0x1d3>
  10348e:	b8 00 00 00 00       	mov    eax,0x0
  103493:	88 45 f6             	mov    BYTE PTR [ebp-0xa],al
  103496:	80 7d f6 00          	cmp    BYTE PTR [ebp-0xa],0x0
  10349a:	74 10                	je     1034ac <kbps2_handle_scancode+0x1ec>
  10349c:	0f b6 45 e4          	movzx  eax,BYTE PTR [ebp-0x1c]
  1034a0:	0f b6 80 84 14 11 00 	movzx  eax,BYTE PTR [eax+0x111484]
  1034a7:	88 45 f7             	mov    BYTE PTR [ebp-0x9],al
  1034aa:	eb 0e                	jmp    1034ba <kbps2_handle_scancode+0x1fa>
  1034ac:	0f b6 45 e4          	movzx  eax,BYTE PTR [ebp-0x1c]
  1034b0:	0f b6 80 c0 14 11 00 	movzx  eax,BYTE PTR [eax+0x1114c0]
  1034b7:	88 45 f7             	mov    BYTE PTR [ebp-0x9],al
  1034ba:	80 7d e4 35          	cmp    BYTE PTR [ebp-0x1c],0x35
  1034be:	74 06                	je     1034c6 <kbps2_handle_scancode+0x206>
  1034c0:	80 7d f7 3f          	cmp    BYTE PTR [ebp-0x9],0x3f
  1034c4:	74 06                	je     1034cc <kbps2_handle_scancode+0x20c>
  1034c6:	80 7d e4 39          	cmp    BYTE PTR [ebp-0x1c],0x39
  1034ca:	76 04                	jbe    1034d0 <kbps2_handle_scancode+0x210>
  1034cc:	c6 45 f7 00          	mov    BYTE PTR [ebp-0x9],0x0
  1034d0:	90                   	nop
  1034d1:	0f be 45 f7          	movsx  eax,BYTE PTR [ebp-0x9]
  1034d5:	83 ec 0c             	sub    esp,0xc
  1034d8:	50                   	push   eax
  1034d9:	e8 06 00 00 00       	call   1034e4 <kbps2_handle_char>
  1034de:	83 c4 10             	add    esp,0x10
  1034e1:	90                   	nop
  1034e2:	c9                   	leave  
  1034e3:	c3                   	ret    

001034e4 <kbps2_handle_char>:
  1034e4:	55                   	push   ebp
  1034e5:	89 e5                	mov    ebp,esp
  1034e7:	53                   	push   ebx
  1034e8:	83 ec 24             	sub    esp,0x24
  1034eb:	8b 45 08             	mov    eax,DWORD PTR [ebp+0x8]
  1034ee:	88 45 e4             	mov    BYTE PTR [ebp-0x1c],al
  1034f1:	a1 ec 8c 51 00       	mov    eax,ds:0x518cec
  1034f6:	85 c0                	test   eax,eax
  1034f8:	75 19                	jne    103513 <kbps2_handle_char+0x2f>
  1034fa:	83 ec 04             	sub    esp,0x4
  1034fd:	68 b4 18 11 00       	push   0x1118b4
  103502:	6a 00                	push   0x0
  103504:	6a 02                	push   0x2
  103506:	e8 1e ee ff ff       	call   102329 <panicf>
  10350b:	83 c4 10             	add    esp,0x10
  10350e:	e9 b4 00 00 00       	jmp    1035c7 <kbps2_handle_char+0xe3>
  103513:	0f b6 05 f0 8c 51 00 	movzx  eax,BYTE PTR ds:0x518cf0
  10351a:	84 c0                	test   al,al
  10351c:	74 4d                	je     10356b <kbps2_handle_char+0x87>
  10351e:	a1 ec 8c 51 00       	mov    eax,ds:0x518cec
  103523:	83 ec 0c             	sub    esp,0xc
  103526:	50                   	push   eax
  103527:	e8 c4 36 00 00       	call   106bf0 <strlen>
  10352c:	83 c4 10             	add    esp,0x10
  10352f:	85 c0                	test   eax,eax
  103531:	74 2f                	je     103562 <kbps2_handle_char+0x7e>
  103533:	8b 1d ec 8c 51 00    	mov    ebx,DWORD PTR ds:0x518cec
  103539:	a1 ec 8c 51 00       	mov    eax,ds:0x518cec
  10353e:	83 ec 0c             	sub    esp,0xc
  103541:	50                   	push   eax
  103542:	e8 a9 36 00 00       	call   106bf0 <strlen>
  103547:	83 c4 10             	add    esp,0x10
  10354a:	83 e8 01             	sub    eax,0x1
  10354d:	01 d8                	add    eax,ebx
  10354f:	c6 00 00             	mov    BYTE PTR [eax],0x0
  103552:	0f b6 05 fa 8c 51 00 	movzx  eax,BYTE PTR ds:0x518cfa
  103559:	84 c0                	test   al,al
  10355b:	74 05                	je     103562 <kbps2_handle_char+0x7e>
  10355d:	e8 f6 52 00 00       	call   108858 <vga_delete>
  103562:	c6 05 f0 8c 51 00 00 	mov    BYTE PTR ds:0x518cf0,0x0
  103569:	eb 5c                	jmp    1035c7 <kbps2_handle_char+0xe3>
  10356b:	80 7d e4 1f          	cmp    BYTE PTR [ebp-0x1c],0x1f
  10356f:	7e 56                	jle    1035c7 <kbps2_handle_char+0xe3>
  103571:	80 7d e4 7f          	cmp    BYTE PTR [ebp-0x1c],0x7f
  103575:	74 50                	je     1035c7 <kbps2_handle_char+0xe3>
  103577:	a1 ec 8c 51 00       	mov    eax,ds:0x518cec
  10357c:	83 ec 0c             	sub    esp,0xc
  10357f:	50                   	push   eax
  103580:	e8 6b 36 00 00       	call   106bf0 <strlen>
  103585:	83 c4 10             	add    esp,0x10
  103588:	89 45 f4             	mov    DWORD PTR [ebp-0xc],eax
  10358b:	8b 15 ec 8c 51 00    	mov    edx,DWORD PTR ds:0x518cec
  103591:	8b 45 f4             	mov    eax,DWORD PTR [ebp-0xc]
  103594:	01 c2                	add    edx,eax
  103596:	0f b6 45 e4          	movzx  eax,BYTE PTR [ebp-0x1c]
  10359a:	88 02                	mov    BYTE PTR [edx],al
  10359c:	a1 ec 8c 51 00       	mov    eax,ds:0x518cec
  1035a1:	8b 55 f4             	mov    edx,DWORD PTR [ebp-0xc]
  1035a4:	83 c2 01             	add    edx,0x1
  1035a7:	01 d0                	add    eax,edx
  1035a9:	c6 00 00             	mov    BYTE PTR [eax],0x0
  1035ac:	0f b6 05 fa 8c 51 00 	movzx  eax,BYTE PTR ds:0x518cfa
  1035b3:	84 c0                	test   al,al
  1035b5:	74 10                	je     1035c7 <kbps2_handle_char+0xe3>
  1035b7:	0f be 45 e4          	movsx  eax,BYTE PTR [ebp-0x1c]
  1035bb:	83 ec 0c             	sub    esp,0xc
  1035be:	50                   	push   eax
  1035bf:	e8 9c 55 00 00       	call   108b60 <vga_writechar>
  1035c4:	83 c4 10             	add    esp,0x10
  1035c7:	8b 5d fc             	mov    ebx,DWORD PTR [ebp-0x4]
  1035ca:	c9                   	leave  
  1035cb:	c3                   	ret    

001035cc <kbps2_key_down>:
  1035cc:	55                   	push   ebp
  1035cd:	89 e5                	mov    ebp,esp
  1035cf:	8b 15 fc 8c 51 00    	mov    edx,DWORD PTR ds:0x518cfc
  1035d5:	8b 45 08             	mov    eax,DWORD PTR [ebp+0x8]
  1035d8:	01 d0                	add    eax,edx
  1035da:	0f b6 00             	movzx  eax,BYTE PTR [eax]
  1035dd:	5d                   	pop    ebp
  1035de:	c3                   	ret    

001035df <kbps2_key_up>:
  1035df:	55                   	push   ebp
  1035e0:	89 e5                	mov    ebp,esp
  1035e2:	8b 15 fc 8c 51 00    	mov    edx,DWORD PTR ds:0x518cfc
  1035e8:	8b 45 08             	mov    eax,DWORD PTR [ebp+0x8]
  1035eb:	01 d0                	add    eax,edx
  1035ed:	0f b6 00             	movzx  eax,BYTE PTR [eax]
  1035f0:	84 c0                	test   al,al
  1035f2:	0f 94 c0             	sete   al
  1035f5:	5d                   	pop    ebp
  1035f6:	c3                   	ret    

001035f7 <kbps2_keymap_clear>:
  1035f7:	55                   	push   ebp
  1035f8:	89 e5                	mov    ebp,esp
  1035fa:	83 ec 08             	sub    esp,0x8
  1035fd:	a1 fc 8c 51 00       	mov    eax,ds:0x518cfc
  103602:	83 ec 04             	sub    esp,0x4
  103605:	68 00 01 00 00       	push   0x100
  10360a:	6a 00                	push   0x0
  10360c:	50                   	push   eax
  10360d:	e8 a3 14 00 00       	call   104ab5 <memset>
  103612:	83 c4 10             	add    esp,0x10
  103615:	90                   	nop
  103616:	c9                   	leave  
  103617:	c3                   	ret    

00103618 <kbps2_keymap_update>:
  103618:	55                   	push   ebp
  103619:	89 e5                	mov    ebp,esp
  10361b:	0f b6 05 f9 8c 51 00 	movzx  eax,BYTE PTR ds:0x518cf9
  103622:	3c 58                	cmp    al,0x58
  103624:	77 17                	ja     10363d <kbps2_keymap_update+0x25>
  103626:	8b 15 fc 8c 51 00    	mov    edx,DWORD PTR ds:0x518cfc
  10362c:	0f b6 05 f9 8c 51 00 	movzx  eax,BYTE PTR ds:0x518cf9
  103633:	0f b6 c0             	movzx  eax,al
  103636:	01 d0                	add    eax,edx
  103638:	c6 00 01             	mov    BYTE PTR [eax],0x1
  10363b:	eb 2d                	jmp    10366a <kbps2_keymap_update+0x52>
  10363d:	0f b6 05 f9 8c 51 00 	movzx  eax,BYTE PTR ds:0x518cf9
  103644:	3c 80                	cmp    al,0x80
  103646:	76 22                	jbe    10366a <kbps2_keymap_update+0x52>
  103648:	0f b6 05 f9 8c 51 00 	movzx  eax,BYTE PTR ds:0x518cf9
  10364f:	3c d7                	cmp    al,0xd7
  103651:	77 17                	ja     10366a <kbps2_keymap_update+0x52>
  103653:	a1 fc 8c 51 00       	mov    eax,ds:0x518cfc
  103658:	0f b6 15 f9 8c 51 00 	movzx  edx,BYTE PTR ds:0x518cf9
  10365f:	0f b6 d2             	movzx  edx,dl
  103662:	83 c2 80             	add    edx,0xffffff80
  103665:	01 d0                	add    eax,edx
  103667:	c6 00 00             	mov    BYTE PTR [eax],0x0
  10366a:	90                   	nop
  10366b:	5d                   	pop    ebp
  10366c:	c3                   	ret    

0010366d <kbps2_set_enter_event>:
  10366d:	55                   	push   ebp
  10366e:	89 e5                	mov    ebp,esp
  103670:	8b 45 08             	mov    eax,DWORD PTR [ebp+0x8]
  103673:	a3 0c 8d 51 00       	mov    ds:0x518d0c,eax
  103678:	90                   	nop
  103679:	5d                   	pop    ebp
  10367a:	c3                   	ret    

0010367b <kbps2_toggle_term_output>:
  10367b:	55                   	push   ebp
  10367c:	89 e5                	mov    ebp,esp
  10367e:	83 ec 04             	sub    esp,0x4
  103681:	8b 45 08             	mov    eax,DWORD PTR [ebp+0x8]
  103684:	88 45 fc             	mov    BYTE PTR [ebp-0x4],al
  103687:	0f b6 45 fc          	movzx  eax,BYTE PTR [ebp-0x4]
  10368b:	a2 fa 8c 51 00       	mov    ds:0x518cfa,al
  103690:	90                   	nop
  103691:	c9                   	leave  
  103692:	c3                   	ret    

00103693 <kbps2_set_stream>:
  103693:	55                   	push   ebp
  103694:	89 e5                	mov    ebp,esp
  103696:	8b 45 08             	mov    eax,DWORD PTR [ebp+0x8]
  103699:	a3 e4 8c 51 00       	mov    ds:0x518ce4,eax
  10369e:	8b 45 0c             	mov    eax,DWORD PTR [ebp+0xc]
  1036a1:	a3 e8 8c 51 00       	mov    ds:0x518ce8,eax
  1036a6:	8b 45 10             	mov    eax,DWORD PTR [ebp+0x10]
  1036a9:	a3 ec 8c 51 00       	mov    ds:0x518cec,eax
  1036ae:	90                   	nop
  1036af:	5d                   	pop    ebp
  1036b0:	c3                   	ret    

001036b1 <kbps2_get_stream>:
  1036b1:	55                   	push   ebp
  1036b2:	89 e5                	mov    ebp,esp
  1036b4:	8b 45 08             	mov    eax,DWORD PTR [ebp+0x8]
  1036b7:	8b 15 e4 8c 51 00    	mov    edx,DWORD PTR ds:0x518ce4
  1036bd:	89 10                	mov    DWORD PTR [eax],edx
  1036bf:	8b 15 e8 8c 51 00    	mov    edx,DWORD PTR ds:0x518ce8
  1036c5:	89 50 04             	mov    DWORD PTR [eax+0x4],edx
  1036c8:	8b 15 ec 8c 51 00    	mov    edx,DWORD PTR ds:0x518cec
  1036ce:	89 50 08             	mov    DWORD PTR [eax+0x8],edx
  1036d1:	8b 45 08             	mov    eax,DWORD PTR [ebp+0x8]
  1036d4:	5d                   	pop    ebp
  1036d5:	c2 04 00             	ret    0x4

001036d8 <mm_init>:
  1036d8:	55                   	push   ebp
  1036d9:	89 e5                	mov    ebp,esp
  1036db:	83 ec 08             	sub    esp,0x8
  1036de:	c6 05 6c 8d 51 00 01 	mov    BYTE PTR ds:0x518d6c,0x1
  1036e5:	e8 e2 00 00 00       	call   1037cc <mm_mmap_read>
  1036ea:	a1 68 8d 51 00       	mov    eax,ds:0x518d68
  1036ef:	a3 40 8d 51 00       	mov    ds:0x518d40,eax
  1036f4:	c7 05 50 8d 51 00 00 00 01 00 	mov    DWORD PTR ds:0x518d50,0x10000
  1036fe:	c7 05 4c 8d 51 00 00 00 00 00 	mov    DWORD PTR ds:0x518d4c,0x0
  103708:	a1 50 8d 51 00       	mov    eax,ds:0x518d50
  10370d:	6b c0 0e             	imul   eax,eax,0xe
  103710:	83 ec 0c             	sub    esp,0xc
  103713:	50                   	push   eax
  103714:	e8 cb 10 00 00       	call   1047e4 <mm_align>
  103719:	83 c4 10             	add    esp,0x10
  10371c:	a3 48 8d 51 00       	mov    ds:0x518d48,eax
  103721:	8b 15 40 8d 51 00    	mov    edx,DWORD PTR ds:0x518d40
  103727:	a1 48 8d 51 00       	mov    eax,ds:0x518d48
  10372c:	01 d0                	add    eax,edx
  10372e:	a3 44 8d 51 00       	mov    ds:0x518d44,eax
  103733:	a1 40 8d 51 00       	mov    eax,ds:0x518d40
  103738:	a3 20 8d 51 00       	mov    ds:0x518d20,eax
  10373d:	a1 48 8d 51 00       	mov    eax,ds:0x518d48
  103742:	8b 15 40 8d 51 00    	mov    edx,DWORD PTR ds:0x518d40
  103748:	83 ec 04             	sub    esp,0x4
  10374b:	50                   	push   eax
  10374c:	6a 00                	push   0x0
  10374e:	52                   	push   edx
  10374f:	e8 61 13 00 00       	call   104ab5 <memset>
  103754:	83 c4 10             	add    esp,0x10
  103757:	8b 15 40 8d 51 00    	mov    edx,DWORD PTR ds:0x518d40
  10375d:	a1 48 8d 51 00       	mov    eax,ds:0x518d48
  103762:	01 d0                	add    eax,edx
  103764:	05 00 10 00 00       	add    eax,0x1000
  103769:	a3 54 8d 51 00       	mov    ds:0x518d54,eax
  10376e:	a1 64 8d 51 00       	mov    eax,ds:0x518d64
  103773:	a3 58 8d 51 00       	mov    ds:0x518d58,eax
  103778:	8b 15 58 8d 51 00    	mov    edx,DWORD PTR ds:0x518d58
  10377e:	a1 54 8d 51 00       	mov    eax,ds:0x518d54
  103783:	29 c2                	sub    edx,eax
  103785:	89 d0                	mov    eax,edx
  103787:	a3 5c 8d 51 00       	mov    ds:0x518d5c,eax
  10378c:	c7 05 60 8d 51 00 00 00 00 00 	mov    DWORD PTR ds:0x518d60,0x0
  103796:	a1 5c 8d 51 00       	mov    eax,ds:0x518d5c
  10379b:	8b 15 54 8d 51 00    	mov    edx,DWORD PTR ds:0x518d54
  1037a1:	83 ec 04             	sub    esp,0x4
  1037a4:	6a 00                	push   0x0
  1037a6:	50                   	push   eax
  1037a7:	52                   	push   edx
  1037a8:	e8 3d 0b 00 00       	call   1042ea <mm_create_entry>
  1037ad:	83 c4 10             	add    esp,0x10
  1037b0:	e8 e1 11 00 00       	call   104996 <mm_amount_free>
  1037b5:	c1 e8 14             	shr    eax,0x14
  1037b8:	83 ec 08             	sub    esp,0x8
  1037bb:	50                   	push   eax
  1037bc:	68 18 1d 11 00       	push   0x111d18
  1037c1:	e8 92 df ff ff       	call   101758 <debug_ok>
  1037c6:	83 c4 10             	add    esp,0x10
  1037c9:	90                   	nop
  1037ca:	c9                   	leave  
  1037cb:	c3                   	ret    

001037cc <mm_mmap_read>:
  1037cc:	55                   	push   ebp
  1037cd:	89 e5                	mov    ebp,esp
  1037cf:	81 ec d8 00 00 00    	sub    esp,0xd8
  1037d5:	c7 45 f4 00 00 00 00 	mov    DWORD PTR [ebp-0xc],0x0
  1037dc:	eb 72                	jmp    103850 <mm_mmap_read+0x84>
  1037de:	8d 85 30 ff ff ff    	lea    eax,[ebp-0xd0]
  1037e4:	83 ec 0c             	sub    esp,0xc
  1037e7:	50                   	push   eax
  1037e8:	e8 d7 14 00 00       	call   104cc4 <mboot_get>
  1037ed:	83 c4 0c             	add    esp,0xc
  1037f0:	8b 95 60 ff ff ff    	mov    edx,DWORD PTR [ebp-0xa0]
  1037f6:	8b 45 f4             	mov    eax,DWORD PTR [ebp-0xc]
  1037f9:	01 d0                	add    eax,edx
  1037fb:	89 45 f0             	mov    DWORD PTR [ebp-0x10],eax
  1037fe:	8b 45 f0             	mov    eax,DWORD PTR [ebp-0x10]
  103801:	8b 40 14             	mov    eax,DWORD PTR [eax+0x14]
  103804:	83 f8 01             	cmp    eax,0x1
  103807:	75 43                	jne    10384c <mm_mmap_read+0x80>
  103809:	83 7d f4 00          	cmp    DWORD PTR [ebp-0xc],0x0
  10380d:	74 3d                	je     10384c <mm_mmap_read+0x80>
  10380f:	e8 7f f9 ff ff       	call   103193 <kernel_address_end>
  103814:	25 00 f0 ff ff       	and    eax,0xfffff000
  103819:	05 00 10 00 00       	add    eax,0x1000
  10381e:	a3 68 8d 51 00       	mov    ds:0x518d68,eax
  103823:	8b 45 f0             	mov    eax,DWORD PTR [ebp-0x10]
  103826:	8b 50 04             	mov    edx,DWORD PTR [eax+0x4]
  103829:	8b 45 f0             	mov    eax,DWORD PTR [ebp-0x10]
  10382c:	8b 40 0c             	mov    eax,DWORD PTR [eax+0xc]
  10382f:	01 d0                	add    eax,edx
  103831:	a3 64 8d 51 00       	mov    ds:0x518d64,eax
  103836:	e8 58 f9 ff ff       	call   103193 <kernel_address_end>
  10383b:	89 c2                	mov    edx,eax
  10383d:	8b 45 f0             	mov    eax,DWORD PTR [ebp-0x10]
  103840:	8b 40 04             	mov    eax,DWORD PTR [eax+0x4]
  103843:	29 c2                	sub    edx,eax
  103845:	89 d0                	mov    eax,edx
  103847:	a3 d0 8c 51 00       	mov    ds:0x518cd0,eax
  10384c:	83 45 f4 18          	add    DWORD PTR [ebp-0xc],0x18
  103850:	8d 45 90             	lea    eax,[ebp-0x70]
  103853:	83 ec 0c             	sub    esp,0xc
  103856:	50                   	push   eax
  103857:	e8 68 14 00 00       	call   104cc4 <mboot_get>
  10385c:	83 c4 0c             	add    esp,0xc
  10385f:	8b 45 bc             	mov    eax,DWORD PTR [ebp-0x44]
  103862:	39 45 f4             	cmp    DWORD PTR [ebp-0xc],eax
  103865:	0f 82 73 ff ff ff    	jb     1037de <mm_mmap_read+0x12>
  10386b:	90                   	nop
  10386c:	c9                   	leave  
  10386d:	c3                   	ret    

0010386e <mm_print_heap>:
  10386e:	55                   	push   ebp
  10386f:	89 e5                	mov    ebp,esp
  103871:	57                   	push   edi
  103872:	56                   	push   esi
  103873:	53                   	push   ebx
  103874:	83 ec 2c             	sub    esp,0x2c
  103877:	e8 6c d8 ff ff       	call   1010e8 <debug_getmode>
  10387c:	89 45 e0             	mov    DWORD PTR [ebp-0x20],eax
  10387f:	83 ec 0c             	sub    esp,0xc
  103882:	ff 75 08             	push   DWORD PTR [ebp+0x8]
  103885:	e8 32 d8 ff ff       	call   1010bc <debug_setmode>
  10388a:	83 c4 10             	add    esp,0x10
  10388d:	83 ec 08             	sub    esp,0x8
  103890:	6a 08                	push   0x8
  103892:	68 40 1d 11 00       	push   0x111d40
  103897:	e8 56 d9 ff ff       	call   1011f2 <debug_write_col>
  10389c:	83 c4 10             	add    esp,0x10
  10389f:	83 ec 08             	sub    esp,0x8
  1038a2:	6a 0e                	push   0xe
  1038a4:	68 48 1d 11 00       	push   0x111d48
  1038a9:	e8 44 d9 ff ff       	call   1011f2 <debug_write_col>
  1038ae:	83 c4 10             	add    esp,0x10
  1038b1:	83 ec 08             	sub    esp,0x8
  1038b4:	6a 08                	push   0x8
  1038b6:	68 54 1d 11 00       	push   0x111d54
  1038bb:	e8 b0 d9 ff ff       	call   101270 <debug_writeln_col>
  1038c0:	83 c4 10             	add    esp,0x10
  1038c3:	83 ec 08             	sub    esp,0x8
  1038c6:	6a 08                	push   0x8
  1038c8:	68 80 1d 11 00       	push   0x111d80
  1038cd:	e8 9e d9 ff ff       	call   101270 <debug_writeln_col>
  1038d2:	83 c4 10             	add    esp,0x10
  1038d5:	c7 45 e4 00 00 00 00 	mov    DWORD PTR [ebp-0x1c],0x0
  1038dc:	e9 aa 00 00 00       	jmp    10398b <mm_print_heap+0x11d>
  1038e1:	8b 15 20 8d 51 00    	mov    edx,DWORD PTR ds:0x518d20
  1038e7:	8b 45 e4             	mov    eax,DWORD PTR [ebp-0x1c]
  1038ea:	6b c0 0e             	imul   eax,eax,0xe
  1038ed:	01 d0                	add    eax,edx
  1038ef:	8b 40 0a             	mov    eax,DWORD PTR [eax+0xa]
  1038f2:	83 ec 0c             	sub    esp,0xc
  1038f5:	50                   	push   eax
  1038f6:	e8 7b 0b 00 00       	call   104476 <mm_validate_ptr>
  1038fb:	83 c4 10             	add    esp,0x10
  1038fe:	84 c0                	test   al,al
  103900:	0f 84 80 00 00 00    	je     103986 <mm_print_heap+0x118>
  103906:	8b 15 20 8d 51 00    	mov    edx,DWORD PTR ds:0x518d20
  10390c:	8b 45 e4             	mov    eax,DWORD PTR [ebp-0x1c]
  10390f:	6b c0 0e             	imul   eax,eax,0xe
  103912:	01 d0                	add    eax,edx
  103914:	8b 38                	mov    edi,DWORD PTR [eax]
  103916:	8b 15 20 8d 51 00    	mov    edx,DWORD PTR ds:0x518d20
  10391c:	8b 45 e4             	mov    eax,DWORD PTR [ebp-0x1c]
  10391f:	6b c0 0e             	imul   eax,eax,0xe
  103922:	01 d0                	add    eax,edx
  103924:	8b 70 04             	mov    esi,DWORD PTR [eax+0x4]
  103927:	8b 15 20 8d 51 00    	mov    edx,DWORD PTR ds:0x518d20
  10392d:	8b 45 e4             	mov    eax,DWORD PTR [ebp-0x1c]
  103930:	6b c0 0e             	imul   eax,eax,0xe
  103933:	01 d0                	add    eax,edx
  103935:	8b 40 0a             	mov    eax,DWORD PTR [eax+0xa]
  103938:	89 45 d4             	mov    DWORD PTR [ebp-0x2c],eax
  10393b:	8b 15 20 8d 51 00    	mov    edx,DWORD PTR ds:0x518d20
  103941:	8b 45 e4             	mov    eax,DWORD PTR [ebp-0x1c]
  103944:	6b c0 0e             	imul   eax,eax,0xe
  103947:	01 d0                	add    eax,edx
  103949:	0f b7 40 08          	movzx  eax,WORD PTR [eax+0x8]
  10394d:	0f b7 d8             	movzx  ebx,ax
  103950:	8b 15 20 8d 51 00    	mov    edx,DWORD PTR ds:0x518d20
  103956:	8b 45 e4             	mov    eax,DWORD PTR [ebp-0x1c]
  103959:	6b c0 0e             	imul   eax,eax,0xe
  10395c:	01 d0                	add    eax,edx
  10395e:	8b 40 0a             	mov    eax,DWORD PTR [eax+0xa]
  103961:	83 ec 0c             	sub    esp,0xc
  103964:	50                   	push   eax
  103965:	e8 0d 0e 00 00       	call   104777 <mm_index_from_ptr>
  10396a:	83 c4 10             	add    esp,0x10
  10396d:	83 ec 08             	sub    esp,0x8
  103970:	57                   	push   edi
  103971:	56                   	push   esi
  103972:	ff 75 d4             	push   DWORD PTR [ebp-0x2c]
  103975:	53                   	push   ebx
  103976:	50                   	push   eax
  103977:	68 b4 1d 11 00       	push   0x111db4
  10397c:	e8 26 dd ff ff       	call   1016a7 <debug_printf>
  103981:	83 c4 20             	add    esp,0x20
  103984:	eb 01                	jmp    103987 <mm_print_heap+0x119>
  103986:	90                   	nop
  103987:	83 45 e4 01          	add    DWORD PTR [ebp-0x1c],0x1
  10398b:	a1 50 8d 51 00       	mov    eax,ds:0x518d50
  103990:	39 45 e4             	cmp    DWORD PTR [ebp-0x1c],eax
  103993:	0f 82 48 ff ff ff    	jb     1038e1 <mm_print_heap+0x73>
  103999:	83 ec 0c             	sub    esp,0xc
  10399c:	ff 75 e0             	push   DWORD PTR [ebp-0x20]
  10399f:	e8 18 d7 ff ff       	call   1010bc <debug_setmode>
  1039a4:	83 c4 10             	add    esp,0x10
  1039a7:	90                   	nop
  1039a8:	8d 65 f4             	lea    esp,[ebp-0xc]
  1039ab:	5b                   	pop    ebx
  1039ac:	5e                   	pop    esi
  1039ad:	5f                   	pop    edi
  1039ae:	5d                   	pop    ebp
  1039af:	c3                   	ret    

001039b0 <mm_print_mmap>:
  1039b0:	55                   	push   ebp
  1039b1:	89 e5                	mov    ebp,esp
  1039b3:	90                   	nop
  1039b4:	5d                   	pop    ebp
  1039b5:	c3                   	ret    

001039b6 <mm_print_info>:
  1039b6:	55                   	push   ebp
  1039b7:	89 e5                	mov    ebp,esp
  1039b9:	53                   	push   ebx
  1039ba:	83 ec 04             	sub    esp,0x4
  1039bd:	83 ec 08             	sub    esp,0x8
  1039c0:	6a 08                	push   0x8
  1039c2:	68 40 1d 11 00       	push   0x111d40
  1039c7:	e8 df 52 00 00       	call   108cab <vga_write_fg>
  1039cc:	83 c4 10             	add    esp,0x10
  1039cf:	83 ec 08             	sub    esp,0x8
  1039d2:	6a 0e                	push   0xe
  1039d4:	68 d5 1d 11 00       	push   0x111dd5
  1039d9:	e8 cd 52 00 00       	call   108cab <vga_write_fg>
  1039de:	83 c4 10             	add    esp,0x10
  1039e1:	83 ec 08             	sub    esp,0x8
  1039e4:	6a 08                	push   0x8
  1039e6:	68 e4 1d 11 00       	push   0x111de4
  1039eb:	e8 99 53 00 00       	call   108d89 <vga_writeln_fg>
  1039f0:	83 c4 10             	add    esp,0x10
  1039f3:	83 ec 0c             	sub    esp,0xc
  1039f6:	68 0c 1e 11 00       	push   0x111e0c
  1039fb:	e8 7e 52 00 00       	call   108c7e <vga_write>
  103a00:	83 c4 10             	add    esp,0x10
  103a03:	83 ec 08             	sub    esp,0x8
  103a06:	6a 0e                	push   0xe
  103a08:	68 0f 1e 11 00       	push   0x111e0f
  103a0d:	e8 99 52 00 00       	call   108cab <vga_write_fg>
  103a12:	83 c4 10             	add    esp,0x10
  103a15:	e8 f1 0d 00 00       	call   10480b <mm_amount_installed>
  103a1a:	89 c3                	mov    ebx,eax
  103a1c:	e8 ea 0d 00 00       	call   10480b <mm_amount_installed>
  103a21:	c1 e8 14             	shr    eax,0x14
  103a24:	83 ec 04             	sub    esp,0x4
  103a27:	53                   	push   ebx
  103a28:	50                   	push   eax
  103a29:	68 28 1e 11 00       	push   0x111e28
  103a2e:	e8 69 57 00 00       	call   10919c <vga_printf>
  103a33:	83 c4 10             	add    esp,0x10
  103a36:	83 ec 0c             	sub    esp,0xc
  103a39:	68 0c 1e 11 00       	push   0x111e0c
  103a3e:	e8 3b 52 00 00       	call   108c7e <vga_write>
  103a43:	83 c4 10             	add    esp,0x10
  103a46:	83 ec 08             	sub    esp,0x8
  103a49:	6a 0e                	push   0xe
  103a4b:	68 39 1e 11 00       	push   0x111e39
  103a50:	e8 56 52 00 00       	call   108cab <vga_write_fg>
  103a55:	83 c4 10             	add    esp,0x10
  103a58:	e8 25 0f 00 00       	call   104982 <mm_amount_reserved>
  103a5d:	89 c3                	mov    ebx,eax
  103a5f:	e8 1e 0f 00 00       	call   104982 <mm_amount_reserved>
  103a64:	c1 e8 14             	shr    eax,0x14
  103a67:	83 ec 04             	sub    esp,0x4
  103a6a:	53                   	push   ebx
  103a6b:	50                   	push   eax
  103a6c:	68 28 1e 11 00       	push   0x111e28
  103a71:	e8 26 57 00 00       	call   10919c <vga_printf>
  103a76:	83 c4 10             	add    esp,0x10
  103a79:	83 ec 0c             	sub    esp,0xc
  103a7c:	68 0c 1e 11 00       	push   0x111e0c
  103a81:	e8 f8 51 00 00       	call   108c7e <vga_write>
  103a86:	83 c4 10             	add    esp,0x10
  103a89:	83 ec 08             	sub    esp,0x8
  103a8c:	6a 0e                	push   0xe
  103a8e:	68 52 1e 11 00       	push   0x111e52
  103a93:	e8 13 52 00 00       	call   108cab <vga_write_fg>
  103a98:	83 c4 10             	add    esp,0x10
  103a9b:	e8 ec 0e 00 00       	call   10498c <mm_amount_used>
  103aa0:	89 c3                	mov    ebx,eax
  103aa2:	e8 e5 0e 00 00       	call   10498c <mm_amount_used>
  103aa7:	c1 e8 14             	shr    eax,0x14
  103aaa:	83 ec 04             	sub    esp,0x4
  103aad:	53                   	push   ebx
  103aae:	50                   	push   eax
  103aaf:	68 28 1e 11 00       	push   0x111e28
  103ab4:	e8 e3 56 00 00       	call   10919c <vga_printf>
  103ab9:	83 c4 10             	add    esp,0x10
  103abc:	83 ec 0c             	sub    esp,0xc
  103abf:	68 0c 1e 11 00       	push   0x111e0c
  103ac4:	e8 b5 51 00 00       	call   108c7e <vga_write>
  103ac9:	83 c4 10             	add    esp,0x10
  103acc:	83 ec 08             	sub    esp,0x8
  103acf:	6a 0e                	push   0xe
  103ad1:	68 6b 1e 11 00       	push   0x111e6b
  103ad6:	e8 d0 51 00 00       	call   108cab <vga_write_fg>
  103adb:	83 c4 10             	add    esp,0x10
  103ade:	e8 b3 0e 00 00       	call   104996 <mm_amount_free>
  103ae3:	89 c3                	mov    ebx,eax
  103ae5:	e8 ac 0e 00 00       	call   104996 <mm_amount_free>
  103aea:	c1 e8 14             	shr    eax,0x14
  103aed:	83 ec 04             	sub    esp,0x4
  103af0:	53                   	push   ebx
  103af1:	50                   	push   eax
  103af2:	68 28 1e 11 00       	push   0x111e28
  103af7:	e8 a0 56 00 00       	call   10919c <vga_printf>
  103afc:	83 c4 10             	add    esp,0x10
  103aff:	90                   	nop
  103b00:	8b 5d fc             	mov    ebx,DWORD PTR [ebp-0x4]
  103b03:	c9                   	leave  
  103b04:	c3                   	ret    

00103b05 <mm_print_alloc>:
  103b05:	55                   	push   ebp
  103b06:	89 e5                	mov    ebp,esp
  103b08:	57                   	push   edi
  103b09:	56                   	push   esi
  103b0a:	53                   	push   ebx
  103b0b:	83 ec 1c             	sub    esp,0x1c
  103b0e:	0f b6 05 6c 8d 51 00 	movzx  eax,BYTE PTR ds:0x518d6c
  103b15:	84 c0                	test   al,al
  103b17:	74 5b                	je     103b74 <mm_print_alloc+0x6f>
  103b19:	83 ec 08             	sub    esp,0x8
  103b1c:	6a 0a                	push   0xa
  103b1e:	68 84 1e 11 00       	push   0x111e84
  103b23:	e8 a0 db ff ff       	call   1016c8 <debug_header>
  103b28:	83 c4 10             	add    esp,0x10
  103b2b:	8b 45 08             	mov    eax,DWORD PTR [ebp+0x8]
  103b2e:	8b 38                	mov    edi,DWORD PTR [eax]
  103b30:	8b 45 08             	mov    eax,DWORD PTR [ebp+0x8]
  103b33:	8b 70 04             	mov    esi,DWORD PTR [eax+0x4]
  103b36:	8b 45 08             	mov    eax,DWORD PTR [ebp+0x8]
  103b39:	8b 40 0a             	mov    eax,DWORD PTR [eax+0xa]
  103b3c:	89 45 e4             	mov    DWORD PTR [ebp-0x1c],eax
  103b3f:	8b 45 08             	mov    eax,DWORD PTR [ebp+0x8]
  103b42:	0f b7 40 08          	movzx  eax,WORD PTR [eax+0x8]
  103b46:	0f b7 d8             	movzx  ebx,ax
  103b49:	8b 45 08             	mov    eax,DWORD PTR [ebp+0x8]
  103b4c:	8b 40 0a             	mov    eax,DWORD PTR [eax+0xa]
  103b4f:	83 ec 0c             	sub    esp,0xc
  103b52:	50                   	push   eax
  103b53:	e8 1f 0c 00 00       	call   104777 <mm_index_from_ptr>
  103b58:	83 c4 10             	add    esp,0x10
  103b5b:	83 ec 08             	sub    esp,0x8
  103b5e:	57                   	push   edi
  103b5f:	56                   	push   esi
  103b60:	ff 75 e4             	push   DWORD PTR [ebp-0x1c]
  103b63:	53                   	push   ebx
  103b64:	50                   	push   eax
  103b65:	68 8c 1e 11 00       	push   0x111e8c
  103b6a:	e8 38 db ff ff       	call   1016a7 <debug_printf>
  103b6f:	83 c4 20             	add    esp,0x20
  103b72:	eb 01                	jmp    103b75 <mm_print_alloc+0x70>
  103b74:	90                   	nop
  103b75:	8d 65 f4             	lea    esp,[ebp-0xc]
  103b78:	5b                   	pop    ebx
  103b79:	5e                   	pop    esi
  103b7a:	5f                   	pop    edi
  103b7b:	5d                   	pop    ebp
  103b7c:	c3                   	ret    

00103b7d <mm_print_free>:
  103b7d:	55                   	push   ebp
  103b7e:	89 e5                	mov    ebp,esp
  103b80:	57                   	push   edi
  103b81:	56                   	push   esi
  103b82:	53                   	push   ebx
  103b83:	83 ec 1c             	sub    esp,0x1c
  103b86:	0f b6 05 6c 8d 51 00 	movzx  eax,BYTE PTR ds:0x518d6c
  103b8d:	84 c0                	test   al,al
  103b8f:	74 5b                	je     103bec <mm_print_free+0x6f>
  103b91:	83 ec 08             	sub    esp,0x8
  103b94:	6a 0e                	push   0xe
  103b96:	68 ce 1e 11 00       	push   0x111ece
  103b9b:	e8 28 db ff ff       	call   1016c8 <debug_header>
  103ba0:	83 c4 10             	add    esp,0x10
  103ba3:	8b 45 08             	mov    eax,DWORD PTR [ebp+0x8]
  103ba6:	8b 38                	mov    edi,DWORD PTR [eax]
  103ba8:	8b 45 08             	mov    eax,DWORD PTR [ebp+0x8]
  103bab:	8b 70 04             	mov    esi,DWORD PTR [eax+0x4]
  103bae:	8b 45 08             	mov    eax,DWORD PTR [ebp+0x8]
  103bb1:	8b 40 0a             	mov    eax,DWORD PTR [eax+0xa]
  103bb4:	89 45 e4             	mov    DWORD PTR [ebp-0x1c],eax
  103bb7:	8b 45 08             	mov    eax,DWORD PTR [ebp+0x8]
  103bba:	0f b7 40 08          	movzx  eax,WORD PTR [eax+0x8]
  103bbe:	0f b7 d8             	movzx  ebx,ax
  103bc1:	8b 45 08             	mov    eax,DWORD PTR [ebp+0x8]
  103bc4:	8b 40 0a             	mov    eax,DWORD PTR [eax+0xa]
  103bc7:	83 ec 0c             	sub    esp,0xc
  103bca:	50                   	push   eax
  103bcb:	e8 a7 0b 00 00       	call   104777 <mm_index_from_ptr>
  103bd0:	83 c4 10             	add    esp,0x10
  103bd3:	83 ec 08             	sub    esp,0x8
  103bd6:	57                   	push   edi
  103bd7:	56                   	push   esi
  103bd8:	ff 75 e4             	push   DWORD PTR [ebp-0x1c]
  103bdb:	53                   	push   ebx
  103bdc:	50                   	push   eax
  103bdd:	68 8c 1e 11 00       	push   0x111e8c
  103be2:	e8 c0 da ff ff       	call   1016a7 <debug_printf>
  103be7:	83 c4 20             	add    esp,0x20
  103bea:	eb 01                	jmp    103bed <mm_print_free+0x70>
  103bec:	90                   	nop
  103bed:	8d 65 f4             	lea    esp,[ebp-0xc]
  103bf0:	5b                   	pop    ebx
  103bf1:	5e                   	pop    esi
  103bf2:	5f                   	pop    edi
  103bf3:	5d                   	pop    ebp
  103bf4:	c3                   	ret    

00103bf5 <mm_allocate>:
  103bf5:	55                   	push   ebp
  103bf6:	89 e5                	mov    ebp,esp
  103bf8:	83 ec 28             	sub    esp,0x28
  103bfb:	8b 55 0c             	mov    edx,DWORD PTR [ebp+0xc]
  103bfe:	8b 45 10             	mov    eax,DWORD PTR [ebp+0x10]
  103c01:	88 55 e4             	mov    BYTE PTR [ebp-0x1c],dl
  103c04:	88 45 e0             	mov    BYTE PTR [ebp-0x20],al
  103c07:	83 7d 08 00          	cmp    DWORD PTR [ebp+0x8],0x0
  103c0b:	75 1e                	jne    103c2b <mm_allocate+0x36>
  103c0d:	83 ec 04             	sub    esp,0x4
  103c10:	68 d5 1e 11 00       	push   0x111ed5
  103c15:	6a 00                	push   0x0
  103c17:	6a 03                	push   0x3
  103c19:	e8 0b e7 ff ff       	call   102329 <panicf>
  103c1e:	83 c4 10             	add    esp,0x10
  103c21:	b8 00 00 00 00       	mov    eax,0x0
  103c26:	e9 85 00 00 00       	jmp    103cb0 <mm_allocate+0xbb>
  103c2b:	83 ec 0c             	sub    esp,0xc
  103c2e:	ff 75 08             	push   DWORD PTR [ebp+0x8]
  103c31:	e8 6e 01 00 00       	call   103da4 <mm_allocate_entry>
  103c36:	83 c4 10             	add    esp,0x10
  103c39:	89 45 f4             	mov    DWORD PTR [ebp-0xc],eax
  103c3c:	83 ec 08             	sub    esp,0x8
  103c3f:	6a 01                	push   0x1
  103c41:	ff 75 f4             	push   DWORD PTR [ebp-0xc]
  103c44:	e8 52 08 00 00       	call   10449b <mm_validate_entry>
  103c49:	83 c4 10             	add    esp,0x10
  103c4c:	84 c0                	test   al,al
  103c4e:	75 07                	jne    103c57 <mm_allocate+0x62>
  103c50:	b8 00 00 00 00       	mov    eax,0x0
  103c55:	eb 59                	jmp    103cb0 <mm_allocate+0xbb>
  103c57:	80 7d e0 00          	cmp    BYTE PTR [ebp-0x20],0x0
  103c5b:	74 0b                	je     103c68 <mm_allocate+0x73>
  103c5d:	0f b6 55 e0          	movzx  edx,BYTE PTR [ebp-0x20]
  103c61:	8b 45 f4             	mov    eax,DWORD PTR [ebp-0xc]
  103c64:	66 89 50 08          	mov    WORD PTR [eax+0x8],dx
  103c68:	80 7d e4 00          	cmp    BYTE PTR [ebp-0x1c],0x0
  103c6c:	74 1b                	je     103c89 <mm_allocate+0x94>
  103c6e:	8b 45 f4             	mov    eax,DWORD PTR [ebp-0xc]
  103c71:	8b 50 04             	mov    edx,DWORD PTR [eax+0x4]
  103c74:	8b 45 f4             	mov    eax,DWORD PTR [ebp-0xc]
  103c77:	8b 40 0a             	mov    eax,DWORD PTR [eax+0xa]
  103c7a:	83 ec 04             	sub    esp,0x4
  103c7d:	52                   	push   edx
  103c7e:	6a 00                	push   0x0
  103c80:	50                   	push   eax
  103c81:	e8 2f 0e 00 00       	call   104ab5 <memset>
  103c86:	83 c4 10             	add    esp,0x10
  103c89:	8b 15 60 8d 51 00    	mov    edx,DWORD PTR ds:0x518d60
  103c8f:	8b 45 f4             	mov    eax,DWORD PTR [ebp-0xc]
  103c92:	8b 40 04             	mov    eax,DWORD PTR [eax+0x4]
  103c95:	01 d0                	add    eax,edx
  103c97:	a3 60 8d 51 00       	mov    ds:0x518d60,eax
  103c9c:	83 ec 0c             	sub    esp,0xc
  103c9f:	ff 75 f4             	push   DWORD PTR [ebp-0xc]
  103ca2:	e8 5e fe ff ff       	call   103b05 <mm_print_alloc>
  103ca7:	83 c4 10             	add    esp,0x10
  103caa:	8b 45 f4             	mov    eax,DWORD PTR [ebp-0xc]
  103cad:	8b 40 0a             	mov    eax,DWORD PTR [eax+0xa]
  103cb0:	c9                   	leave  
  103cb1:	c3                   	ret    

00103cb2 <mm_free>:
  103cb2:	55                   	push   ebp
  103cb3:	89 e5                	mov    ebp,esp
  103cb5:	83 ec 18             	sub    esp,0x18
  103cb8:	83 ec 0c             	sub    esp,0xc
  103cbb:	ff 75 08             	push   DWORD PTR [ebp+0x8]
  103cbe:	e8 b3 07 00 00       	call   104476 <mm_validate_ptr>
  103cc3:	83 c4 10             	add    esp,0x10
  103cc6:	84 c0                	test   al,al
  103cc8:	75 19                	jne    103ce3 <mm_free+0x31>
  103cca:	83 ec 04             	sub    esp,0x4
  103ccd:	68 e1 1e 11 00       	push   0x111ee1
  103cd2:	6a 00                	push   0x0
  103cd4:	6a 01                	push   0x1
  103cd6:	e8 4e e6 ff ff       	call   102329 <panicf>
  103cdb:	83 c4 10             	add    esp,0x10
  103cde:	e9 bf 00 00 00       	jmp    103da2 <mm_free+0xf0>
  103ce3:	c7 45 f4 00 00 00 00 	mov    DWORD PTR [ebp-0xc],0x0
  103cea:	e9 90 00 00 00       	jmp    103d7f <mm_free+0xcd>
  103cef:	8b 15 20 8d 51 00    	mov    edx,DWORD PTR ds:0x518d20
  103cf5:	8b 45 f4             	mov    eax,DWORD PTR [ebp-0xc]
  103cf8:	6b c0 0e             	imul   eax,eax,0xe
  103cfb:	01 d0                	add    eax,edx
  103cfd:	83 ec 08             	sub    esp,0x8
  103d00:	6a 00                	push   0x0
  103d02:	50                   	push   eax
  103d03:	e8 93 07 00 00       	call   10449b <mm_validate_entry>
  103d08:	83 c4 10             	add    esp,0x10
  103d0b:	84 c0                	test   al,al
  103d0d:	74 6b                	je     103d7a <mm_free+0xc8>
  103d0f:	8b 15 20 8d 51 00    	mov    edx,DWORD PTR ds:0x518d20
  103d15:	8b 45 f4             	mov    eax,DWORD PTR [ebp-0xc]
  103d18:	6b c0 0e             	imul   eax,eax,0xe
  103d1b:	01 d0                	add    eax,edx
  103d1d:	8b 40 0a             	mov    eax,DWORD PTR [eax+0xa]
  103d20:	39 45 08             	cmp    DWORD PTR [ebp+0x8],eax
  103d23:	75 56                	jne    103d7b <mm_free+0xc9>
  103d25:	8b 15 20 8d 51 00    	mov    edx,DWORD PTR ds:0x518d20
  103d2b:	8b 45 f4             	mov    eax,DWORD PTR [ebp-0xc]
  103d2e:	6b c0 0e             	imul   eax,eax,0xe
  103d31:	01 d0                	add    eax,edx
  103d33:	66 c7 40 08 00 00    	mov    WORD PTR [eax+0x8],0x0
  103d39:	8b 15 60 8d 51 00    	mov    edx,DWORD PTR ds:0x518d60
  103d3f:	8b 0d 20 8d 51 00    	mov    ecx,DWORD PTR ds:0x518d20
  103d45:	8b 45 f4             	mov    eax,DWORD PTR [ebp-0xc]
  103d48:	6b c0 0e             	imul   eax,eax,0xe
  103d4b:	01 c8                	add    eax,ecx
  103d4d:	8b 40 04             	mov    eax,DWORD PTR [eax+0x4]
  103d50:	29 c2                	sub    edx,eax
  103d52:	89 d0                	mov    eax,edx
  103d54:	a3 60 8d 51 00       	mov    ds:0x518d60,eax
  103d59:	8b 15 20 8d 51 00    	mov    edx,DWORD PTR ds:0x518d20
  103d5f:	8b 45 f4             	mov    eax,DWORD PTR [ebp-0xc]
  103d62:	6b c0 0e             	imul   eax,eax,0xe
  103d65:	01 d0                	add    eax,edx
  103d67:	83 ec 0c             	sub    esp,0xc
  103d6a:	50                   	push   eax
  103d6b:	e8 0d fe ff ff       	call   103b7d <mm_print_free>
  103d70:	83 c4 10             	add    esp,0x10
  103d73:	e8 d9 02 00 00       	call   104051 <mm_merge_nearest>
  103d78:	eb 28                	jmp    103da2 <mm_free+0xf0>
  103d7a:	90                   	nop
  103d7b:	83 45 f4 01          	add    DWORD PTR [ebp-0xc],0x1
  103d7f:	a1 50 8d 51 00       	mov    eax,ds:0x518d50
  103d84:	39 45 f4             	cmp    DWORD PTR [ebp-0xc],eax
  103d87:	0f 82 62 ff ff ff    	jb     103cef <mm_free+0x3d>
  103d8d:	8b 45 08             	mov    eax,DWORD PTR [ebp+0x8]
  103d90:	50                   	push   eax
  103d91:	68 e9 1e 11 00       	push   0x111ee9
  103d96:	6a 00                	push   0x0
  103d98:	6a 0b                	push   0xb
  103d9a:	e8 8a e5 ff ff       	call   102329 <panicf>
  103d9f:	83 c4 10             	add    esp,0x10
  103da2:	c9                   	leave  
  103da3:	c3                   	ret    

00103da4 <mm_allocate_entry>:
  103da4:	55                   	push   ebp
  103da5:	89 e5                	mov    ebp,esp
  103da7:	83 ec 18             	sub    esp,0x18
  103daa:	83 7d 08 00          	cmp    DWORD PTR [ebp+0x8],0x0
  103dae:	74 0a                	je     103dba <mm_allocate_entry+0x16>
  103db0:	e8 e1 0b 00 00       	call   104996 <mm_amount_free>
  103db5:	39 45 08             	cmp    DWORD PTR [ebp+0x8],eax
  103db8:	72 1e                	jb     103dd8 <mm_allocate_entry+0x34>
  103dba:	83 ec 04             	sub    esp,0x4
  103dbd:	68 06 1f 11 00       	push   0x111f06
  103dc2:	6a 00                	push   0x0
  103dc4:	6a 03                	push   0x3
  103dc6:	e8 5e e5 ff ff       	call   102329 <panicf>
  103dcb:	83 c4 10             	add    esp,0x10
  103dce:	b8 00 00 00 00       	mov    eax,0x0
  103dd3:	e9 4c 01 00 00       	jmp    103f24 <mm_allocate_entry+0x180>
  103dd8:	83 ec 0c             	sub    esp,0xc
  103ddb:	ff 75 08             	push   DWORD PTR [ebp+0x8]
  103dde:	e8 01 0a 00 00       	call   1047e4 <mm_align>
  103de3:	83 c4 10             	add    esp,0x10
  103de6:	89 45 f0             	mov    DWORD PTR [ebp-0x10],eax
  103de9:	c7 45 f4 00 00 00 00 	mov    DWORD PTR [ebp-0xc],0x0
  103df0:	e9 8e 00 00 00       	jmp    103e83 <mm_allocate_entry+0xdf>
  103df5:	8b 15 20 8d 51 00    	mov    edx,DWORD PTR ds:0x518d20
  103dfb:	8b 45 f4             	mov    eax,DWORD PTR [ebp-0xc]
  103dfe:	6b c0 0e             	imul   eax,eax,0xe
  103e01:	01 d0                	add    eax,edx
  103e03:	83 ec 08             	sub    esp,0x8
  103e06:	6a 00                	push   0x0
  103e08:	50                   	push   eax
  103e09:	e8 8d 06 00 00       	call   10449b <mm_validate_entry>
  103e0e:	83 c4 10             	add    esp,0x10
  103e11:	84 c0                	test   al,al
  103e13:	74 69                	je     103e7e <mm_allocate_entry+0xda>
  103e15:	8b 15 20 8d 51 00    	mov    edx,DWORD PTR ds:0x518d20
  103e1b:	8b 45 f4             	mov    eax,DWORD PTR [ebp-0xc]
  103e1e:	6b c0 0e             	imul   eax,eax,0xe
  103e21:	01 d0                	add    eax,edx
  103e23:	8b 40 04             	mov    eax,DWORD PTR [eax+0x4]
  103e26:	39 45 f0             	cmp    DWORD PTR [ebp-0x10],eax
  103e29:	75 54                	jne    103e7f <mm_allocate_entry+0xdb>
  103e2b:	8b 15 20 8d 51 00    	mov    edx,DWORD PTR ds:0x518d20
  103e31:	8b 45 f4             	mov    eax,DWORD PTR [ebp-0xc]
  103e34:	6b c0 0e             	imul   eax,eax,0xe
  103e37:	01 d0                	add    eax,edx
  103e39:	8b 00                	mov    eax,DWORD PTR [eax]
  103e3b:	39 45 08             	cmp    DWORD PTR [ebp+0x8],eax
  103e3e:	75 3f                	jne    103e7f <mm_allocate_entry+0xdb>
  103e40:	8b 15 20 8d 51 00    	mov    edx,DWORD PTR ds:0x518d20
  103e46:	8b 45 f4             	mov    eax,DWORD PTR [ebp-0xc]
  103e49:	6b c0 0e             	imul   eax,eax,0xe
  103e4c:	01 d0                	add    eax,edx
  103e4e:	0f b7 40 08          	movzx  eax,WORD PTR [eax+0x8]
  103e52:	66 85 c0             	test   ax,ax
  103e55:	75 28                	jne    103e7f <mm_allocate_entry+0xdb>
  103e57:	8b 15 20 8d 51 00    	mov    edx,DWORD PTR ds:0x518d20
  103e5d:	8b 45 f4             	mov    eax,DWORD PTR [ebp-0xc]
  103e60:	6b c0 0e             	imul   eax,eax,0xe
  103e63:	01 d0                	add    eax,edx
  103e65:	66 c7 40 08 01 00    	mov    WORD PTR [eax+0x8],0x1
  103e6b:	8b 15 20 8d 51 00    	mov    edx,DWORD PTR ds:0x518d20
  103e71:	8b 45 f4             	mov    eax,DWORD PTR [ebp-0xc]
  103e74:	6b c0 0e             	imul   eax,eax,0xe
  103e77:	01 d0                	add    eax,edx
  103e79:	e9 a6 00 00 00       	jmp    103f24 <mm_allocate_entry+0x180>
  103e7e:	90                   	nop
  103e7f:	83 45 f4 01          	add    DWORD PTR [ebp-0xc],0x1
  103e83:	a1 50 8d 51 00       	mov    eax,ds:0x518d50
  103e88:	39 45 f4             	cmp    DWORD PTR [ebp-0xc],eax
  103e8b:	0f 82 64 ff ff ff    	jb     103df5 <mm_allocate_entry+0x51>
  103e91:	a1 20 8d 51 00       	mov    eax,ds:0x518d20
  103e96:	8b 48 0a             	mov    ecx,DWORD PTR [eax+0xa]
  103e99:	a1 20 8d 51 00       	mov    eax,ds:0x518d20
  103e9e:	8b 55 f0             	mov    edx,DWORD PTR [ebp-0x10]
  103ea1:	01 ca                	add    edx,ecx
  103ea3:	89 50 0a             	mov    DWORD PTR [eax+0xa],edx
  103ea6:	a1 20 8d 51 00       	mov    eax,ds:0x518d20
  103eab:	8b 50 04             	mov    edx,DWORD PTR [eax+0x4]
  103eae:	a1 20 8d 51 00       	mov    eax,ds:0x518d20
  103eb3:	2b 55 f0             	sub    edx,DWORD PTR [ebp-0x10]
  103eb6:	89 50 04             	mov    DWORD PTR [eax+0x4],edx
  103eb9:	a1 20 8d 51 00       	mov    eax,ds:0x518d20
  103ebe:	8b 10                	mov    edx,DWORD PTR [eax]
  103ec0:	a1 20 8d 51 00       	mov    eax,ds:0x518d20
  103ec5:	2b 55 08             	sub    edx,DWORD PTR [ebp+0x8]
  103ec8:	89 10                	mov    DWORD PTR [eax],edx
  103eca:	a1 20 8d 51 00       	mov    eax,ds:0x518d20
  103ecf:	66 c7 40 08 00 00    	mov    WORD PTR [eax+0x8],0x0
  103ed5:	a1 20 8d 51 00       	mov    eax,ds:0x518d20
  103eda:	8b 40 0a             	mov    eax,DWORD PTR [eax+0xa]
  103edd:	8b 55 f0             	mov    edx,DWORD PTR [ebp-0x10]
  103ee0:	f7 da                	neg    edx
  103ee2:	01 d0                	add    eax,edx
  103ee4:	83 ec 04             	sub    esp,0x4
  103ee7:	6a 01                	push   0x1
  103ee9:	ff 75 f0             	push   DWORD PTR [ebp-0x10]
  103eec:	50                   	push   eax
  103eed:	e8 f8 03 00 00       	call   1042ea <mm_create_entry>
  103ef2:	83 c4 10             	add    esp,0x10
  103ef5:	89 45 ec             	mov    DWORD PTR [ebp-0x14],eax
  103ef8:	8b 45 ec             	mov    eax,DWORD PTR [ebp-0x14]
  103efb:	8b 55 08             	mov    edx,DWORD PTR [ebp+0x8]
  103efe:	89 10                	mov    DWORD PTR [eax],edx
  103f00:	83 7d ec 00          	cmp    DWORD PTR [ebp-0x14],0x0
  103f04:	75 1b                	jne    103f21 <mm_allocate_entry+0x17d>
  103f06:	83 ec 04             	sub    esp,0x4
  103f09:	68 06 1f 11 00       	push   0x111f06
  103f0e:	6a 00                	push   0x0
  103f10:	6a 07                	push   0x7
  103f12:	e8 12 e4 ff ff       	call   102329 <panicf>
  103f17:	83 c4 10             	add    esp,0x10
  103f1a:	b8 00 00 00 00       	mov    eax,0x0
  103f1f:	eb 03                	jmp    103f24 <mm_allocate_entry+0x180>
  103f21:	8b 45 ec             	mov    eax,DWORD PTR [ebp-0x14]
  103f24:	c9                   	leave  
  103f25:	c3                   	ret    

00103f26 <mm_get_nearest>:
  103f26:	55                   	push   ebp
  103f27:	89 e5                	mov    ebp,esp
  103f29:	83 ec 10             	sub    esp,0x10
  103f2c:	83 7d 08 00          	cmp    DWORD PTR [ebp+0x8],0x0
  103f30:	75 0a                	jne    103f3c <mm_get_nearest+0x16>
  103f32:	b8 00 00 00 00       	mov    eax,0x0
  103f37:	e9 13 01 00 00       	jmp    10404f <mm_get_nearest+0x129>
  103f3c:	c7 45 fc 00 00 00 00 	mov    DWORD PTR [ebp-0x4],0x0
  103f43:	e9 f4 00 00 00       	jmp    10403c <mm_get_nearest+0x116>
  103f48:	8b 15 20 8d 51 00    	mov    edx,DWORD PTR ds:0x518d20
  103f4e:	8b 45 fc             	mov    eax,DWORD PTR [ebp-0x4]
  103f51:	6b c0 0e             	imul   eax,eax,0xe
  103f54:	01 d0                	add    eax,edx
  103f56:	8b 40 0a             	mov    eax,DWORD PTR [eax+0xa]
  103f59:	85 c0                	test   eax,eax
  103f5b:	0f 84 d7 00 00 00    	je     104038 <mm_get_nearest+0x112>
  103f61:	8b 15 20 8d 51 00    	mov    edx,DWORD PTR ds:0x518d20
  103f67:	8b 45 fc             	mov    eax,DWORD PTR [ebp-0x4]
  103f6a:	6b c0 0e             	imul   eax,eax,0xe
  103f6d:	01 d0                	add    eax,edx
  103f6f:	8b 40 04             	mov    eax,DWORD PTR [eax+0x4]
  103f72:	85 c0                	test   eax,eax
  103f74:	0f 84 be 00 00 00    	je     104038 <mm_get_nearest+0x112>
  103f7a:	8b 15 20 8d 51 00    	mov    edx,DWORD PTR ds:0x518d20
  103f80:	8b 45 fc             	mov    eax,DWORD PTR [ebp-0x4]
  103f83:	6b c0 0e             	imul   eax,eax,0xe
  103f86:	01 d0                	add    eax,edx
  103f88:	39 45 08             	cmp    DWORD PTR [ebp+0x8],eax
  103f8b:	0f 84 a6 00 00 00    	je     104037 <mm_get_nearest+0x111>
  103f91:	8b 15 20 8d 51 00    	mov    edx,DWORD PTR ds:0x518d20
  103f97:	8b 45 fc             	mov    eax,DWORD PTR [ebp-0x4]
  103f9a:	6b c0 0e             	imul   eax,eax,0xe
  103f9d:	01 d0                	add    eax,edx
  103f9f:	8b 40 0a             	mov    eax,DWORD PTR [eax+0xa]
  103fa2:	89 c1                	mov    ecx,eax
  103fa4:	8b 15 20 8d 51 00    	mov    edx,DWORD PTR ds:0x518d20
  103faa:	8b 45 fc             	mov    eax,DWORD PTR [ebp-0x4]
  103fad:	6b c0 0e             	imul   eax,eax,0xe
  103fb0:	01 d0                	add    eax,edx
  103fb2:	8b 40 04             	mov    eax,DWORD PTR [eax+0x4]
  103fb5:	8d 14 01             	lea    edx,[ecx+eax*1]
  103fb8:	8b 45 08             	mov    eax,DWORD PTR [ebp+0x8]
  103fbb:	8b 40 0a             	mov    eax,DWORD PTR [eax+0xa]
  103fbe:	39 c2                	cmp    edx,eax
  103fc0:	75 27                	jne    103fe9 <mm_get_nearest+0xc3>
  103fc2:	8b 15 20 8d 51 00    	mov    edx,DWORD PTR ds:0x518d20
  103fc8:	8b 45 fc             	mov    eax,DWORD PTR [ebp-0x4]
  103fcb:	6b c0 0e             	imul   eax,eax,0xe
  103fce:	01 d0                	add    eax,edx
  103fd0:	0f b7 40 08          	movzx  eax,WORD PTR [eax+0x8]
  103fd4:	66 85 c0             	test   ax,ax
  103fd7:	75 10                	jne    103fe9 <mm_get_nearest+0xc3>
  103fd9:	8b 15 20 8d 51 00    	mov    edx,DWORD PTR ds:0x518d20
  103fdf:	8b 45 fc             	mov    eax,DWORD PTR [ebp-0x4]
  103fe2:	6b c0 0e             	imul   eax,eax,0xe
  103fe5:	01 d0                	add    eax,edx
  103fe7:	eb 66                	jmp    10404f <mm_get_nearest+0x129>
  103fe9:	8b 45 08             	mov    eax,DWORD PTR [ebp+0x8]
  103fec:	8b 40 0a             	mov    eax,DWORD PTR [eax+0xa]
  103fef:	89 c2                	mov    edx,eax
  103ff1:	8b 45 08             	mov    eax,DWORD PTR [ebp+0x8]
  103ff4:	8b 40 04             	mov    eax,DWORD PTR [eax+0x4]
  103ff7:	89 d1                	mov    ecx,edx
  103ff9:	29 c1                	sub    ecx,eax
  103ffb:	8b 15 20 8d 51 00    	mov    edx,DWORD PTR ds:0x518d20
  104001:	8b 45 fc             	mov    eax,DWORD PTR [ebp-0x4]
  104004:	6b c0 0e             	imul   eax,eax,0xe
  104007:	01 d0                	add    eax,edx
  104009:	8b 40 0a             	mov    eax,DWORD PTR [eax+0xa]
  10400c:	39 c1                	cmp    ecx,eax
  10400e:	75 28                	jne    104038 <mm_get_nearest+0x112>
  104010:	8b 15 20 8d 51 00    	mov    edx,DWORD PTR ds:0x518d20
  104016:	8b 45 fc             	mov    eax,DWORD PTR [ebp-0x4]
  104019:	6b c0 0e             	imul   eax,eax,0xe
  10401c:	01 d0                	add    eax,edx
  10401e:	0f b7 40 08          	movzx  eax,WORD PTR [eax+0x8]
  104022:	66 85 c0             	test   ax,ax
  104025:	75 11                	jne    104038 <mm_get_nearest+0x112>
  104027:	8b 15 20 8d 51 00    	mov    edx,DWORD PTR ds:0x518d20
  10402d:	8b 45 fc             	mov    eax,DWORD PTR [ebp-0x4]
  104030:	6b c0 0e             	imul   eax,eax,0xe
  104033:	01 d0                	add    eax,edx
  104035:	eb 18                	jmp    10404f <mm_get_nearest+0x129>
  104037:	90                   	nop
  104038:	83 45 fc 01          	add    DWORD PTR [ebp-0x4],0x1
  10403c:	a1 50 8d 51 00       	mov    eax,ds:0x518d50
  104041:	39 45 fc             	cmp    DWORD PTR [ebp-0x4],eax
  104044:	0f 82 fe fe ff ff    	jb     103f48 <mm_get_nearest+0x22>
  10404a:	b8 00 00 00 00       	mov    eax,0x0
  10404f:	c9                   	leave  
  104050:	c3                   	ret    

00104051 <mm_merge_nearest>:
  104051:	55                   	push   ebp
  104052:	89 e5                	mov    ebp,esp
  104054:	53                   	push   ebx
  104055:	83 ec 14             	sub    esp,0x14
  104058:	c7 45 f4 00 00 00 00 	mov    DWORD PTR [ebp-0xc],0x0
  10405f:	e9 41 01 00 00       	jmp    1041a5 <mm_merge_nearest+0x154>
  104064:	8b 15 20 8d 51 00    	mov    edx,DWORD PTR ds:0x518d20
  10406a:	8b 45 f4             	mov    eax,DWORD PTR [ebp-0xc]
  10406d:	6b c0 0e             	imul   eax,eax,0xe
  104070:	01 d0                	add    eax,edx
  104072:	8b 40 0a             	mov    eax,DWORD PTR [eax+0xa]
  104075:	83 ec 0c             	sub    esp,0xc
  104078:	50                   	push   eax
  104079:	e8 f8 03 00 00       	call   104476 <mm_validate_ptr>
  10407e:	83 c4 10             	add    esp,0x10
  104081:	84 c0                	test   al,al
  104083:	0f 84 18 01 00 00    	je     1041a1 <mm_merge_nearest+0x150>
  104089:	8b 15 20 8d 51 00    	mov    edx,DWORD PTR ds:0x518d20
  10408f:	8b 45 f4             	mov    eax,DWORD PTR [ebp-0xc]
  104092:	6b c0 0e             	imul   eax,eax,0xe
  104095:	01 d0                	add    eax,edx
  104097:	0f b7 40 08          	movzx  eax,WORD PTR [eax+0x8]
  10409b:	66 85 c0             	test   ax,ax
  10409e:	0f 85 fd 00 00 00    	jne    1041a1 <mm_merge_nearest+0x150>
  1040a4:	8b 15 20 8d 51 00    	mov    edx,DWORD PTR ds:0x518d20
  1040aa:	8b 45 f4             	mov    eax,DWORD PTR [ebp-0xc]
  1040ad:	6b c0 0e             	imul   eax,eax,0xe
  1040b0:	01 d0                	add    eax,edx
  1040b2:	83 ec 0c             	sub    esp,0xc
  1040b5:	50                   	push   eax
  1040b6:	e8 6b fe ff ff       	call   103f26 <mm_get_nearest>
  1040bb:	83 c4 10             	add    esp,0x10
  1040be:	89 45 e8             	mov    DWORD PTR [ebp-0x18],eax
  1040c1:	83 7d e8 00          	cmp    DWORD PTR [ebp-0x18],0x0
  1040c5:	0f 84 d6 00 00 00    	je     1041a1 <mm_merge_nearest+0x150>
  1040cb:	8b 15 20 8d 51 00    	mov    edx,DWORD PTR ds:0x518d20
  1040d1:	8b 45 f4             	mov    eax,DWORD PTR [ebp-0xc]
  1040d4:	6b c0 0e             	imul   eax,eax,0xe
  1040d7:	01 d0                	add    eax,edx
  1040d9:	39 45 e8             	cmp    DWORD PTR [ebp-0x18],eax
  1040dc:	0f 84 bf 00 00 00    	je     1041a1 <mm_merge_nearest+0x150>
  1040e2:	a1 20 8d 51 00       	mov    eax,ds:0x518d20
  1040e7:	39 45 e8             	cmp    DWORD PTR [ebp-0x18],eax
  1040ea:	0f 84 b1 00 00 00    	je     1041a1 <mm_merge_nearest+0x150>
  1040f0:	83 7d f4 00          	cmp    DWORD PTR [ebp-0xc],0x0
  1040f4:	0f 84 a7 00 00 00    	je     1041a1 <mm_merge_nearest+0x150>
  1040fa:	8b 15 20 8d 51 00    	mov    edx,DWORD PTR ds:0x518d20
  104100:	8b 45 f4             	mov    eax,DWORD PTR [ebp-0xc]
  104103:	6b c0 0e             	imul   eax,eax,0xe
  104106:	01 d0                	add    eax,edx
  104108:	8b 40 0a             	mov    eax,DWORD PTR [eax+0xa]
  10410b:	89 c2                	mov    edx,eax
  10410d:	8b 45 e8             	mov    eax,DWORD PTR [ebp-0x18]
  104110:	8b 40 0a             	mov    eax,DWORD PTR [eax+0xa]
  104113:	39 c2                	cmp    edx,eax
  104115:	76 17                	jbe    10412e <mm_merge_nearest+0xdd>
  104117:	8b 15 20 8d 51 00    	mov    edx,DWORD PTR ds:0x518d20
  10411d:	8b 45 f4             	mov    eax,DWORD PTR [ebp-0xc]
  104120:	6b c0 0e             	imul   eax,eax,0xe
  104123:	01 c2                	add    edx,eax
  104125:	8b 45 e8             	mov    eax,DWORD PTR [ebp-0x18]
  104128:	8b 40 0a             	mov    eax,DWORD PTR [eax+0xa]
  10412b:	89 42 0a             	mov    DWORD PTR [edx+0xa],eax
  10412e:	8b 15 20 8d 51 00    	mov    edx,DWORD PTR ds:0x518d20
  104134:	8b 45 f4             	mov    eax,DWORD PTR [ebp-0xc]
  104137:	6b c0 0e             	imul   eax,eax,0xe
  10413a:	01 d0                	add    eax,edx
  10413c:	8b 48 04             	mov    ecx,DWORD PTR [eax+0x4]
  10413f:	8b 45 e8             	mov    eax,DWORD PTR [ebp-0x18]
  104142:	8b 50 04             	mov    edx,DWORD PTR [eax+0x4]
  104145:	8b 1d 20 8d 51 00    	mov    ebx,DWORD PTR ds:0x518d20
  10414b:	8b 45 f4             	mov    eax,DWORD PTR [ebp-0xc]
  10414e:	6b c0 0e             	imul   eax,eax,0xe
  104151:	01 d8                	add    eax,ebx
  104153:	01 ca                	add    edx,ecx
  104155:	89 50 04             	mov    DWORD PTR [eax+0x4],edx
  104158:	8b 15 20 8d 51 00    	mov    edx,DWORD PTR ds:0x518d20
  10415e:	8b 45 f4             	mov    eax,DWORD PTR [ebp-0xc]
  104161:	6b c0 0e             	imul   eax,eax,0xe
  104164:	01 d0                	add    eax,edx
  104166:	8b 08                	mov    ecx,DWORD PTR [eax]
  104168:	8b 45 e8             	mov    eax,DWORD PTR [ebp-0x18]
  10416b:	8b 10                	mov    edx,DWORD PTR [eax]
  10416d:	8b 1d 20 8d 51 00    	mov    ebx,DWORD PTR ds:0x518d20
  104173:	8b 45 f4             	mov    eax,DWORD PTR [ebp-0xc]
  104176:	6b c0 0e             	imul   eax,eax,0xe
  104179:	01 d8                	add    eax,ebx
  10417b:	01 ca                	add    edx,ecx
  10417d:	89 10                	mov    DWORD PTR [eax],edx
  10417f:	8b 15 20 8d 51 00    	mov    edx,DWORD PTR ds:0x518d20
  104185:	8b 45 f4             	mov    eax,DWORD PTR [ebp-0xc]
  104188:	6b c0 0e             	imul   eax,eax,0xe
  10418b:	01 d0                	add    eax,edx
  10418d:	66 c7 40 08 00 00    	mov    WORD PTR [eax+0x8],0x0
  104193:	83 ec 0c             	sub    esp,0xc
  104196:	ff 75 e8             	push   DWORD PTR [ebp-0x18]
  104199:	e8 f7 01 00 00       	call   104395 <mm_delete_entry>
  10419e:	83 c4 10             	add    esp,0x10
  1041a1:	83 45 f4 01          	add    DWORD PTR [ebp-0xc],0x1
  1041a5:	a1 50 8d 51 00       	mov    eax,ds:0x518d50
  1041aa:	39 45 f4             	cmp    DWORD PTR [ebp-0xc],eax
  1041ad:	0f 82 b1 fe ff ff    	jb     104064 <mm_merge_nearest+0x13>
  1041b3:	a1 20 8d 51 00       	mov    eax,ds:0x518d20
  1041b8:	83 ec 0c             	sub    esp,0xc
  1041bb:	50                   	push   eax
  1041bc:	e8 65 fd ff ff       	call   103f26 <mm_get_nearest>
  1041c1:	83 c4 10             	add    esp,0x10
  1041c4:	89 45 ec             	mov    DWORD PTR [ebp-0x14],eax
  1041c7:	c7 45 f0 00 00 00 00 	mov    DWORD PTR [ebp-0x10],0x0
  1041ce:	e9 ff 00 00 00       	jmp    1042d2 <mm_merge_nearest+0x281>
  1041d3:	8b 15 20 8d 51 00    	mov    edx,DWORD PTR ds:0x518d20
  1041d9:	8b 45 f0             	mov    eax,DWORD PTR [ebp-0x10]
  1041dc:	6b c0 0e             	imul   eax,eax,0xe
  1041df:	01 d0                	add    eax,edx
  1041e1:	8b 40 0a             	mov    eax,DWORD PTR [eax+0xa]
  1041e4:	83 ec 0c             	sub    esp,0xc
  1041e7:	50                   	push   eax
  1041e8:	e8 89 02 00 00       	call   104476 <mm_validate_ptr>
  1041ed:	83 c4 10             	add    esp,0x10
  1041f0:	84 c0                	test   al,al
  1041f2:	0f 84 d5 00 00 00    	je     1042cd <mm_merge_nearest+0x27c>
  1041f8:	8b 15 20 8d 51 00    	mov    edx,DWORD PTR ds:0x518d20
  1041fe:	8b 45 f0             	mov    eax,DWORD PTR [ebp-0x10]
  104201:	6b c0 0e             	imul   eax,eax,0xe
  104204:	01 d0                	add    eax,edx
  104206:	8b 40 0a             	mov    eax,DWORD PTR [eax+0xa]
  104209:	89 c1                	mov    ecx,eax
  10420b:	8b 15 20 8d 51 00    	mov    edx,DWORD PTR ds:0x518d20
  104211:	8b 45 f0             	mov    eax,DWORD PTR [ebp-0x10]
  104214:	6b c0 0e             	imul   eax,eax,0xe
  104217:	01 d0                	add    eax,edx
  104219:	8b 40 04             	mov    eax,DWORD PTR [eax+0x4]
  10421c:	8d 14 01             	lea    edx,[ecx+eax*1]
  10421f:	a1 20 8d 51 00       	mov    eax,ds:0x518d20
  104224:	8b 40 0a             	mov    eax,DWORD PTR [eax+0xa]
  104227:	39 c2                	cmp    edx,eax
  104229:	0f 85 9f 00 00 00    	jne    1042ce <mm_merge_nearest+0x27d>
  10422f:	8b 15 20 8d 51 00    	mov    edx,DWORD PTR ds:0x518d20
  104235:	8b 45 f0             	mov    eax,DWORD PTR [ebp-0x10]
  104238:	6b c0 0e             	imul   eax,eax,0xe
  10423b:	01 d0                	add    eax,edx
  10423d:	0f b7 40 08          	movzx  eax,WORD PTR [eax+0x8]
  104241:	66 85 c0             	test   ax,ax
  104244:	0f 85 84 00 00 00    	jne    1042ce <mm_merge_nearest+0x27d>
  10424a:	8b 15 20 8d 51 00    	mov    edx,DWORD PTR ds:0x518d20
  104250:	8b 45 f0             	mov    eax,DWORD PTR [ebp-0x10]
  104253:	6b c0 0e             	imul   eax,eax,0xe
  104256:	01 c2                	add    edx,eax
  104258:	a1 20 8d 51 00       	mov    eax,ds:0x518d20
  10425d:	8b 52 0a             	mov    edx,DWORD PTR [edx+0xa]
  104260:	89 50 0a             	mov    DWORD PTR [eax+0xa],edx
  104263:	a1 20 8d 51 00       	mov    eax,ds:0x518d20
  104268:	8b 48 04             	mov    ecx,DWORD PTR [eax+0x4]
  10426b:	8b 15 20 8d 51 00    	mov    edx,DWORD PTR ds:0x518d20
  104271:	8b 45 f0             	mov    eax,DWORD PTR [ebp-0x10]
  104274:	6b c0 0e             	imul   eax,eax,0xe
  104277:	01 d0                	add    eax,edx
  104279:	8b 50 04             	mov    edx,DWORD PTR [eax+0x4]
  10427c:	a1 20 8d 51 00       	mov    eax,ds:0x518d20
  104281:	01 ca                	add    edx,ecx
  104283:	89 50 04             	mov    DWORD PTR [eax+0x4],edx
  104286:	a1 20 8d 51 00       	mov    eax,ds:0x518d20
  10428b:	8b 08                	mov    ecx,DWORD PTR [eax]
  10428d:	8b 15 20 8d 51 00    	mov    edx,DWORD PTR ds:0x518d20
  104293:	8b 45 f0             	mov    eax,DWORD PTR [ebp-0x10]
  104296:	6b c0 0e             	imul   eax,eax,0xe
  104299:	01 d0                	add    eax,edx
  10429b:	8b 10                	mov    edx,DWORD PTR [eax]
  10429d:	a1 20 8d 51 00       	mov    eax,ds:0x518d20
  1042a2:	01 ca                	add    edx,ecx
  1042a4:	89 10                	mov    DWORD PTR [eax],edx
  1042a6:	a1 20 8d 51 00       	mov    eax,ds:0x518d20
  1042ab:	66 c7 40 08 00 00    	mov    WORD PTR [eax+0x8],0x0
  1042b1:	8b 15 20 8d 51 00    	mov    edx,DWORD PTR ds:0x518d20
  1042b7:	8b 45 f0             	mov    eax,DWORD PTR [ebp-0x10]
  1042ba:	6b c0 0e             	imul   eax,eax,0xe
  1042bd:	01 d0                	add    eax,edx
  1042bf:	83 ec 0c             	sub    esp,0xc
  1042c2:	50                   	push   eax
  1042c3:	e8 cd 00 00 00       	call   104395 <mm_delete_entry>
  1042c8:	83 c4 10             	add    esp,0x10
  1042cb:	eb 13                	jmp    1042e0 <mm_merge_nearest+0x28f>
  1042cd:	90                   	nop
  1042ce:	83 45 f0 01          	add    DWORD PTR [ebp-0x10],0x1
  1042d2:	a1 50 8d 51 00       	mov    eax,ds:0x518d50
  1042d7:	39 45 f0             	cmp    DWORD PTR [ebp-0x10],eax
  1042da:	0f 82 f3 fe ff ff    	jb     1041d3 <mm_merge_nearest+0x182>
  1042e0:	b8 01 00 00 00       	mov    eax,0x1
  1042e5:	8b 5d fc             	mov    ebx,DWORD PTR [ebp-0x4]
  1042e8:	c9                   	leave  
  1042e9:	c3                   	ret    

001042ea <mm_create_entry>:
  1042ea:	55                   	push   ebp
  1042eb:	89 e5                	mov    ebp,esp
  1042ed:	53                   	push   ebx
  1042ee:	83 ec 24             	sub    esp,0x24
  1042f1:	8b 45 10             	mov    eax,DWORD PTR [ebp+0x10]
  1042f4:	88 45 e4             	mov    BYTE PTR [ebp-0x1c],al
  1042f7:	e8 65 03 00 00       	call   104661 <mm_free_index>
  1042fc:	89 45 f4             	mov    DWORD PTR [ebp-0xc],eax
  1042ff:	83 ec 0c             	sub    esp,0xc
  104302:	ff 75 f4             	push   DWORD PTR [ebp-0xc]
  104305:	e8 48 01 00 00       	call   104452 <mm_validate_index>
  10430a:	83 c4 10             	add    esp,0x10
  10430d:	84 c0                	test   al,al
  10430f:	75 14                	jne    104325 <mm_create_entry+0x3b>
  104311:	83 ec 04             	sub    esp,0x4
  104314:	68 18 1f 11 00       	push   0x111f18
  104319:	6a 00                	push   0x0
  10431b:	6a 05                	push   0x5
  10431d:	e8 07 e0 ff ff       	call   102329 <panicf>
  104322:	83 c4 10             	add    esp,0x10
  104325:	8b 15 20 8d 51 00    	mov    edx,DWORD PTR ds:0x518d20
  10432b:	8b 45 f4             	mov    eax,DWORD PTR [ebp-0xc]
  10432e:	6b c0 0e             	imul   eax,eax,0xe
  104331:	01 c2                	add    edx,eax
  104333:	8b 45 08             	mov    eax,DWORD PTR [ebp+0x8]
  104336:	89 42 0a             	mov    DWORD PTR [edx+0xa],eax
  104339:	8b 15 20 8d 51 00    	mov    edx,DWORD PTR ds:0x518d20
  10433f:	8b 45 f4             	mov    eax,DWORD PTR [ebp-0xc]
  104342:	6b c0 0e             	imul   eax,eax,0xe
  104345:	01 c2                	add    edx,eax
  104347:	8b 45 0c             	mov    eax,DWORD PTR [ebp+0xc]
  10434a:	89 42 04             	mov    DWORD PTR [edx+0x4],eax
  10434d:	8b 15 20 8d 51 00    	mov    edx,DWORD PTR ds:0x518d20
  104353:	8b 45 f4             	mov    eax,DWORD PTR [ebp-0xc]
  104356:	6b c0 0e             	imul   eax,eax,0xe
  104359:	8d 1c 02             	lea    ebx,[edx+eax*1]
  10435c:	83 ec 0c             	sub    esp,0xc
  10435f:	ff 75 0c             	push   DWORD PTR [ebp+0xc]
  104362:	e8 7d 04 00 00       	call   1047e4 <mm_align>
  104367:	83 c4 10             	add    esp,0x10
  10436a:	89 03                	mov    DWORD PTR [ebx],eax
  10436c:	8b 15 20 8d 51 00    	mov    edx,DWORD PTR ds:0x518d20
  104372:	8b 45 f4             	mov    eax,DWORD PTR [ebp-0xc]
  104375:	6b c0 0e             	imul   eax,eax,0xe
  104378:	01 c2                	add    edx,eax
  10437a:	0f b6 45 e4          	movzx  eax,BYTE PTR [ebp-0x1c]
  10437e:	66 89 42 08          	mov    WORD PTR [edx+0x8],ax
  104382:	8b 15 20 8d 51 00    	mov    edx,DWORD PTR ds:0x518d20
  104388:	8b 45 f4             	mov    eax,DWORD PTR [ebp-0xc]
  10438b:	6b c0 0e             	imul   eax,eax,0xe
  10438e:	01 d0                	add    eax,edx
  104390:	8b 5d fc             	mov    ebx,DWORD PTR [ebp-0x4]
  104393:	c9                   	leave  
  104394:	c3                   	ret    

00104395 <mm_delete_entry>:
  104395:	55                   	push   ebp
  104396:	89 e5                	mov    ebp,esp
  104398:	83 ec 18             	sub    esp,0x18
  10439b:	83 ec 08             	sub    esp,0x8
  10439e:	6a 01                	push   0x1
  1043a0:	ff 75 08             	push   DWORD PTR [ebp+0x8]
  1043a3:	e8 f3 00 00 00       	call   10449b <mm_validate_entry>
  1043a8:	83 c4 10             	add    esp,0x10
  1043ab:	84 c0                	test   al,al
  1043ad:	75 0a                	jne    1043b9 <mm_delete_entry+0x24>
  1043af:	b8 00 00 00 00       	mov    eax,0x0
  1043b4:	e9 97 00 00 00       	jmp    104450 <mm_delete_entry+0xbb>
  1043b9:	c7 45 f4 00 00 00 00 	mov    DWORD PTR [ebp-0xc],0x0
  1043c0:	eb 6b                	jmp    10442d <mm_delete_entry+0x98>
  1043c2:	8b 15 20 8d 51 00    	mov    edx,DWORD PTR ds:0x518d20
  1043c8:	8b 45 f4             	mov    eax,DWORD PTR [ebp-0xc]
  1043cb:	6b c0 0e             	imul   eax,eax,0xe
  1043ce:	01 d0                	add    eax,edx
  1043d0:	83 ec 08             	sub    esp,0x8
  1043d3:	6a 00                	push   0x0
  1043d5:	50                   	push   eax
  1043d6:	e8 c0 00 00 00       	call   10449b <mm_validate_entry>
  1043db:	83 c4 10             	add    esp,0x10
  1043de:	84 c0                	test   al,al
  1043e0:	74 46                	je     104428 <mm_delete_entry+0x93>
  1043e2:	8b 15 20 8d 51 00    	mov    edx,DWORD PTR ds:0x518d20
  1043e8:	8b 45 f4             	mov    eax,DWORD PTR [ebp-0xc]
  1043eb:	6b c0 0e             	imul   eax,eax,0xe
  1043ee:	01 d0                	add    eax,edx
  1043f0:	83 ec 08             	sub    esp,0x8
  1043f3:	ff 75 08             	push   DWORD PTR [ebp+0x8]
  1043f6:	50                   	push   eax
  1043f7:	e8 da 01 00 00       	call   1045d6 <mm_entry_equals>
  1043fc:	83 c4 10             	add    esp,0x10
  1043ff:	84 c0                	test   al,al
  104401:	74 26                	je     104429 <mm_delete_entry+0x94>
  104403:	8b 15 20 8d 51 00    	mov    edx,DWORD PTR ds:0x518d20
  104409:	8b 45 f4             	mov    eax,DWORD PTR [ebp-0xc]
  10440c:	6b c0 0e             	imul   eax,eax,0xe
  10440f:	01 d0                	add    eax,edx
  104411:	83 ec 04             	sub    esp,0x4
  104414:	6a 0e                	push   0xe
  104416:	6a 00                	push   0x0
  104418:	50                   	push   eax
  104419:	e8 97 06 00 00       	call   104ab5 <memset>
  10441e:	83 c4 10             	add    esp,0x10
  104421:	b8 01 00 00 00       	mov    eax,0x1
  104426:	eb 28                	jmp    104450 <mm_delete_entry+0xbb>
  104428:	90                   	nop
  104429:	83 45 f4 01          	add    DWORD PTR [ebp-0xc],0x1
  10442d:	a1 50 8d 51 00       	mov    eax,ds:0x518d50
  104432:	39 45 f4             	cmp    DWORD PTR [ebp-0xc],eax
  104435:	72 8b                	jb     1043c2 <mm_delete_entry+0x2d>
  104437:	83 ec 04             	sub    esp,0x4
  10443a:	68 28 1f 11 00       	push   0x111f28
  10443f:	6a 00                	push   0x0
  104441:	6a 0b                	push   0xb
  104443:	e8 e1 de ff ff       	call   102329 <panicf>
  104448:	83 c4 10             	add    esp,0x10
  10444b:	b8 00 00 00 00       	mov    eax,0x0
  104450:	c9                   	leave  
  104451:	c3                   	ret    

00104452 <mm_validate_index>:
  104452:	55                   	push   ebp
  104453:	89 e5                	mov    ebp,esp
  104455:	83 7d 08 00          	cmp    DWORD PTR [ebp+0x8],0x0
  104459:	78 0d                	js     104468 <mm_validate_index+0x16>
  10445b:	8b 15 50 8d 51 00    	mov    edx,DWORD PTR ds:0x518d50
  104461:	8b 45 08             	mov    eax,DWORD PTR [ebp+0x8]
  104464:	39 c2                	cmp    edx,eax
  104466:	77 07                	ja     10446f <mm_validate_index+0x1d>
  104468:	b8 00 00 00 00       	mov    eax,0x0
  10446d:	eb 05                	jmp    104474 <mm_validate_index+0x22>
  10446f:	b8 01 00 00 00       	mov    eax,0x1
  104474:	5d                   	pop    ebp
  104475:	c3                   	ret    

00104476 <mm_validate_ptr>:
  104476:	55                   	push   ebp
  104477:	89 e5                	mov    ebp,esp
  104479:	a1 54 8d 51 00       	mov    eax,ds:0x518d54
  10447e:	39 45 08             	cmp    DWORD PTR [ebp+0x8],eax
  104481:	72 0a                	jb     10448d <mm_validate_ptr+0x17>
  104483:	a1 58 8d 51 00       	mov    eax,ds:0x518d58
  104488:	39 45 08             	cmp    DWORD PTR [ebp+0x8],eax
  10448b:	72 07                	jb     104494 <mm_validate_ptr+0x1e>
  10448d:	b8 00 00 00 00       	mov    eax,0x0
  104492:	eb 05                	jmp    104499 <mm_validate_ptr+0x23>
  104494:	b8 01 00 00 00       	mov    eax,0x1
  104499:	5d                   	pop    ebp
  10449a:	c3                   	ret    

0010449b <mm_validate_entry>:
  10449b:	55                   	push   ebp
  10449c:	89 e5                	mov    ebp,esp
  10449e:	83 ec 18             	sub    esp,0x18
  1044a1:	8b 45 0c             	mov    eax,DWORD PTR [ebp+0xc]
  1044a4:	88 45 f4             	mov    BYTE PTR [ebp-0xc],al
  1044a7:	83 7d 08 00          	cmp    DWORD PTR [ebp+0x8],0x0
  1044ab:	75 21                	jne    1044ce <mm_validate_entry+0x33>
  1044ad:	80 7d f4 00          	cmp    BYTE PTR [ebp-0xc],0x0
  1044b1:	74 1b                	je     1044ce <mm_validate_entry+0x33>
  1044b3:	83 ec 04             	sub    esp,0x4
  1044b6:	68 38 1f 11 00       	push   0x111f38
  1044bb:	6a 00                	push   0x0
  1044bd:	6a 07                	push   0x7
  1044bf:	e8 65 de ff ff       	call   102329 <panicf>
  1044c4:	83 c4 10             	add    esp,0x10
  1044c7:	b8 00 00 00 00       	mov    eax,0x0
  1044cc:	eb 71                	jmp    10453f <mm_validate_entry+0xa4>
  1044ce:	8b 45 08             	mov    eax,DWORD PTR [ebp+0x8]
  1044d1:	8b 40 0a             	mov    eax,DWORD PTR [eax+0xa]
  1044d4:	83 ec 0c             	sub    esp,0xc
  1044d7:	50                   	push   eax
  1044d8:	e8 99 ff ff ff       	call   104476 <mm_validate_ptr>
  1044dd:	83 c4 10             	add    esp,0x10
  1044e0:	84 c0                	test   al,al
  1044e2:	75 21                	jne    104505 <mm_validate_entry+0x6a>
  1044e4:	80 7d f4 00          	cmp    BYTE PTR [ebp-0xc],0x0
  1044e8:	74 1b                	je     104505 <mm_validate_entry+0x6a>
  1044ea:	83 ec 04             	sub    esp,0x4
  1044ed:	68 38 1f 11 00       	push   0x111f38
  1044f2:	6a 00                	push   0x0
  1044f4:	6a 01                	push   0x1
  1044f6:	e8 2e de ff ff       	call   102329 <panicf>
  1044fb:	83 c4 10             	add    esp,0x10
  1044fe:	b8 00 00 00 00       	mov    eax,0x0
  104503:	eb 3a                	jmp    10453f <mm_validate_entry+0xa4>
  104505:	8b 45 08             	mov    eax,DWORD PTR [ebp+0x8]
  104508:	8b 40 04             	mov    eax,DWORD PTR [eax+0x4]
  10450b:	85 c0                	test   eax,eax
  10450d:	74 0a                	je     104519 <mm_validate_entry+0x7e>
  10450f:	8b 45 08             	mov    eax,DWORD PTR [ebp+0x8]
  104512:	8b 40 04             	mov    eax,DWORD PTR [eax+0x4]
  104515:	85 c0                	test   eax,eax
  104517:	75 21                	jne    10453a <mm_validate_entry+0x9f>
  104519:	80 7d f4 00          	cmp    BYTE PTR [ebp-0xc],0x0
  10451d:	74 1b                	je     10453a <mm_validate_entry+0x9f>
  10451f:	83 ec 04             	sub    esp,0x4
  104522:	68 38 1f 11 00       	push   0x111f38
  104527:	6a 00                	push   0x0
  104529:	6a 03                	push   0x3
  10452b:	e8 f9 dd ff ff       	call   102329 <panicf>
  104530:	83 c4 10             	add    esp,0x10
  104533:	b8 00 00 00 00       	mov    eax,0x0
  104538:	eb 05                	jmp    10453f <mm_validate_entry+0xa4>
  10453a:	b8 01 00 00 00       	mov    eax,0x1
  10453f:	c9                   	leave  
  104540:	c3                   	ret    

00104541 <mm_check_index_null>:
  104541:	55                   	push   ebp
  104542:	89 e5                	mov    ebp,esp
  104544:	83 7d 08 00          	cmp    DWORD PTR [ebp+0x8],0x0
  104548:	78 0d                	js     104557 <mm_check_index_null+0x16>
  10454a:	8b 15 50 8d 51 00    	mov    edx,DWORD PTR ds:0x518d50
  104550:	8b 45 08             	mov    eax,DWORD PTR [ebp+0x8]
  104553:	39 c2                	cmp    edx,eax
  104555:	77 07                	ja     10455e <mm_check_index_null+0x1d>
  104557:	b8 00 00 00 00       	mov    eax,0x0
  10455c:	eb 76                	jmp    1045d4 <mm_check_index_null+0x93>
  10455e:	8b 15 20 8d 51 00    	mov    edx,DWORD PTR ds:0x518d20
  104564:	8b 45 08             	mov    eax,DWORD PTR [ebp+0x8]
  104567:	6b c0 0e             	imul   eax,eax,0xe
  10456a:	01 d0                	add    eax,edx
  10456c:	8b 40 0a             	mov    eax,DWORD PTR [eax+0xa]
  10456f:	85 c0                	test   eax,eax
  104571:	74 07                	je     10457a <mm_check_index_null+0x39>
  104573:	b8 00 00 00 00       	mov    eax,0x0
  104578:	eb 5a                	jmp    1045d4 <mm_check_index_null+0x93>
  10457a:	8b 15 20 8d 51 00    	mov    edx,DWORD PTR ds:0x518d20
  104580:	8b 45 08             	mov    eax,DWORD PTR [ebp+0x8]
  104583:	6b c0 0e             	imul   eax,eax,0xe
  104586:	01 d0                	add    eax,edx
  104588:	8b 40 04             	mov    eax,DWORD PTR [eax+0x4]
  10458b:	85 c0                	test   eax,eax
  10458d:	74 07                	je     104596 <mm_check_index_null+0x55>
  10458f:	b8 00 00 00 00       	mov    eax,0x0
  104594:	eb 3e                	jmp    1045d4 <mm_check_index_null+0x93>
  104596:	8b 15 20 8d 51 00    	mov    edx,DWORD PTR ds:0x518d20
  10459c:	8b 45 08             	mov    eax,DWORD PTR [ebp+0x8]
  10459f:	6b c0 0e             	imul   eax,eax,0xe
  1045a2:	01 d0                	add    eax,edx
  1045a4:	8b 00                	mov    eax,DWORD PTR [eax]
  1045a6:	85 c0                	test   eax,eax
  1045a8:	74 07                	je     1045b1 <mm_check_index_null+0x70>
  1045aa:	b8 00 00 00 00       	mov    eax,0x0
  1045af:	eb 23                	jmp    1045d4 <mm_check_index_null+0x93>
  1045b1:	8b 15 20 8d 51 00    	mov    edx,DWORD PTR ds:0x518d20
  1045b7:	8b 45 08             	mov    eax,DWORD PTR [ebp+0x8]
  1045ba:	6b c0 0e             	imul   eax,eax,0xe
  1045bd:	01 d0                	add    eax,edx
  1045bf:	0f b7 40 08          	movzx  eax,WORD PTR [eax+0x8]
  1045c3:	66 85 c0             	test   ax,ax
  1045c6:	74 07                	je     1045cf <mm_check_index_null+0x8e>
  1045c8:	b8 00 00 00 00       	mov    eax,0x0
  1045cd:	eb 05                	jmp    1045d4 <mm_check_index_null+0x93>
  1045cf:	b8 01 00 00 00       	mov    eax,0x1
  1045d4:	5d                   	pop    ebp
  1045d5:	c3                   	ret    

001045d6 <mm_entry_equals>:
  1045d6:	55                   	push   ebp
  1045d7:	89 e5                	mov    ebp,esp
  1045d9:	83 7d 08 00          	cmp    DWORD PTR [ebp+0x8],0x0
  1045dd:	75 0d                	jne    1045ec <mm_entry_equals+0x16>
  1045df:	83 7d 0c 00          	cmp    DWORD PTR [ebp+0xc],0x0
  1045e3:	75 07                	jne    1045ec <mm_entry_equals+0x16>
  1045e5:	b8 00 00 00 00       	mov    eax,0x0
  1045ea:	eb 73                	jmp    10465f <mm_entry_equals+0x89>
  1045ec:	83 7d 08 00          	cmp    DWORD PTR [ebp+0x8],0x0
  1045f0:	75 0d                	jne    1045ff <mm_entry_equals+0x29>
  1045f2:	83 7d 0c 00          	cmp    DWORD PTR [ebp+0xc],0x0
  1045f6:	74 07                	je     1045ff <mm_entry_equals+0x29>
  1045f8:	b8 00 00 00 00       	mov    eax,0x0
  1045fd:	eb 60                	jmp    10465f <mm_entry_equals+0x89>
  1045ff:	83 7d 08 00          	cmp    DWORD PTR [ebp+0x8],0x0
  104603:	74 0d                	je     104612 <mm_entry_equals+0x3c>
  104605:	83 7d 0c 00          	cmp    DWORD PTR [ebp+0xc],0x0
  104609:	75 07                	jne    104612 <mm_entry_equals+0x3c>
  10460b:	b8 00 00 00 00       	mov    eax,0x0
  104610:	eb 4d                	jmp    10465f <mm_entry_equals+0x89>
  104612:	8b 45 08             	mov    eax,DWORD PTR [ebp+0x8]
  104615:	8b 50 0a             	mov    edx,DWORD PTR [eax+0xa]
  104618:	8b 45 0c             	mov    eax,DWORD PTR [ebp+0xc]
  10461b:	8b 40 0a             	mov    eax,DWORD PTR [eax+0xa]
  10461e:	39 c2                	cmp    edx,eax
  104620:	75 38                	jne    10465a <mm_entry_equals+0x84>
  104622:	8b 45 08             	mov    eax,DWORD PTR [ebp+0x8]
  104625:	8b 50 04             	mov    edx,DWORD PTR [eax+0x4]
  104628:	8b 45 0c             	mov    eax,DWORD PTR [ebp+0xc]
  10462b:	8b 40 04             	mov    eax,DWORD PTR [eax+0x4]
  10462e:	39 c2                	cmp    edx,eax
  104630:	75 28                	jne    10465a <mm_entry_equals+0x84>
  104632:	8b 45 08             	mov    eax,DWORD PTR [ebp+0x8]
  104635:	8b 10                	mov    edx,DWORD PTR [eax]
  104637:	8b 45 0c             	mov    eax,DWORD PTR [ebp+0xc]
  10463a:	8b 00                	mov    eax,DWORD PTR [eax]
  10463c:	39 c2                	cmp    edx,eax
  10463e:	75 1a                	jne    10465a <mm_entry_equals+0x84>
  104640:	8b 45 08             	mov    eax,DWORD PTR [ebp+0x8]
  104643:	0f b7 50 08          	movzx  edx,WORD PTR [eax+0x8]
  104647:	8b 45 0c             	mov    eax,DWORD PTR [ebp+0xc]
  10464a:	0f b7 40 08          	movzx  eax,WORD PTR [eax+0x8]
  10464e:	66 39 c2             	cmp    dx,ax
  104651:	75 07                	jne    10465a <mm_entry_equals+0x84>
  104653:	b8 01 00 00 00       	mov    eax,0x1
  104658:	eb 05                	jmp    10465f <mm_entry_equals+0x89>
  10465a:	b8 00 00 00 00       	mov    eax,0x0
  10465f:	5d                   	pop    ebp
  104660:	c3                   	ret    

00104661 <mm_free_index>:
  104661:	55                   	push   ebp
  104662:	89 e5                	mov    ebp,esp
  104664:	83 ec 10             	sub    esp,0x10
  104667:	c7 45 fc 00 00 00 00 	mov    DWORD PTR [ebp-0x4],0x0
  10466e:	eb 19                	jmp    104689 <mm_free_index+0x28>
  104670:	8b 45 fc             	mov    eax,DWORD PTR [ebp-0x4]
  104673:	50                   	push   eax
  104674:	e8 c8 fe ff ff       	call   104541 <mm_check_index_null>
  104679:	83 c4 04             	add    esp,0x4
  10467c:	84 c0                	test   al,al
  10467e:	74 05                	je     104685 <mm_free_index+0x24>
  104680:	8b 45 fc             	mov    eax,DWORD PTR [ebp-0x4]
  104683:	eb 13                	jmp    104698 <mm_free_index+0x37>
  104685:	83 45 fc 01          	add    DWORD PTR [ebp-0x4],0x1
  104689:	a1 50 8d 51 00       	mov    eax,ds:0x518d50
  10468e:	39 45 fc             	cmp    DWORD PTR [ebp-0x4],eax
  104691:	72 dd                	jb     104670 <mm_free_index+0xf>
  104693:	b8 ff ff ff ff       	mov    eax,0xffffffff
  104698:	c9                   	leave  
  104699:	c3                   	ret    

0010469a <mm_entry_from_ptr>:
  10469a:	55                   	push   ebp
  10469b:	89 e5                	mov    ebp,esp
  10469d:	83 ec 10             	sub    esp,0x10
  1046a0:	83 7d 08 00          	cmp    DWORD PTR [ebp+0x8],0x0
  1046a4:	75 07                	jne    1046ad <mm_entry_from_ptr+0x13>
  1046a6:	b8 00 00 00 00       	mov    eax,0x0
  1046ab:	eb 58                	jmp    104705 <mm_entry_from_ptr+0x6b>
  1046ad:	c7 45 fc 00 00 00 00 	mov    DWORD PTR [ebp-0x4],0x0
  1046b4:	eb 40                	jmp    1046f6 <mm_entry_from_ptr+0x5c>
  1046b6:	8b 15 20 8d 51 00    	mov    edx,DWORD PTR ds:0x518d20
  1046bc:	8b 45 fc             	mov    eax,DWORD PTR [ebp-0x4]
  1046bf:	6b c0 0e             	imul   eax,eax,0xe
  1046c2:	01 d0                	add    eax,edx
  1046c4:	8b 40 0a             	mov    eax,DWORD PTR [eax+0xa]
  1046c7:	85 c0                	test   eax,eax
  1046c9:	74 26                	je     1046f1 <mm_entry_from_ptr+0x57>
  1046cb:	8b 15 20 8d 51 00    	mov    edx,DWORD PTR ds:0x518d20
  1046d1:	8b 45 fc             	mov    eax,DWORD PTR [ebp-0x4]
  1046d4:	6b c0 0e             	imul   eax,eax,0xe
  1046d7:	01 d0                	add    eax,edx
  1046d9:	8b 40 0a             	mov    eax,DWORD PTR [eax+0xa]
  1046dc:	39 45 08             	cmp    DWORD PTR [ebp+0x8],eax
  1046df:	75 11                	jne    1046f2 <mm_entry_from_ptr+0x58>
  1046e1:	8b 15 20 8d 51 00    	mov    edx,DWORD PTR ds:0x518d20
  1046e7:	8b 45 fc             	mov    eax,DWORD PTR [ebp-0x4]
  1046ea:	6b c0 0e             	imul   eax,eax,0xe
  1046ed:	01 d0                	add    eax,edx
  1046ef:	eb 14                	jmp    104705 <mm_entry_from_ptr+0x6b>
  1046f1:	90                   	nop
  1046f2:	83 45 fc 01          	add    DWORD PTR [ebp-0x4],0x1
  1046f6:	a1 50 8d 51 00       	mov    eax,ds:0x518d50
  1046fb:	39 45 fc             	cmp    DWORD PTR [ebp-0x4],eax
  1046fe:	72 b6                	jb     1046b6 <mm_entry_from_ptr+0x1c>
  104700:	b8 00 00 00 00       	mov    eax,0x0
  104705:	c9                   	leave  
  104706:	c3                   	ret    

00104707 <mm_size_from_ptr>:
  104707:	55                   	push   ebp
  104708:	89 e5                	mov    ebp,esp
  10470a:	83 ec 10             	sub    esp,0x10
  10470d:	83 7d 08 00          	cmp    DWORD PTR [ebp+0x8],0x0
  104711:	75 07                	jne    10471a <mm_size_from_ptr+0x13>
  104713:	b8 00 00 00 00       	mov    eax,0x0
  104718:	eb 5b                	jmp    104775 <mm_size_from_ptr+0x6e>
  10471a:	c7 45 fc 00 00 00 00 	mov    DWORD PTR [ebp-0x4],0x0
  104721:	eb 43                	jmp    104766 <mm_size_from_ptr+0x5f>
  104723:	8b 15 20 8d 51 00    	mov    edx,DWORD PTR ds:0x518d20
  104729:	8b 45 fc             	mov    eax,DWORD PTR [ebp-0x4]
  10472c:	6b c0 0e             	imul   eax,eax,0xe
  10472f:	01 d0                	add    eax,edx
  104731:	8b 40 0a             	mov    eax,DWORD PTR [eax+0xa]
  104734:	85 c0                	test   eax,eax
  104736:	74 29                	je     104761 <mm_size_from_ptr+0x5a>
  104738:	8b 15 20 8d 51 00    	mov    edx,DWORD PTR ds:0x518d20
  10473e:	8b 45 fc             	mov    eax,DWORD PTR [ebp-0x4]
  104741:	6b c0 0e             	imul   eax,eax,0xe
  104744:	01 d0                	add    eax,edx
  104746:	8b 40 0a             	mov    eax,DWORD PTR [eax+0xa]
  104749:	39 45 08             	cmp    DWORD PTR [ebp+0x8],eax
  10474c:	75 14                	jne    104762 <mm_size_from_ptr+0x5b>
  10474e:	8b 15 20 8d 51 00    	mov    edx,DWORD PTR ds:0x518d20
  104754:	8b 45 fc             	mov    eax,DWORD PTR [ebp-0x4]
  104757:	6b c0 0e             	imul   eax,eax,0xe
  10475a:	01 d0                	add    eax,edx
  10475c:	8b 40 04             	mov    eax,DWORD PTR [eax+0x4]
  10475f:	eb 14                	jmp    104775 <mm_size_from_ptr+0x6e>
  104761:	90                   	nop
  104762:	83 45 fc 01          	add    DWORD PTR [ebp-0x4],0x1
  104766:	a1 50 8d 51 00       	mov    eax,ds:0x518d50
  10476b:	39 45 fc             	cmp    DWORD PTR [ebp-0x4],eax
  10476e:	72 b3                	jb     104723 <mm_size_from_ptr+0x1c>
  104770:	b8 00 00 00 00       	mov    eax,0x0
  104775:	c9                   	leave  
  104776:	c3                   	ret    

00104777 <mm_index_from_ptr>:
  104777:	55                   	push   ebp
  104778:	89 e5                	mov    ebp,esp
  10477a:	83 ec 18             	sub    esp,0x18
  10477d:	83 7d 08 00          	cmp    DWORD PTR [ebp+0x8],0x0
  104781:	75 07                	jne    10478a <mm_index_from_ptr+0x13>
  104783:	b8 ff ff ff ff       	mov    eax,0xffffffff
  104788:	eb 58                	jmp    1047e2 <mm_index_from_ptr+0x6b>
  10478a:	c7 45 f4 00 00 00 00 	mov    DWORD PTR [ebp-0xc],0x0
  104791:	eb 40                	jmp    1047d3 <mm_index_from_ptr+0x5c>
  104793:	8b 15 20 8d 51 00    	mov    edx,DWORD PTR ds:0x518d20
  104799:	8b 45 f4             	mov    eax,DWORD PTR [ebp-0xc]
  10479c:	6b c0 0e             	imul   eax,eax,0xe
  10479f:	01 d0                	add    eax,edx
  1047a1:	83 ec 08             	sub    esp,0x8
  1047a4:	6a 00                	push   0x0
  1047a6:	50                   	push   eax
  1047a7:	e8 ef fc ff ff       	call   10449b <mm_validate_entry>
  1047ac:	83 c4 10             	add    esp,0x10
  1047af:	84 c0                	test   al,al
  1047b1:	74 1b                	je     1047ce <mm_index_from_ptr+0x57>
  1047b3:	8b 15 20 8d 51 00    	mov    edx,DWORD PTR ds:0x518d20
  1047b9:	8b 45 f4             	mov    eax,DWORD PTR [ebp-0xc]
  1047bc:	6b c0 0e             	imul   eax,eax,0xe
  1047bf:	01 d0                	add    eax,edx
  1047c1:	8b 40 0a             	mov    eax,DWORD PTR [eax+0xa]
  1047c4:	39 45 08             	cmp    DWORD PTR [ebp+0x8],eax
  1047c7:	75 06                	jne    1047cf <mm_index_from_ptr+0x58>
  1047c9:	8b 45 f4             	mov    eax,DWORD PTR [ebp-0xc]
  1047cc:	eb 14                	jmp    1047e2 <mm_index_from_ptr+0x6b>
  1047ce:	90                   	nop
  1047cf:	83 45 f4 01          	add    DWORD PTR [ebp-0xc],0x1
  1047d3:	a1 50 8d 51 00       	mov    eax,ds:0x518d50
  1047d8:	39 45 f4             	cmp    DWORD PTR [ebp-0xc],eax
  1047db:	72 b6                	jb     104793 <mm_index_from_ptr+0x1c>
  1047dd:	b8 ff ff ff ff       	mov    eax,0xffffffff
  1047e2:	c9                   	leave  
  1047e3:	c3                   	ret    

001047e4 <mm_align>:
  1047e4:	55                   	push   ebp
  1047e5:	89 e5                	mov    ebp,esp
  1047e7:	83 ec 10             	sub    esp,0x10
  1047ea:	8b 45 08             	mov    eax,DWORD PTR [ebp+0x8]
  1047ed:	89 45 fc             	mov    DWORD PTR [ebp-0x4],eax
  1047f0:	81 65 fc 00 f0 ff ff 	and    DWORD PTR [ebp-0x4],0xfffff000
  1047f7:	8b 45 fc             	mov    eax,DWORD PTR [ebp-0x4]
  1047fa:	3b 45 08             	cmp    eax,DWORD PTR [ebp+0x8]
  1047fd:	73 07                	jae    104806 <mm_align+0x22>
  1047ff:	81 45 fc 00 10 00 00 	add    DWORD PTR [ebp-0x4],0x1000
  104806:	8b 45 fc             	mov    eax,DWORD PTR [ebp-0x4]
  104809:	c9                   	leave  
  10480a:	c3                   	ret    

0010480b <mm_amount_installed>:
  10480b:	55                   	push   ebp
  10480c:	89 e5                	mov    ebp,esp
  10480e:	57                   	push   edi
  10480f:	56                   	push   esi
  104810:	53                   	push   ebx
  104811:	83 ec 3c             	sub    esp,0x3c
  104814:	83 ec 0c             	sub    esp,0xc
  104817:	6a 21                	push   0x21
  104819:	e8 57 07 00 00       	call   104f75 <port_inb>
  10481e:	83 c4 10             	add    esp,0x10
  104821:	88 45 db             	mov    BYTE PTR [ebp-0x25],al
  104824:	83 ec 0c             	sub    esp,0xc
  104827:	68 a1 00 00 00       	push   0xa1
  10482c:	e8 44 07 00 00       	call   104f75 <port_inb>
  104831:	83 c4 10             	add    esp,0x10
  104834:	88 45 da             	mov    BYTE PTR [ebp-0x26],al
  104837:	83 ec 08             	sub    esp,0x8
  10483a:	68 ff 00 00 00       	push   0xff
  10483f:	6a 21                	push   0x21
  104841:	e8 bb 07 00 00       	call   105001 <port_outb>
  104846:	83 c4 10             	add    esp,0x10
  104849:	83 ec 08             	sub    esp,0x8
  10484c:	68 ff 00 00 00       	push   0xff
  104851:	68 a1 00 00 00       	push   0xa1
  104856:	e8 a6 07 00 00       	call   105001 <port_outb>
  10485b:	83 c4 10             	add    esp,0x10
  10485e:	c7 45 e0 00 00 00 00 	mov    DWORD PTR [ebp-0x20],0x0
  104865:	c7 45 e4 00 00 00 00 	mov    DWORD PTR [ebp-0x1c],0x0
  10486c:	c7 45 dc 00 00 00 00 	mov    DWORD PTR [ebp-0x24],0x0
  104873:	0f 09                	wbinvd 
  104875:	83 45 dc 01          	add    DWORD PTR [ebp-0x24],0x1
  104879:	81 45 e0 00 00 10 00 	add    DWORD PTR [ebp-0x20],0x100000
  104880:	83 55 e4 00          	adc    DWORD PTR [ebp-0x1c],0x0
  104884:	8b 45 e0             	mov    eax,DWORD PTR [ebp-0x20]
  104887:	89 c3                	mov    ebx,eax
  104889:	8b 03                	mov    eax,DWORD PTR [ebx]
  10488b:	8b 53 04             	mov    edx,DWORD PTR [ebx+0x4]
  10488e:	89 45 d0             	mov    DWORD PTR [ebp-0x30],eax
  104891:	89 55 d4             	mov    DWORD PTR [ebp-0x2c],edx
  104894:	c7 03 aa 55 aa 55    	mov    DWORD PTR [ebx],0x55aa55aa
  10489a:	c7 43 04 00 00 00 00 	mov    DWORD PTR [ebx+0x4],0x0
  1048a1:	8b 03                	mov    eax,DWORD PTR [ebx]
  1048a3:	8b 53 04             	mov    edx,DWORD PTR [ebx+0x4]
  1048a6:	89 c1                	mov    ecx,eax
  1048a8:	81 f1 aa 55 aa 55    	xor    ecx,0x55aa55aa
  1048ae:	89 4d c0             	mov    DWORD PTR [ebp-0x40],ecx
  1048b1:	89 d0                	mov    eax,edx
  1048b3:	80 f4 00             	xor    ah,0x0
  1048b6:	89 45 c4             	mov    DWORD PTR [ebp-0x3c],eax
  1048b9:	8b 55 c0             	mov    edx,DWORD PTR [ebp-0x40]
  1048bc:	8b 4d c4             	mov    ecx,DWORD PTR [ebp-0x3c]
  1048bf:	89 c8                	mov    eax,ecx
  1048c1:	09 d0                	or     eax,edx
  1048c3:	85 c0                	test   eax,eax
  1048c5:	74 10                	je     1048d7 <mm_amount_installed+0xcc>
  1048c7:	c7 45 e0 00 00 00 00 	mov    DWORD PTR [ebp-0x20],0x0
  1048ce:	c7 45 e4 00 00 00 00 	mov    DWORD PTR [ebp-0x1c],0x0
  1048d5:	eb 41                	jmp    104918 <mm_amount_installed+0x10d>
  1048d7:	c7 03 55 aa 55 aa    	mov    DWORD PTR [ebx],0xaa55aa55
  1048dd:	c7 43 04 00 00 00 00 	mov    DWORD PTR [ebx+0x4],0x0
  1048e4:	8b 03                	mov    eax,DWORD PTR [ebx]
  1048e6:	8b 53 04             	mov    edx,DWORD PTR [ebx+0x4]
  1048e9:	89 c1                	mov    ecx,eax
  1048eb:	81 f1 55 aa 55 aa    	xor    ecx,0xaa55aa55
  1048f1:	89 4d b8             	mov    DWORD PTR [ebp-0x48],ecx
  1048f4:	89 d0                	mov    eax,edx
  1048f6:	80 f4 00             	xor    ah,0x0
  1048f9:	89 45 bc             	mov    DWORD PTR [ebp-0x44],eax
  1048fc:	8b 55 b8             	mov    edx,DWORD PTR [ebp-0x48]
  1048ff:	8b 4d bc             	mov    ecx,DWORD PTR [ebp-0x44]
  104902:	89 c8                	mov    eax,ecx
  104904:	09 d0                	or     eax,edx
  104906:	85 c0                	test   eax,eax
  104908:	74 0e                	je     104918 <mm_amount_installed+0x10d>
  10490a:	c7 45 e0 00 00 00 00 	mov    DWORD PTR [ebp-0x20],0x0
  104911:	c7 45 e4 00 00 00 00 	mov    DWORD PTR [ebp-0x1c],0x0
  104918:	8b 45 d0             	mov    eax,DWORD PTR [ebp-0x30]
  10491b:	8b 55 d4             	mov    edx,DWORD PTR [ebp-0x2c]
  10491e:	89 03                	mov    DWORD PTR [ebx],eax
  104920:	89 53 04             	mov    DWORD PTR [ebx+0x4],edx
  104923:	81 7d dc ff 0f 00 00 	cmp    DWORD PTR [ebp-0x24],0xfff
  10492a:	77 1c                	ja     104948 <mm_amount_installed+0x13d>
  10492c:	8b 45 e0             	mov    eax,DWORD PTR [ebp-0x20]
  10492f:	80 f4 00             	xor    ah,0x0
  104932:	89 c6                	mov    esi,eax
  104934:	8b 45 e4             	mov    eax,DWORD PTR [ebp-0x1c]
  104937:	80 f4 00             	xor    ah,0x0
  10493a:	89 c7                	mov    edi,eax
  10493c:	89 f8                	mov    eax,edi
  10493e:	09 f0                	or     eax,esi
  104940:	85 c0                	test   eax,eax
  104942:	0f 85 2d ff ff ff    	jne    104875 <mm_amount_installed+0x6a>
  104948:	bb 13 04 00 00       	mov    ebx,0x413
  10494d:	0f b6 45 db          	movzx  eax,BYTE PTR [ebp-0x25]
  104951:	83 ec 08             	sub    esp,0x8
  104954:	50                   	push   eax
  104955:	6a 21                	push   0x21
  104957:	e8 a5 06 00 00       	call   105001 <port_outb>
  10495c:	83 c4 10             	add    esp,0x10
  10495f:	0f b6 45 da          	movzx  eax,BYTE PTR [ebp-0x26]
  104963:	83 ec 08             	sub    esp,0x8
  104966:	50                   	push   eax
  104967:	68 a1 00 00 00       	push   0xa1
  10496c:	e8 90 06 00 00       	call   105001 <port_outb>
  104971:	83 c4 10             	add    esp,0x10
  104974:	8b 45 dc             	mov    eax,DWORD PTR [ebp-0x24]
  104977:	c1 e0 14             	shl    eax,0x14
  10497a:	8d 65 f4             	lea    esp,[ebp-0xc]
  10497d:	5b                   	pop    ebx
  10497e:	5e                   	pop    esi
  10497f:	5f                   	pop    edi
  104980:	5d                   	pop    ebp
  104981:	c3                   	ret    

00104982 <mm_amount_reserved>:
  104982:	55                   	push   ebp
  104983:	89 e5                	mov    ebp,esp
  104985:	a1 5c 8d 51 00       	mov    eax,ds:0x518d5c
  10498a:	5d                   	pop    ebp
  10498b:	c3                   	ret    

0010498c <mm_amount_used>:
  10498c:	55                   	push   ebp
  10498d:	89 e5                	mov    ebp,esp
  10498f:	a1 60 8d 51 00       	mov    eax,ds:0x518d60
  104994:	5d                   	pop    ebp
  104995:	c3                   	ret    

00104996 <mm_amount_free>:
  104996:	55                   	push   ebp
  104997:	89 e5                	mov    ebp,esp
  104999:	8b 15 5c 8d 51 00    	mov    edx,DWORD PTR ds:0x518d5c
  10499f:	a1 60 8d 51 00       	mov    eax,ds:0x518d60
  1049a4:	29 c2                	sub    edx,eax
  1049a6:	89 d0                	mov    eax,edx
  1049a8:	5d                   	pop    ebp
  1049a9:	c3                   	ret    

001049aa <mm_amount_entries>:
  1049aa:	55                   	push   ebp
  1049ab:	89 e5                	mov    ebp,esp
  1049ad:	a1 4c 8d 51 00       	mov    eax,ds:0x518d4c
  1049b2:	5d                   	pop    ebp
  1049b3:	c3                   	ret    

001049b4 <mm_amount_entries_max>:
  1049b4:	55                   	push   ebp
  1049b5:	89 e5                	mov    ebp,esp
  1049b7:	a1 50 8d 51 00       	mov    eax,ds:0x518d50
  1049bc:	5d                   	pop    ebp
  1049bd:	c3                   	ret    

001049be <memchr>:
  1049be:	55                   	push   ebp
  1049bf:	89 e5                	mov    ebp,esp
  1049c1:	83 ec 10             	sub    esp,0x10
  1049c4:	8b 45 08             	mov    eax,DWORD PTR [ebp+0x8]
  1049c7:	89 45 f8             	mov    DWORD PTR [ebp-0x8],eax
  1049ca:	c7 45 fc 00 00 00 00 	mov    DWORD PTR [ebp-0x4],0x0
  1049d1:	eb 20                	jmp    1049f3 <memchr+0x35>
  1049d3:	8b 55 f8             	mov    edx,DWORD PTR [ebp-0x8]
  1049d6:	8b 45 fc             	mov    eax,DWORD PTR [ebp-0x4]
  1049d9:	01 d0                	add    eax,edx
  1049db:	0f b6 00             	movzx  eax,BYTE PTR [eax]
  1049de:	8b 55 0c             	mov    edx,DWORD PTR [ebp+0xc]
  1049e1:	38 d0                	cmp    al,dl
  1049e3:	75 0a                	jne    1049ef <memchr+0x31>
  1049e5:	8b 55 08             	mov    edx,DWORD PTR [ebp+0x8]
  1049e8:	8b 45 fc             	mov    eax,DWORD PTR [ebp-0x4]
  1049eb:	01 d0                	add    eax,edx
  1049ed:	eb 11                	jmp    104a00 <memchr+0x42>
  1049ef:	83 45 fc 01          	add    DWORD PTR [ebp-0x4],0x1
  1049f3:	8b 45 fc             	mov    eax,DWORD PTR [ebp-0x4]
  1049f6:	3b 45 10             	cmp    eax,DWORD PTR [ebp+0x10]
  1049f9:	72 d8                	jb     1049d3 <memchr+0x15>
  1049fb:	b8 00 00 00 00       	mov    eax,0x0
  104a00:	c9                   	leave  
  104a01:	c3                   	ret    

00104a02 <memcmp>:
  104a02:	55                   	push   ebp
  104a03:	89 e5                	mov    ebp,esp
  104a05:	83 ec 10             	sub    esp,0x10
  104a08:	8b 45 08             	mov    eax,DWORD PTR [ebp+0x8]
  104a0b:	89 45 fc             	mov    DWORD PTR [ebp-0x4],eax
  104a0e:	8b 45 0c             	mov    eax,DWORD PTR [ebp+0xc]
  104a11:	89 45 f8             	mov    DWORD PTR [ebp-0x8],eax
  104a14:	c7 45 f4 00 00 00 00 	mov    DWORD PTR [ebp-0xc],0x0
  104a1b:	8b 45 08             	mov    eax,DWORD PTR [ebp+0x8]
  104a1e:	3b 45 0c             	cmp    eax,DWORD PTR [ebp+0xc]
  104a21:	75 42                	jne    104a65 <memcmp+0x63>
  104a23:	8b 45 f4             	mov    eax,DWORD PTR [ebp-0xc]
  104a26:	eb 46                	jmp    104a6e <memcmp+0x6c>
  104a28:	8b 45 fc             	mov    eax,DWORD PTR [ebp-0x4]
  104a2b:	0f b6 10             	movzx  edx,BYTE PTR [eax]
  104a2e:	8b 45 f8             	mov    eax,DWORD PTR [ebp-0x8]
  104a31:	0f b6 00             	movzx  eax,BYTE PTR [eax]
  104a34:	38 c2                	cmp    dl,al
  104a36:	74 21                	je     104a59 <memcmp+0x57>
  104a38:	8b 45 fc             	mov    eax,DWORD PTR [ebp-0x4]
  104a3b:	0f b6 10             	movzx  edx,BYTE PTR [eax]
  104a3e:	8b 45 f8             	mov    eax,DWORD PTR [ebp-0x8]
  104a41:	0f b6 00             	movzx  eax,BYTE PTR [eax]
  104a44:	38 c2                	cmp    dl,al
  104a46:	76 07                	jbe    104a4f <memcmp+0x4d>
  104a48:	b8 01 00 00 00       	mov    eax,0x1
  104a4d:	eb 05                	jmp    104a54 <memcmp+0x52>
  104a4f:	b8 ff ff ff ff       	mov    eax,0xffffffff
  104a54:	89 45 f4             	mov    DWORD PTR [ebp-0xc],eax
  104a57:	eb 12                	jmp    104a6b <memcmp+0x69>
  104a59:	83 6d 10 01          	sub    DWORD PTR [ebp+0x10],0x1
  104a5d:	83 45 fc 01          	add    DWORD PTR [ebp-0x4],0x1
  104a61:	83 45 f8 01          	add    DWORD PTR [ebp-0x8],0x1
  104a65:	83 7d 10 00          	cmp    DWORD PTR [ebp+0x10],0x0
  104a69:	75 bd                	jne    104a28 <memcmp+0x26>
  104a6b:	8b 45 f4             	mov    eax,DWORD PTR [ebp-0xc]
  104a6e:	c9                   	leave  
  104a6f:	c3                   	ret    

00104a70 <memicmp>:
  104a70:	55                   	push   ebp
  104a71:	89 e5                	mov    ebp,esp
  104a73:	90                   	nop
  104a74:	5d                   	pop    ebp
  104a75:	c3                   	ret    

00104a76 <memcpy>:
  104a76:	55                   	push   ebp
  104a77:	89 e5                	mov    ebp,esp
  104a79:	57                   	push   edi
  104a7a:	56                   	push   esi
  104a7b:	8b 4d 10             	mov    ecx,DWORD PTR [ebp+0x10]
  104a7e:	8b 55 0c             	mov    edx,DWORD PTR [ebp+0xc]
  104a81:	8b 45 08             	mov    eax,DWORD PTR [ebp+0x8]
  104a84:	89 d6                	mov    esi,edx
  104a86:	89 c7                	mov    edi,eax
  104a88:	fc                   	cld    
  104a89:	f3 a4                	rep movs BYTE PTR es:[edi],BYTE PTR ds:[esi]
  104a8b:	89 f8                	mov    eax,edi
  104a8d:	89 f2                	mov    edx,esi
  104a8f:	89 4d 10             	mov    DWORD PTR [ebp+0x10],ecx
  104a92:	89 55 0c             	mov    DWORD PTR [ebp+0xc],edx
  104a95:	89 45 08             	mov    DWORD PTR [ebp+0x8],eax
  104a98:	8b 45 08             	mov    eax,DWORD PTR [ebp+0x8]
  104a9b:	5e                   	pop    esi
  104a9c:	5f                   	pop    edi
  104a9d:	5d                   	pop    ebp
  104a9e:	c3                   	ret    

00104a9f <memmove>:
  104a9f:	55                   	push   ebp
  104aa0:	89 e5                	mov    ebp,esp
  104aa2:	ff 75 10             	push   DWORD PTR [ebp+0x10]
  104aa5:	ff 75 0c             	push   DWORD PTR [ebp+0xc]
  104aa8:	ff 75 08             	push   DWORD PTR [ebp+0x8]
  104aab:	e8 c6 ff ff ff       	call   104a76 <memcpy>
  104ab0:	83 c4 0c             	add    esp,0xc
  104ab3:	c9                   	leave  
  104ab4:	c3                   	ret    

00104ab5 <memset>:
  104ab5:	55                   	push   ebp
  104ab6:	89 e5                	mov    ebp,esp
  104ab8:	83 ec 20             	sub    esp,0x20
  104abb:	8b 45 10             	mov    eax,DWORD PTR [ebp+0x10]
  104abe:	c1 e8 02             	shr    eax,0x2
  104ac1:	89 45 f8             	mov    DWORD PTR [ebp-0x8],eax
  104ac4:	8b 45 10             	mov    eax,DWORD PTR [ebp+0x10]
  104ac7:	83 e0 03             	and    eax,0x3
  104aca:	89 45 f4             	mov    DWORD PTR [ebp-0xc],eax
  104acd:	8b 45 08             	mov    eax,DWORD PTR [ebp+0x8]
  104ad0:	89 45 f0             	mov    DWORD PTR [ebp-0x10],eax
  104ad3:	8b 45 f8             	mov    eax,DWORD PTR [ebp-0x8]
  104ad6:	8d 14 85 00 00 00 00 	lea    edx,[eax*4+0x0]
  104add:	8b 45 08             	mov    eax,DWORD PTR [ebp+0x8]
  104ae0:	01 d0                	add    eax,edx
  104ae2:	89 45 ec             	mov    DWORD PTR [ebp-0x14],eax
  104ae5:	8b 45 0c             	mov    eax,DWORD PTR [ebp+0xc]
  104ae8:	88 45 eb             	mov    BYTE PTR [ebp-0x15],al
  104aeb:	8b 45 0c             	mov    eax,DWORD PTR [ebp+0xc]
  104aee:	c1 e0 08             	shl    eax,0x8
  104af1:	0b 45 0c             	or     eax,DWORD PTR [ebp+0xc]
  104af4:	8b 55 0c             	mov    edx,DWORD PTR [ebp+0xc]
  104af7:	c1 e2 10             	shl    edx,0x10
  104afa:	09 c2                	or     edx,eax
  104afc:	8b 45 0c             	mov    eax,DWORD PTR [ebp+0xc]
  104aff:	c1 e0 18             	shl    eax,0x18
  104b02:	09 d0                	or     eax,edx
  104b04:	89 45 e4             	mov    DWORD PTR [ebp-0x1c],eax
  104b07:	c7 45 fc 00 00 00 00 	mov    DWORD PTR [ebp-0x4],0x0
  104b0e:	eb 18                	jmp    104b28 <memset+0x73>
  104b10:	8b 45 fc             	mov    eax,DWORD PTR [ebp-0x4]
  104b13:	8d 14 85 00 00 00 00 	lea    edx,[eax*4+0x0]
  104b1a:	8b 45 f0             	mov    eax,DWORD PTR [ebp-0x10]
  104b1d:	01 c2                	add    edx,eax
  104b1f:	8b 45 e4             	mov    eax,DWORD PTR [ebp-0x1c]
  104b22:	89 02                	mov    DWORD PTR [edx],eax
  104b24:	83 45 fc 01          	add    DWORD PTR [ebp-0x4],0x1
  104b28:	8b 45 fc             	mov    eax,DWORD PTR [ebp-0x4]
  104b2b:	3b 45 f8             	cmp    eax,DWORD PTR [ebp-0x8]
  104b2e:	72 e0                	jb     104b10 <memset+0x5b>
  104b30:	c7 45 fc 00 00 00 00 	mov    DWORD PTR [ebp-0x4],0x0
  104b37:	eb 12                	jmp    104b4b <memset+0x96>
  104b39:	8b 55 ec             	mov    edx,DWORD PTR [ebp-0x14]
  104b3c:	8b 45 fc             	mov    eax,DWORD PTR [ebp-0x4]
  104b3f:	01 c2                	add    edx,eax
  104b41:	0f b6 45 eb          	movzx  eax,BYTE PTR [ebp-0x15]
  104b45:	88 02                	mov    BYTE PTR [edx],al
  104b47:	83 45 fc 01          	add    DWORD PTR [ebp-0x4],0x1
  104b4b:	8b 45 fc             	mov    eax,DWORD PTR [ebp-0x4]
  104b4e:	3b 45 f4             	cmp    eax,DWORD PTR [ebp-0xc]
  104b51:	72 e6                	jb     104b39 <memset+0x84>
  104b53:	8b 45 08             	mov    eax,DWORD PTR [ebp+0x8]
  104b56:	c9                   	leave  
  104b57:	c3                   	ret    

00104b58 <memsetl>:
  104b58:	55                   	push   ebp
  104b59:	89 e5                	mov    ebp,esp
  104b5b:	57                   	push   edi
  104b5c:	83 ec 10             	sub    esp,0x10
  104b5f:	8b 45 10             	mov    eax,DWORD PTR [ebp+0x10]
  104b62:	c1 e8 02             	shr    eax,0x2
  104b65:	89 45 f8             	mov    DWORD PTR [ebp-0x8],eax
  104b68:	8b 45 0c             	mov    eax,DWORD PTR [ebp+0xc]
  104b6b:	8b 4d f8             	mov    ecx,DWORD PTR [ebp-0x8]
  104b6e:	8b 55 08             	mov    edx,DWORD PTR [ebp+0x8]
  104b71:	89 d7                	mov    edi,edx
  104b73:	fc                   	cld    
  104b74:	f3 ab                	rep stos DWORD PTR es:[edi],eax
  104b76:	89 fa                	mov    edx,edi
  104b78:	89 4d f8             	mov    DWORD PTR [ebp-0x8],ecx
  104b7b:	89 55 08             	mov    DWORD PTR [ebp+0x8],edx
  104b7e:	8b 45 08             	mov    eax,DWORD PTR [ebp+0x8]
  104b81:	83 c4 10             	add    esp,0x10
  104b84:	5f                   	pop    edi
  104b85:	5d                   	pop    ebp
  104b86:	c3                   	ret    

00104b87 <malloc>:
  104b87:	55                   	push   ebp
  104b88:	89 e5                	mov    ebp,esp
  104b8a:	83 ec 08             	sub    esp,0x8
  104b8d:	83 ec 04             	sub    esp,0x4
  104b90:	6a 01                	push   0x1
  104b92:	6a 00                	push   0x0
  104b94:	ff 75 08             	push   DWORD PTR [ebp+0x8]
  104b97:	e8 59 f0 ff ff       	call   103bf5 <mm_allocate>
  104b9c:	83 c4 10             	add    esp,0x10
  104b9f:	c9                   	leave  
  104ba0:	c3                   	ret    

00104ba1 <tmalloc>:
  104ba1:	55                   	push   ebp
  104ba2:	89 e5                	mov    ebp,esp
  104ba4:	83 ec 18             	sub    esp,0x18
  104ba7:	8b 45 0c             	mov    eax,DWORD PTR [ebp+0xc]
  104baa:	88 45 f4             	mov    BYTE PTR [ebp-0xc],al
  104bad:	0f b6 45 f4          	movzx  eax,BYTE PTR [ebp-0xc]
  104bb1:	83 ec 04             	sub    esp,0x4
  104bb4:	50                   	push   eax
  104bb5:	6a 00                	push   0x0
  104bb7:	ff 75 08             	push   DWORD PTR [ebp+0x8]
  104bba:	e8 36 f0 ff ff       	call   103bf5 <mm_allocate>
  104bbf:	83 c4 10             	add    esp,0x10
  104bc2:	c9                   	leave  
  104bc3:	c3                   	ret    

00104bc4 <calloc>:
  104bc4:	55                   	push   ebp
  104bc5:	89 e5                	mov    ebp,esp
  104bc7:	83 ec 08             	sub    esp,0x8
  104bca:	83 ec 04             	sub    esp,0x4
  104bcd:	6a 01                	push   0x1
  104bcf:	6a 01                	push   0x1
  104bd1:	ff 75 08             	push   DWORD PTR [ebp+0x8]
  104bd4:	e8 1c f0 ff ff       	call   103bf5 <mm_allocate>
  104bd9:	83 c4 10             	add    esp,0x10
  104bdc:	c9                   	leave  
  104bdd:	c3                   	ret    

00104bde <tcalloc>:
  104bde:	55                   	push   ebp
  104bdf:	89 e5                	mov    ebp,esp
  104be1:	83 ec 18             	sub    esp,0x18
  104be4:	8b 45 0c             	mov    eax,DWORD PTR [ebp+0xc]
  104be7:	88 45 f4             	mov    BYTE PTR [ebp-0xc],al
  104bea:	0f b6 45 f4          	movzx  eax,BYTE PTR [ebp-0xc]
  104bee:	83 ec 04             	sub    esp,0x4
  104bf1:	50                   	push   eax
  104bf2:	6a 01                	push   0x1
  104bf4:	ff 75 08             	push   DWORD PTR [ebp+0x8]
  104bf7:	e8 f9 ef ff ff       	call   103bf5 <mm_allocate>
  104bfc:	83 c4 10             	add    esp,0x10
  104bff:	c9                   	leave  
  104c00:	c3                   	ret    

00104c01 <realloc>:
  104c01:	55                   	push   ebp
  104c02:	89 e5                	mov    ebp,esp
  104c04:	b8 00 00 00 00       	mov    eax,0x0
  104c09:	5d                   	pop    ebp
  104c0a:	c3                   	ret    

00104c0b <free>:
  104c0b:	55                   	push   ebp
  104c0c:	89 e5                	mov    ebp,esp
  104c0e:	83 ec 08             	sub    esp,0x8
  104c11:	83 ec 0c             	sub    esp,0xc
  104c14:	ff 75 08             	push   DWORD PTR [ebp+0x8]
  104c17:	e8 96 f0 ff ff       	call   103cb2 <mm_free>
  104c1c:	83 c4 10             	add    esp,0x10
  104c1f:	90                   	nop
  104c20:	c9                   	leave  
  104c21:	c3                   	ret    

00104c22 <freearray>:
  104c22:	55                   	push   ebp
  104c23:	89 e5                	mov    ebp,esp
  104c25:	83 ec 18             	sub    esp,0x18
  104c28:	c7 45 f4 00 00 00 00 	mov    DWORD PTR [ebp-0xc],0x0
  104c2f:	eb 36                	jmp    104c67 <freearray+0x45>
  104c31:	8b 45 f4             	mov    eax,DWORD PTR [ebp-0xc]
  104c34:	8d 14 85 00 00 00 00 	lea    edx,[eax*4+0x0]
  104c3b:	8b 45 08             	mov    eax,DWORD PTR [ebp+0x8]
  104c3e:	01 d0                	add    eax,edx
  104c40:	8b 00                	mov    eax,DWORD PTR [eax]
  104c42:	85 c0                	test   eax,eax
  104c44:	74 1d                	je     104c63 <freearray+0x41>
  104c46:	8b 45 f4             	mov    eax,DWORD PTR [ebp-0xc]
  104c49:	8d 14 85 00 00 00 00 	lea    edx,[eax*4+0x0]
  104c50:	8b 45 08             	mov    eax,DWORD PTR [ebp+0x8]
  104c53:	01 d0                	add    eax,edx
  104c55:	8b 00                	mov    eax,DWORD PTR [eax]
  104c57:	83 ec 0c             	sub    esp,0xc
  104c5a:	50                   	push   eax
  104c5b:	e8 52 f0 ff ff       	call   103cb2 <mm_free>
  104c60:	83 c4 10             	add    esp,0x10
  104c63:	83 45 f4 01          	add    DWORD PTR [ebp-0xc],0x1
  104c67:	8b 45 f4             	mov    eax,DWORD PTR [ebp-0xc]
  104c6a:	3b 45 0c             	cmp    eax,DWORD PTR [ebp+0xc]
  104c6d:	72 c2                	jb     104c31 <freearray+0xf>
  104c6f:	83 ec 0c             	sub    esp,0xc
  104c72:	ff 75 08             	push   DWORD PTR [ebp+0x8]
  104c75:	e8 38 f0 ff ff       	call   103cb2 <mm_free>
  104c7a:	83 c4 10             	add    esp,0x10
  104c7d:	90                   	nop
  104c7e:	c9                   	leave  
  104c7f:	c3                   	ret    

00104c80 <mboot_read>:
  104c80:	55                   	push   ebp
  104c81:	89 e5                	mov    ebp,esp
  104c83:	83 ec 68             	sub    esp,0x68
  104c86:	e8 12 e5 ff ff       	call   10319d <kernel_mboot_address_start>
  104c8b:	83 ec 04             	sub    esp,0x4
  104c8e:	6a 60                	push   0x60
  104c90:	50                   	push   eax
  104c91:	68 80 8d 51 00       	push   0x518d80
  104c96:	e8 db fd ff ff       	call   104a76 <memcpy>
  104c9b:	83 c4 10             	add    esp,0x10
  104c9e:	8d 45 98             	lea    eax,[ebp-0x68]
  104ca1:	83 ec 0c             	sub    esp,0xc
  104ca4:	50                   	push   eax
  104ca5:	e8 1a 00 00 00       	call   104cc4 <mboot_get>
  104caa:	83 c4 0c             	add    esp,0xc
  104cad:	8b 45 d8             	mov    eax,DWORD PTR [ebp-0x28]
  104cb0:	83 ec 08             	sub    esp,0x8
  104cb3:	50                   	push   eax
  104cb4:	68 08 28 11 00       	push   0x112808
  104cb9:	e8 9a ca ff ff       	call   101758 <debug_ok>
  104cbe:	83 c4 10             	add    esp,0x10
  104cc1:	90                   	nop
  104cc2:	c9                   	leave  
  104cc3:	c3                   	ret    

00104cc4 <mboot_get>:
  104cc4:	55                   	push   ebp
  104cc5:	89 e5                	mov    ebp,esp
  104cc7:	57                   	push   edi
  104cc8:	56                   	push   esi
  104cc9:	53                   	push   ebx
  104cca:	8b 45 08             	mov    eax,DWORD PTR [ebp+0x8]
  104ccd:	bb 80 8d 51 00       	mov    ebx,0x518d80
  104cd2:	ba 60 00 00 00       	mov    edx,0x60
  104cd7:	8b 0b                	mov    ecx,DWORD PTR [ebx]
  104cd9:	89 08                	mov    DWORD PTR [eax],ecx
  104cdb:	8b 4c 13 fc          	mov    ecx,DWORD PTR [ebx+edx*1-0x4]
  104cdf:	89 4c 10 fc          	mov    DWORD PTR [eax+edx*1-0x4],ecx
  104ce3:	8d 78 04             	lea    edi,[eax+0x4]
  104ce6:	83 e7 fc             	and    edi,0xfffffffc
  104ce9:	29 f8                	sub    eax,edi
  104ceb:	29 c3                	sub    ebx,eax
  104ced:	01 c2                	add    edx,eax
  104cef:	83 e2 fc             	and    edx,0xfffffffc
  104cf2:	89 d0                	mov    eax,edx
  104cf4:	c1 e8 02             	shr    eax,0x2
  104cf7:	89 de                	mov    esi,ebx
  104cf9:	89 c1                	mov    ecx,eax
  104cfb:	f3 a5                	rep movs DWORD PTR es:[edi],DWORD PTR ds:[esi]
  104cfd:	8b 45 08             	mov    eax,DWORD PTR [ebp+0x8]
  104d00:	5b                   	pop    ebx
  104d01:	5e                   	pop    esi
  104d02:	5f                   	pop    edi
  104d03:	5d                   	pop    ebp
  104d04:	c2 04 00             	ret    0x4

00104d07 <pic_wait>:
  104d07:	55                   	push   ebp
  104d08:	89 e5                	mov    ebp,esp
  104d0a:	83 ec 10             	sub    esp,0x10
  104d0d:	c7 45 fc 00 00 00 00 	mov    DWORD PTR [ebp-0x4],0x0
  104d14:	eb 04                	jmp    104d1a <pic_wait+0x13>
  104d16:	83 45 fc 01          	add    DWORD PTR [ebp-0x4],0x1
  104d1a:	81 7d fc ff ff 0f 00 	cmp    DWORD PTR [ebp-0x4],0xfffff
  104d21:	76 f3                	jbe    104d16 <pic_wait+0xf>
  104d23:	90                   	nop
  104d24:	c9                   	leave  
  104d25:	c3                   	ret    

00104d26 <pic_init>:
  104d26:	55                   	push   ebp
  104d27:	89 e5                	mov    ebp,esp
  104d29:	83 ec 08             	sub    esp,0x8
  104d2c:	83 ec 08             	sub    esp,0x8
  104d2f:	6a 11                	push   0x11
  104d31:	6a 20                	push   0x20
  104d33:	e8 c9 02 00 00       	call   105001 <port_outb>
  104d38:	83 c4 10             	add    esp,0x10
  104d3b:	e8 c7 ff ff ff       	call   104d07 <pic_wait>
  104d40:	83 ec 08             	sub    esp,0x8
  104d43:	6a 11                	push   0x11
  104d45:	68 a0 00 00 00       	push   0xa0
  104d4a:	e8 b2 02 00 00       	call   105001 <port_outb>
  104d4f:	83 c4 10             	add    esp,0x10
  104d52:	e8 b0 ff ff ff       	call   104d07 <pic_wait>
  104d57:	83 ec 08             	sub    esp,0x8
  104d5a:	6a 20                	push   0x20
  104d5c:	6a 21                	push   0x21
  104d5e:	e8 9e 02 00 00       	call   105001 <port_outb>
  104d63:	83 c4 10             	add    esp,0x10
  104d66:	e8 9c ff ff ff       	call   104d07 <pic_wait>
  104d6b:	83 ec 08             	sub    esp,0x8
  104d6e:	6a 28                	push   0x28
  104d70:	68 a1 00 00 00       	push   0xa1
  104d75:	e8 87 02 00 00       	call   105001 <port_outb>
  104d7a:	83 c4 10             	add    esp,0x10
  104d7d:	e8 85 ff ff ff       	call   104d07 <pic_wait>
  104d82:	83 ec 08             	sub    esp,0x8
  104d85:	6a 04                	push   0x4
  104d87:	6a 21                	push   0x21
  104d89:	e8 73 02 00 00       	call   105001 <port_outb>
  104d8e:	83 c4 10             	add    esp,0x10
  104d91:	e8 71 ff ff ff       	call   104d07 <pic_wait>
  104d96:	83 ec 08             	sub    esp,0x8
  104d99:	6a 02                	push   0x2
  104d9b:	68 a1 00 00 00       	push   0xa1
  104da0:	e8 5c 02 00 00       	call   105001 <port_outb>
  104da5:	83 c4 10             	add    esp,0x10
  104da8:	e8 5a ff ff ff       	call   104d07 <pic_wait>
  104dad:	83 ec 08             	sub    esp,0x8
  104db0:	6a 01                	push   0x1
  104db2:	6a 21                	push   0x21
  104db4:	e8 48 02 00 00       	call   105001 <port_outb>
  104db9:	83 c4 10             	add    esp,0x10
  104dbc:	e8 46 ff ff ff       	call   104d07 <pic_wait>
  104dc1:	83 ec 08             	sub    esp,0x8
  104dc4:	6a 01                	push   0x1
  104dc6:	68 a1 00 00 00       	push   0xa1
  104dcb:	e8 31 02 00 00       	call   105001 <port_outb>
  104dd0:	83 c4 10             	add    esp,0x10
  104dd3:	e8 2f ff ff ff       	call   104d07 <pic_wait>
  104dd8:	83 ec 08             	sub    esp,0x8
  104ddb:	6a 00                	push   0x0
  104ddd:	6a 21                	push   0x21
  104ddf:	e8 1d 02 00 00       	call   105001 <port_outb>
  104de4:	83 c4 10             	add    esp,0x10
  104de7:	e8 1b ff ff ff       	call   104d07 <pic_wait>
  104dec:	83 ec 08             	sub    esp,0x8
  104def:	6a 00                	push   0x0
  104df1:	68 a1 00 00 00       	push   0xa1
  104df6:	e8 06 02 00 00       	call   105001 <port_outb>
  104dfb:	83 c4 10             	add    esp,0x10
  104dfe:	e8 04 ff ff ff       	call   104d07 <pic_wait>
  104e03:	90                   	nop
  104e04:	c9                   	leave  
  104e05:	c3                   	ret    

00104e06 <pit_init>:
  104e06:	55                   	push   ebp
  104e07:	89 e5                	mov    ebp,esp
  104e09:	83 ec 18             	sub    esp,0x18
  104e0c:	83 7d 08 00          	cmp    DWORD PTR [ebp+0x8],0x0
  104e10:	75 05                	jne    104e17 <pit_init+0x11>
  104e12:	e8 88 00 00 00       	call   104e9f <pit_disable>
  104e17:	81 7d 08 88 13 00 00 	cmp    DWORD PTR [ebp+0x8],0x1388
  104e1e:	76 07                	jbe    104e27 <pit_init+0x21>
  104e20:	c7 45 08 88 13 00 00 	mov    DWORD PTR [ebp+0x8],0x1388
  104e27:	8b 45 08             	mov    eax,DWORD PTR [ebp+0x8]
  104e2a:	a3 e0 8d 51 00       	mov    ds:0x518de0,eax
  104e2f:	8b 0d e0 8d 51 00    	mov    ecx,DWORD PTR ds:0x518de0
  104e35:	b8 dc 34 12 00       	mov    eax,0x1234dc
  104e3a:	ba 00 00 00 00       	mov    edx,0x0
  104e3f:	f7 f1                	div    ecx
  104e41:	89 45 f4             	mov    DWORD PTR [ebp-0xc],eax
  104e44:	8b 45 f4             	mov    eax,DWORD PTR [ebp-0xc]
  104e47:	c1 e8 08             	shr    eax,0x8
  104e4a:	88 45 f3             	mov    BYTE PTR [ebp-0xd],al
  104e4d:	8b 45 f4             	mov    eax,DWORD PTR [ebp-0xc]
  104e50:	88 45 f2             	mov    BYTE PTR [ebp-0xe],al
  104e53:	83 ec 08             	sub    esp,0x8
  104e56:	6a 36                	push   0x36
  104e58:	6a 43                	push   0x43
  104e5a:	e8 a2 01 00 00       	call   105001 <port_outb>
  104e5f:	83 c4 10             	add    esp,0x10
  104e62:	0f b6 45 f2          	movzx  eax,BYTE PTR [ebp-0xe]
  104e66:	83 ec 08             	sub    esp,0x8
  104e69:	50                   	push   eax
  104e6a:	6a 40                	push   0x40
  104e6c:	e8 90 01 00 00       	call   105001 <port_outb>
  104e71:	83 c4 10             	add    esp,0x10
  104e74:	0f b6 45 f3          	movzx  eax,BYTE PTR [ebp-0xd]
  104e78:	83 ec 08             	sub    esp,0x8
  104e7b:	50                   	push   eax
  104e7c:	6a 40                	push   0x40
  104e7e:	e8 7e 01 00 00       	call   105001 <port_outb>
  104e83:	83 c4 10             	add    esp,0x10
  104e86:	a1 e0 8d 51 00       	mov    eax,ds:0x518de0
  104e8b:	83 ec 08             	sub    esp,0x8
  104e8e:	50                   	push   eax
  104e8f:	68 68 2c 11 00       	push   0x112c68
  104e94:	e8 bf c8 ff ff       	call   101758 <debug_ok>
  104e99:	83 c4 10             	add    esp,0x10
  104e9c:	90                   	nop
  104e9d:	c9                   	leave  
  104e9e:	c3                   	ret    

00104e9f <pit_disable>:
  104e9f:	55                   	push   ebp
  104ea0:	89 e5                	mov    ebp,esp
  104ea2:	90                   	nop
  104ea3:	5d                   	pop    ebp
  104ea4:	c3                   	ret    

00104ea5 <pit_calculate>:
  104ea5:	55                   	push   ebp
  104ea6:	89 e5                	mov    ebp,esp
  104ea8:	a1 e8 8d 51 00       	mov    eax,ds:0x518de8
  104ead:	8b 15 ec 8d 51 00    	mov    edx,DWORD PTR ds:0x518dec
  104eb3:	83 c0 01             	add    eax,0x1
  104eb6:	83 d2 00             	adc    edx,0x0
  104eb9:	a3 e8 8d 51 00       	mov    ds:0x518de8,eax
  104ebe:	89 15 ec 8d 51 00    	mov    DWORD PTR ds:0x518dec,edx
  104ec4:	a1 f0 8d 51 00       	mov    eax,ds:0x518df0
  104ec9:	83 c0 01             	add    eax,0x1
  104ecc:	a3 f0 8d 51 00       	mov    ds:0x518df0,eax
  104ed1:	a1 e0 8d 51 00       	mov    eax,ds:0x518de0
  104ed6:	ba d3 4d 62 10       	mov    edx,0x10624dd3
  104edb:	f7 e2                	mul    edx
  104edd:	c1 ea 06             	shr    edx,0x6
  104ee0:	a1 f0 8d 51 00       	mov    eax,ds:0x518df0
  104ee5:	39 c2                	cmp    edx,eax
  104ee7:	77 24                	ja     104f0d <pit_calculate+0x68>
  104ee9:	a1 f8 8d 51 00       	mov    eax,ds:0x518df8
  104eee:	83 c0 01             	add    eax,0x1
  104ef1:	a3 f8 8d 51 00       	mov    ds:0x518df8,eax
  104ef6:	a1 f4 8d 51 00       	mov    eax,ds:0x518df4
  104efb:	83 c0 01             	add    eax,0x1
  104efe:	a3 f4 8d 51 00       	mov    ds:0x518df4,eax
  104f03:	c7 05 f0 8d 51 00 00 00 00 00 	mov    DWORD PTR ds:0x518df0,0x0
  104f0d:	a1 f8 8d 51 00       	mov    eax,ds:0x518df8
  104f12:	3d e8 03 00 00       	cmp    eax,0x3e8
  104f17:	76 21                	jbe    104f3a <pit_calculate+0x95>
  104f19:	a1 e4 8d 51 00       	mov    eax,ds:0x518de4
  104f1e:	83 c0 01             	add    eax,0x1
  104f21:	a3 e4 8d 51 00       	mov    ds:0x518de4,eax
  104f26:	c7 05 f8 8d 51 00 00 00 00 00 	mov    DWORD PTR ds:0x518df8,0x0
  104f30:	c7 05 f0 8d 51 00 00 00 00 00 	mov    DWORD PTR ds:0x518df0,0x0
  104f3a:	90                   	nop
  104f3b:	5d                   	pop    ebp
  104f3c:	c3                   	ret    

00104f3d <pit_get_freq>:
  104f3d:	55                   	push   ebp
  104f3e:	89 e5                	mov    ebp,esp
  104f40:	a1 e0 8d 51 00       	mov    eax,ds:0x518de0
  104f45:	5d                   	pop    ebp
  104f46:	c3                   	ret    

00104f47 <pit_get_seconds_total>:
  104f47:	55                   	push   ebp
  104f48:	89 e5                	mov    ebp,esp
  104f4a:	a1 e4 8d 51 00       	mov    eax,ds:0x518de4
  104f4f:	5d                   	pop    ebp
  104f50:	c3                   	ret    

00104f51 <pit_get_millis>:
  104f51:	55                   	push   ebp
  104f52:	89 e5                	mov    ebp,esp
  104f54:	a1 f8 8d 51 00       	mov    eax,ds:0x518df8
  104f59:	5d                   	pop    ebp
  104f5a:	c3                   	ret    

00104f5b <pit_get_millis_total>:
  104f5b:	55                   	push   ebp
  104f5c:	89 e5                	mov    ebp,esp
  104f5e:	a1 f4 8d 51 00       	mov    eax,ds:0x518df4
  104f63:	5d                   	pop    ebp
  104f64:	c3                   	ret    

00104f65 <pit_get_ticks>:
  104f65:	55                   	push   ebp
  104f66:	89 e5                	mov    ebp,esp
  104f68:	a1 e8 8d 51 00       	mov    eax,ds:0x518de8
  104f6d:	8b 15 ec 8d 51 00    	mov    edx,DWORD PTR ds:0x518dec
  104f73:	5d                   	pop    ebp
  104f74:	c3                   	ret    

00104f75 <port_inb>:
  104f75:	55                   	push   ebp
  104f76:	89 e5                	mov    ebp,esp
  104f78:	83 ec 14             	sub    esp,0x14
  104f7b:	8b 45 08             	mov    eax,DWORD PTR [ebp+0x8]
  104f7e:	66 89 45 ec          	mov    WORD PTR [ebp-0x14],ax
  104f82:	0f b7 45 ec          	movzx  eax,WORD PTR [ebp-0x14]
  104f86:	89 c2                	mov    edx,eax
  104f88:	ec                   	in     al,dx
  104f89:	88 45 ff             	mov    BYTE PTR [ebp-0x1],al
  104f8c:	0f b6 45 ff          	movzx  eax,BYTE PTR [ebp-0x1]
  104f90:	c9                   	leave  
  104f91:	c3                   	ret    

00104f92 <port_inw>:
  104f92:	55                   	push   ebp
  104f93:	89 e5                	mov    ebp,esp
  104f95:	83 ec 14             	sub    esp,0x14
  104f98:	8b 45 08             	mov    eax,DWORD PTR [ebp+0x8]
  104f9b:	66 89 45 ec          	mov    WORD PTR [ebp-0x14],ax
  104f9f:	0f b7 45 ec          	movzx  eax,WORD PTR [ebp-0x14]
  104fa3:	89 c2                	mov    edx,eax
  104fa5:	66 ed                	in     ax,dx
  104fa7:	66 89 45 fe          	mov    WORD PTR [ebp-0x2],ax
  104fab:	0f b7 45 fe          	movzx  eax,WORD PTR [ebp-0x2]
  104faf:	c9                   	leave  
  104fb0:	c3                   	ret    

00104fb1 <port_inl>:
  104fb1:	55                   	push   ebp
  104fb2:	89 e5                	mov    ebp,esp
  104fb4:	83 ec 14             	sub    esp,0x14
  104fb7:	8b 45 08             	mov    eax,DWORD PTR [ebp+0x8]
  104fba:	66 89 45 ec          	mov    WORD PTR [ebp-0x14],ax
  104fbe:	0f b7 45 ec          	movzx  eax,WORD PTR [ebp-0x14]
  104fc2:	89 c2                	mov    edx,eax
  104fc4:	ed                   	in     eax,dx
  104fc5:	89 45 fc             	mov    DWORD PTR [ebp-0x4],eax
  104fc8:	8b 45 fc             	mov    eax,DWORD PTR [ebp-0x4]
  104fcb:	c9                   	leave  
  104fcc:	c3                   	ret    

00104fcd <port_instr>:
  104fcd:	55                   	push   ebp
  104fce:	89 e5                	mov    ebp,esp
  104fd0:	57                   	push   edi
  104fd1:	53                   	push   ebx
  104fd2:	83 ec 04             	sub    esp,0x4
  104fd5:	8b 45 08             	mov    eax,DWORD PTR [ebp+0x8]
  104fd8:	66 89 45 f4          	mov    WORD PTR [ebp-0xc],ax
  104fdc:	0f b7 55 f4          	movzx  edx,WORD PTR [ebp-0xc]
  104fe0:	8b 4d 0c             	mov    ecx,DWORD PTR [ebp+0xc]
  104fe3:	8b 45 10             	mov    eax,DWORD PTR [ebp+0x10]
  104fe6:	89 cb                	mov    ebx,ecx
  104fe8:	89 df                	mov    edi,ebx
  104fea:	89 c1                	mov    ecx,eax
  104fec:	66 f3 6d             	rep ins WORD PTR es:[edi],dx
  104fef:	89 c8                	mov    eax,ecx
  104ff1:	89 fb                	mov    ebx,edi
  104ff3:	89 5d 0c             	mov    DWORD PTR [ebp+0xc],ebx
  104ff6:	89 45 10             	mov    DWORD PTR [ebp+0x10],eax
  104ff9:	90                   	nop
  104ffa:	83 c4 04             	add    esp,0x4
  104ffd:	5b                   	pop    ebx
  104ffe:	5f                   	pop    edi
  104fff:	5d                   	pop    ebp
  105000:	c3                   	ret    

00105001 <port_outb>:
  105001:	55                   	push   ebp
  105002:	89 e5                	mov    ebp,esp
  105004:	83 ec 08             	sub    esp,0x8
  105007:	8b 55 08             	mov    edx,DWORD PTR [ebp+0x8]
  10500a:	8b 45 0c             	mov    eax,DWORD PTR [ebp+0xc]
  10500d:	66 89 55 fc          	mov    WORD PTR [ebp-0x4],dx
  105011:	88 45 f8             	mov    BYTE PTR [ebp-0x8],al
  105014:	0f b6 45 f8          	movzx  eax,BYTE PTR [ebp-0x8]
  105018:	0f b7 55 fc          	movzx  edx,WORD PTR [ebp-0x4]
  10501c:	ee                   	out    dx,al
  10501d:	90                   	nop
  10501e:	c9                   	leave  
  10501f:	c3                   	ret    

00105020 <port_outw>:
  105020:	55                   	push   ebp
  105021:	89 e5                	mov    ebp,esp
  105023:	83 ec 08             	sub    esp,0x8
  105026:	8b 55 08             	mov    edx,DWORD PTR [ebp+0x8]
  105029:	8b 45 0c             	mov    eax,DWORD PTR [ebp+0xc]
  10502c:	66 89 55 fc          	mov    WORD PTR [ebp-0x4],dx
  105030:	66 89 45 f8          	mov    WORD PTR [ebp-0x8],ax
  105034:	0f b7 45 f8          	movzx  eax,WORD PTR [ebp-0x8]
  105038:	0f b7 55 fc          	movzx  edx,WORD PTR [ebp-0x4]
  10503c:	66 ef                	out    dx,ax
  10503e:	90                   	nop
  10503f:	c9                   	leave  
  105040:	c3                   	ret    

00105041 <port_outl>:
  105041:	55                   	push   ebp
  105042:	89 e5                	mov    ebp,esp
  105044:	83 ec 04             	sub    esp,0x4
  105047:	8b 45 08             	mov    eax,DWORD PTR [ebp+0x8]
  10504a:	66 89 45 fc          	mov    WORD PTR [ebp-0x4],ax
  10504e:	0f b7 55 fc          	movzx  edx,WORD PTR [ebp-0x4]
  105052:	8b 45 0c             	mov    eax,DWORD PTR [ebp+0xc]
  105055:	ef                   	out    dx,eax
  105056:	90                   	nop
  105057:	c9                   	leave  
  105058:	c3                   	ret    

00105059 <port_outstr>:
  105059:	55                   	push   ebp
  10505a:	89 e5                	mov    ebp,esp
  10505c:	56                   	push   esi
  10505d:	53                   	push   ebx
  10505e:	83 ec 04             	sub    esp,0x4
  105061:	8b 45 08             	mov    eax,DWORD PTR [ebp+0x8]
  105064:	66 89 45 f4          	mov    WORD PTR [ebp-0xc],ax
  105068:	0f b7 55 f4          	movzx  edx,WORD PTR [ebp-0xc]
  10506c:	8b 4d 0c             	mov    ecx,DWORD PTR [ebp+0xc]
  10506f:	8b 45 10             	mov    eax,DWORD PTR [ebp+0x10]
  105072:	89 cb                	mov    ebx,ecx
  105074:	89 de                	mov    esi,ebx
  105076:	89 c1                	mov    ecx,eax
  105078:	66 f3 6f             	rep outs dx,WORD PTR ds:[esi]
  10507b:	89 c8                	mov    eax,ecx
  10507d:	89 f3                	mov    ebx,esi
  10507f:	89 5d 0c             	mov    DWORD PTR [ebp+0xc],ebx
  105082:	89 45 10             	mov    DWORD PTR [ebp+0x10],eax
  105085:	90                   	nop
  105086:	83 c4 04             	add    esp,0x4
  105089:	5b                   	pop    ebx
  10508a:	5e                   	pop    esi
  10508b:	5d                   	pop    ebp
  10508c:	c3                   	ret    

0010508d <cli>:
  10508d:	55                   	push   ebp
  10508e:	89 e5                	mov    ebp,esp
  105090:	fa                   	cli    
  105091:	90                   	nop
  105092:	5d                   	pop    ebp
  105093:	c3                   	ret    

00105094 <sti>:
  105094:	55                   	push   ebp
  105095:	89 e5                	mov    ebp,esp
  105097:	fb                   	sti    
  105098:	90                   	nop
  105099:	5d                   	pop    ebp
  10509a:	c3                   	ret    

0010509b <rtc_callback>:
  10509b:	55                   	push   ebp
  10509c:	89 e5                	mov    ebp,esp
  10509e:	83 ec 08             	sub    esp,0x8
  1050a1:	e8 e9 00 00 00       	call   10518f <rtc_update>
  1050a6:	83 ec 08             	sub    esp,0x8
  1050a9:	6a 0c                	push   0xc
  1050ab:	6a 70                	push   0x70
  1050ad:	e8 4f ff ff ff       	call   105001 <port_outb>
  1050b2:	83 c4 10             	add    esp,0x10
  1050b5:	83 ec 0c             	sub    esp,0xc
  1050b8:	6a 71                	push   0x71
  1050ba:	e8 b6 fe ff ff       	call   104f75 <port_inb>
  1050bf:	83 c4 10             	add    esp,0x10
  1050c2:	90                   	nop
  1050c3:	c9                   	leave  
  1050c4:	c3                   	ret    

001050c5 <rtc_init>:
  1050c5:	55                   	push   ebp
  1050c6:	89 e5                	mov    ebp,esp
  1050c8:	83 ec 18             	sub    esp,0x18
  1050cb:	c7 05 04 8e 51 00 00 00 00 00 	mov    DWORD PTR ds:0x518e04,0x0
  1050d5:	c7 05 80 da 10 00 00 04 00 00 	mov    DWORD PTR ds:0x10da80,0x400
  1050df:	83 ec 04             	sub    esp,0x4
  1050e2:	6a 08                	push   0x8
  1050e4:	6a 00                	push   0x0
  1050e6:	68 fc 8d 51 00       	push   0x518dfc
  1050eb:	e8 c5 f9 ff ff       	call   104ab5 <memset>
  1050f0:	83 c4 10             	add    esp,0x10
  1050f3:	e8 95 ff ff ff       	call   10508d <cli>
  1050f8:	83 ec 08             	sub    esp,0x8
  1050fb:	68 8b 00 00 00       	push   0x8b
  105100:	6a 70                	push   0x70
  105102:	e8 fa fe ff ff       	call   105001 <port_outb>
  105107:	83 c4 10             	add    esp,0x10
  10510a:	83 ec 0c             	sub    esp,0xc
  10510d:	6a 71                	push   0x71
  10510f:	e8 61 fe ff ff       	call   104f75 <port_inb>
  105114:	83 c4 10             	add    esp,0x10
  105117:	88 45 f7             	mov    BYTE PTR [ebp-0x9],al
  10511a:	83 ec 08             	sub    esp,0x8
  10511d:	68 8b 00 00 00       	push   0x8b
  105122:	6a 70                	push   0x70
  105124:	e8 d8 fe ff ff       	call   105001 <port_outb>
  105129:	83 c4 10             	add    esp,0x10
  10512c:	0f b6 45 f7          	movzx  eax,BYTE PTR [ebp-0x9]
  105130:	83 c8 40             	or     eax,0x40
  105133:	0f b6 c0             	movzx  eax,al
  105136:	83 ec 08             	sub    esp,0x8
  105139:	50                   	push   eax
  10513a:	6a 71                	push   0x71
  10513c:	e8 c0 fe ff ff       	call   105001 <port_outb>
  105141:	83 c4 10             	add    esp,0x10
  105144:	83 ec 08             	sub    esp,0x8
  105147:	6a 0c                	push   0xc
  105149:	6a 70                	push   0x70
  10514b:	e8 b1 fe ff ff       	call   105001 <port_outb>
  105150:	83 c4 10             	add    esp,0x10
  105153:	83 ec 0c             	sub    esp,0xc
  105156:	6a 71                	push   0x71
  105158:	e8 18 fe ff ff       	call   104f75 <port_inb>
  10515d:	83 c4 10             	add    esp,0x10
  105160:	83 ec 08             	sub    esp,0x8
  105163:	68 9b 50 10 00       	push   0x10509b
  105168:	6a 28                	push   0x28
  10516a:	e8 cf d9 ff ff       	call   102b3e <irq_register>
  10516f:	83 c4 10             	add    esp,0x10
  105172:	e8 1d ff ff ff       	call   105094 <sti>
  105177:	e8 4a 00 00 00       	call   1051c6 <rtc_read>
  10517c:	83 ec 0c             	sub    esp,0xc
  10517f:	68 48 35 11 00       	push   0x113548
  105184:	e8 cf c5 ff ff       	call   101758 <debug_ok>
  105189:	83 c4 10             	add    esp,0x10
  10518c:	90                   	nop
  10518d:	c9                   	leave  
  10518e:	c3                   	ret    

0010518f <rtc_update>:
  10518f:	55                   	push   ebp
  105190:	89 e5                	mov    ebp,esp
  105192:	83 ec 08             	sub    esp,0x8
  105195:	a1 04 8e 51 00       	mov    eax,ds:0x518e04
  10519a:	83 c0 01             	add    eax,0x1
  10519d:	a3 04 8e 51 00       	mov    ds:0x518e04,eax
  1051a2:	a1 80 da 10 00       	mov    eax,ds:0x10da80
  1051a7:	d1 e8                	shr    eax,1
  1051a9:	89 c2                	mov    edx,eax
  1051ab:	a1 04 8e 51 00       	mov    eax,ds:0x518e04
  1051b0:	39 c2                	cmp    edx,eax
  1051b2:	77 0f                	ja     1051c3 <rtc_update+0x34>
  1051b4:	e8 0d 00 00 00       	call   1051c6 <rtc_read>
  1051b9:	c7 05 04 8e 51 00 00 00 00 00 	mov    DWORD PTR ds:0x518e04,0x0
  1051c3:	90                   	nop
  1051c4:	c9                   	leave  
  1051c5:	c3                   	ret    

001051c6 <rtc_read>:
  1051c6:	55                   	push   ebp
  1051c7:	89 e5                	mov    ebp,esp
  1051c9:	83 ec 18             	sub    esp,0x18
  1051cc:	83 ec 0c             	sub    esp,0xc
  1051cf:	6a 00                	push   0x0
  1051d1:	e8 1a 02 00 00       	call   1053f0 <rtc_get_reg>
  1051d6:	83 c4 10             	add    esp,0x10
  1051d9:	a2 fd 8d 51 00       	mov    ds:0x518dfd,al
  1051de:	83 ec 0c             	sub    esp,0xc
  1051e1:	6a 02                	push   0x2
  1051e3:	e8 08 02 00 00       	call   1053f0 <rtc_get_reg>
  1051e8:	83 c4 10             	add    esp,0x10
  1051eb:	a2 fe 8d 51 00       	mov    ds:0x518dfe,al
  1051f0:	83 ec 0c             	sub    esp,0xc
  1051f3:	6a 04                	push   0x4
  1051f5:	e8 f6 01 00 00       	call   1053f0 <rtc_get_reg>
  1051fa:	83 c4 10             	add    esp,0x10
  1051fd:	a2 ff 8d 51 00       	mov    ds:0x518dff,al
  105202:	83 ec 0c             	sub    esp,0xc
  105205:	6a 07                	push   0x7
  105207:	e8 e4 01 00 00       	call   1053f0 <rtc_get_reg>
  10520c:	83 c4 10             	add    esp,0x10
  10520f:	a2 00 8e 51 00       	mov    ds:0x518e00,al
  105214:	83 ec 0c             	sub    esp,0xc
  105217:	6a 08                	push   0x8
  105219:	e8 d2 01 00 00       	call   1053f0 <rtc_get_reg>
  10521e:	83 c4 10             	add    esp,0x10
  105221:	a2 01 8e 51 00       	mov    ds:0x518e01,al
  105226:	83 ec 0c             	sub    esp,0xc
  105229:	6a 09                	push   0x9
  10522b:	e8 c0 01 00 00       	call   1053f0 <rtc_get_reg>
  105230:	83 c4 10             	add    esp,0x10
  105233:	0f b6 c0             	movzx  eax,al
  105236:	66 a3 02 8e 51 00    	mov    ds:0x518e02,ax
  10523c:	83 ec 0c             	sub    esp,0xc
  10523f:	6a 0b                	push   0xb
  105241:	e8 aa 01 00 00       	call   1053f0 <rtc_get_reg>
  105246:	83 c4 10             	add    esp,0x10
  105249:	88 45 f7             	mov    BYTE PTR [ebp-0x9],al
  10524c:	0f b6 45 f7          	movzx  eax,BYTE PTR [ebp-0x9]
  105250:	83 e0 04             	and    eax,0x4
  105253:	85 c0                	test   eax,eax
  105255:	0f 85 11 01 00 00    	jne    10536c <rtc_read+0x1a6>
  10525b:	0f b6 05 fd 8d 51 00 	movzx  eax,BYTE PTR ds:0x518dfd
  105262:	83 e0 0f             	and    eax,0xf
  105265:	89 c1                	mov    ecx,eax
  105267:	0f b6 05 fd 8d 51 00 	movzx  eax,BYTE PTR ds:0x518dfd
  10526e:	c0 e8 04             	shr    al,0x4
  105271:	89 c2                	mov    edx,eax
  105273:	89 d0                	mov    eax,edx
  105275:	c1 e0 02             	shl    eax,0x2
  105278:	01 d0                	add    eax,edx
  10527a:	01 c0                	add    eax,eax
  10527c:	01 c8                	add    eax,ecx
  10527e:	a2 fd 8d 51 00       	mov    ds:0x518dfd,al
  105283:	0f b6 05 fe 8d 51 00 	movzx  eax,BYTE PTR ds:0x518dfe
  10528a:	83 e0 0f             	and    eax,0xf
  10528d:	89 c1                	mov    ecx,eax
  10528f:	0f b6 05 fe 8d 51 00 	movzx  eax,BYTE PTR ds:0x518dfe
  105296:	c0 e8 04             	shr    al,0x4
  105299:	89 c2                	mov    edx,eax
  10529b:	89 d0                	mov    eax,edx
  10529d:	c1 e0 02             	shl    eax,0x2
  1052a0:	01 d0                	add    eax,edx
  1052a2:	01 c0                	add    eax,eax
  1052a4:	01 c8                	add    eax,ecx
  1052a6:	a2 fe 8d 51 00       	mov    ds:0x518dfe,al
  1052ab:	0f b6 05 ff 8d 51 00 	movzx  eax,BYTE PTR ds:0x518dff
  1052b2:	83 e0 0f             	and    eax,0xf
  1052b5:	89 c1                	mov    ecx,eax
  1052b7:	0f b6 05 ff 8d 51 00 	movzx  eax,BYTE PTR ds:0x518dff
  1052be:	c0 e8 04             	shr    al,0x4
  1052c1:	89 c2                	mov    edx,eax
  1052c3:	89 d0                	mov    eax,edx
  1052c5:	c1 e0 02             	shl    eax,0x2
  1052c8:	01 d0                	add    eax,edx
  1052ca:	01 c0                	add    eax,eax
  1052cc:	01 c8                	add    eax,ecx
  1052ce:	89 c2                	mov    edx,eax
  1052d0:	0f b6 05 ff 8d 51 00 	movzx  eax,BYTE PTR ds:0x518dff
  1052d7:	83 e0 80             	and    eax,0xffffff80
  1052da:	09 d0                	or     eax,edx
  1052dc:	a2 ff 8d 51 00       	mov    ds:0x518dff,al
  1052e1:	0f b6 05 00 8e 51 00 	movzx  eax,BYTE PTR ds:0x518e00
  1052e8:	83 e0 0f             	and    eax,0xf
  1052eb:	89 c1                	mov    ecx,eax
  1052ed:	0f b6 05 00 8e 51 00 	movzx  eax,BYTE PTR ds:0x518e00
  1052f4:	c0 e8 04             	shr    al,0x4
  1052f7:	89 c2                	mov    edx,eax
  1052f9:	89 d0                	mov    eax,edx
  1052fb:	c1 e0 02             	shl    eax,0x2
  1052fe:	01 d0                	add    eax,edx
  105300:	01 c0                	add    eax,eax
  105302:	01 c8                	add    eax,ecx
  105304:	a2 00 8e 51 00       	mov    ds:0x518e00,al
  105309:	0f b6 05 01 8e 51 00 	movzx  eax,BYTE PTR ds:0x518e01
  105310:	83 e0 0f             	and    eax,0xf
  105313:	89 c1                	mov    ecx,eax
  105315:	0f b6 05 01 8e 51 00 	movzx  eax,BYTE PTR ds:0x518e01
  10531c:	c0 e8 04             	shr    al,0x4
  10531f:	89 c2                	mov    edx,eax
  105321:	89 d0                	mov    eax,edx
  105323:	c1 e0 02             	shl    eax,0x2
  105326:	01 d0                	add    eax,edx
  105328:	01 c0                	add    eax,eax
  10532a:	01 c8                	add    eax,ecx
  10532c:	a2 01 8e 51 00       	mov    ds:0x518e01,al
  105331:	0f b7 05 02 8e 51 00 	movzx  eax,WORD PTR ds:0x518e02
  105338:	83 e0 0f             	and    eax,0xf
  10533b:	89 c1                	mov    ecx,eax
  10533d:	0f b7 05 02 8e 51 00 	movzx  eax,WORD PTR ds:0x518e02
  105344:	66 c1 e8 04          	shr    ax,0x4
  105348:	89 c2                	mov    edx,eax
  10534a:	89 d0                	mov    eax,edx
  10534c:	c1 e0 02             	shl    eax,0x2
  10534f:	01 d0                	add    eax,edx
  105351:	01 c0                	add    eax,eax
  105353:	01 c8                	add    eax,ecx
  105355:	66 a3 02 8e 51 00    	mov    ds:0x518e02,ax
  10535b:	0f b7 05 02 8e 51 00 	movzx  eax,WORD PTR ds:0x518e02
  105362:	66 05 d0 07          	add    ax,0x7d0
  105366:	66 a3 02 8e 51 00    	mov    ds:0x518e02,ax
  10536c:	90                   	nop
  10536d:	c9                   	leave  
  10536e:	c3                   	ret    

0010536f <rtc_get_time>:
  10536f:	55                   	push   ebp
  105370:	89 e5                	mov    ebp,esp
  105372:	83 ec 18             	sub    esp,0x18
  105375:	83 ec 04             	sub    esp,0x4
  105378:	6a 08                	push   0x8
  10537a:	68 fc 8d 51 00       	push   0x518dfc
  10537f:	8d 45 f0             	lea    eax,[ebp-0x10]
  105382:	50                   	push   eax
  105383:	e8 ee f6 ff ff       	call   104a76 <memcpy>
  105388:	83 c4 10             	add    esp,0x10
  10538b:	8b 4d 08             	mov    ecx,DWORD PTR [ebp+0x8]
  10538e:	8b 45 f0             	mov    eax,DWORD PTR [ebp-0x10]
  105391:	8b 55 f4             	mov    edx,DWORD PTR [ebp-0xc]
  105394:	89 01                	mov    DWORD PTR [ecx],eax
  105396:	89 51 04             	mov    DWORD PTR [ecx+0x4],edx
  105399:	8b 45 08             	mov    eax,DWORD PTR [ebp+0x8]
  10539c:	c9                   	leave  
  10539d:	c2 04 00             	ret    0x4

001053a0 <rtc_set_reg>:
  1053a0:	55                   	push   ebp
  1053a1:	89 e5                	mov    ebp,esp
  1053a3:	83 ec 18             	sub    esp,0x18
  1053a6:	8b 55 08             	mov    edx,DWORD PTR [ebp+0x8]
  1053a9:	8b 45 0c             	mov    eax,DWORD PTR [ebp+0xc]
  1053ac:	66 89 55 f4          	mov    WORD PTR [ebp-0xc],dx
  1053b0:	88 45 f0             	mov    BYTE PTR [ebp-0x10],al
  1053b3:	e8 73 00 00 00       	call   10542b <rtc_is_updating>
  1053b8:	84 c0                	test   al,al
  1053ba:	75 31                	jne    1053ed <rtc_set_reg+0x4d>
  1053bc:	e8 cc fc ff ff       	call   10508d <cli>
  1053c1:	0f b7 45 f4          	movzx  eax,WORD PTR [ebp-0xc]
  1053c5:	0f b6 c0             	movzx  eax,al
  1053c8:	83 ec 08             	sub    esp,0x8
  1053cb:	50                   	push   eax
  1053cc:	6a 70                	push   0x70
  1053ce:	e8 2e fc ff ff       	call   105001 <port_outb>
  1053d3:	83 c4 10             	add    esp,0x10
  1053d6:	0f b6 45 f0          	movzx  eax,BYTE PTR [ebp-0x10]
  1053da:	83 ec 08             	sub    esp,0x8
  1053dd:	50                   	push   eax
  1053de:	6a 71                	push   0x71
  1053e0:	e8 1c fc ff ff       	call   105001 <port_outb>
  1053e5:	83 c4 10             	add    esp,0x10
  1053e8:	e8 a7 fc ff ff       	call   105094 <sti>
  1053ed:	90                   	nop
  1053ee:	c9                   	leave  
  1053ef:	c3                   	ret    

001053f0 <rtc_get_reg>:
  1053f0:	55                   	push   ebp
  1053f1:	89 e5                	mov    ebp,esp
  1053f3:	83 ec 18             	sub    esp,0x18
  1053f6:	8b 45 08             	mov    eax,DWORD PTR [ebp+0x8]
  1053f9:	66 89 45 f4          	mov    WORD PTR [ebp-0xc],ax
  1053fd:	e8 8b fc ff ff       	call   10508d <cli>
  105402:	0f b7 45 f4          	movzx  eax,WORD PTR [ebp-0xc]
  105406:	0f b6 c0             	movzx  eax,al
  105409:	83 ec 08             	sub    esp,0x8
  10540c:	50                   	push   eax
  10540d:	6a 70                	push   0x70
  10540f:	e8 ed fb ff ff       	call   105001 <port_outb>
  105414:	83 c4 10             	add    esp,0x10
  105417:	e8 78 fc ff ff       	call   105094 <sti>
  10541c:	83 ec 0c             	sub    esp,0xc
  10541f:	6a 71                	push   0x71
  105421:	e8 4f fb ff ff       	call   104f75 <port_inb>
  105426:	83 c4 10             	add    esp,0x10
  105429:	c9                   	leave  
  10542a:	c3                   	ret    

0010542b <rtc_is_updating>:
  10542b:	55                   	push   ebp
  10542c:	89 e5                	mov    ebp,esp
  10542e:	83 ec 18             	sub    esp,0x18
  105431:	83 ec 08             	sub    esp,0x8
  105434:	6a 0a                	push   0xa
  105436:	6a 70                	push   0x70
  105438:	e8 c4 fb ff ff       	call   105001 <port_outb>
  10543d:	83 c4 10             	add    esp,0x10
  105440:	83 ec 0c             	sub    esp,0xc
  105443:	6a 71                	push   0x71
  105445:	e8 2b fb ff ff       	call   104f75 <port_inb>
  10544a:	83 c4 10             	add    esp,0x10
  10544d:	88 45 f7             	mov    BYTE PTR [ebp-0x9],al
  105450:	0f b6 45 f7          	movzx  eax,BYTE PTR [ebp-0x9]
  105454:	83 e0 80             	and    eax,0xffffff80
  105457:	c9                   	leave  
  105458:	c3                   	ret    

00105459 <serial_setport>:
  105459:	55                   	push   ebp
  10545a:	89 e5                	mov    ebp,esp
  10545c:	83 ec 08             	sub    esp,0x8
  10545f:	8b 45 08             	mov    eax,DWORD PTR [ebp+0x8]
  105462:	a3 08 8e 51 00       	mov    ds:0x518e08,eax
  105467:	a1 08 8e 51 00       	mov    eax,ds:0x518e08
  10546c:	83 c0 01             	add    eax,0x1
  10546f:	0f b7 c0             	movzx  eax,ax
  105472:	83 ec 08             	sub    esp,0x8
  105475:	6a 00                	push   0x0
  105477:	50                   	push   eax
  105478:	e8 84 fb ff ff       	call   105001 <port_outb>
  10547d:	83 c4 10             	add    esp,0x10
  105480:	a1 08 8e 51 00       	mov    eax,ds:0x518e08
  105485:	83 c0 03             	add    eax,0x3
  105488:	0f b7 c0             	movzx  eax,ax
  10548b:	83 ec 08             	sub    esp,0x8
  10548e:	68 80 00 00 00       	push   0x80
  105493:	50                   	push   eax
  105494:	e8 68 fb ff ff       	call   105001 <port_outb>
  105499:	83 c4 10             	add    esp,0x10
  10549c:	a1 08 8e 51 00       	mov    eax,ds:0x518e08
  1054a1:	0f b7 c0             	movzx  eax,ax
  1054a4:	83 ec 08             	sub    esp,0x8
  1054a7:	6a 03                	push   0x3
  1054a9:	50                   	push   eax
  1054aa:	e8 52 fb ff ff       	call   105001 <port_outb>
  1054af:	83 c4 10             	add    esp,0x10
  1054b2:	a1 08 8e 51 00       	mov    eax,ds:0x518e08
  1054b7:	83 c0 01             	add    eax,0x1
  1054ba:	0f b7 c0             	movzx  eax,ax
  1054bd:	83 ec 08             	sub    esp,0x8
  1054c0:	6a 00                	push   0x0
  1054c2:	50                   	push   eax
  1054c3:	e8 39 fb ff ff       	call   105001 <port_outb>
  1054c8:	83 c4 10             	add    esp,0x10
  1054cb:	a1 08 8e 51 00       	mov    eax,ds:0x518e08
  1054d0:	83 c0 03             	add    eax,0x3
  1054d3:	0f b7 c0             	movzx  eax,ax
  1054d6:	83 ec 08             	sub    esp,0x8
  1054d9:	6a 03                	push   0x3
  1054db:	50                   	push   eax
  1054dc:	e8 20 fb ff ff       	call   105001 <port_outb>
  1054e1:	83 c4 10             	add    esp,0x10
  1054e4:	a1 08 8e 51 00       	mov    eax,ds:0x518e08
  1054e9:	83 c0 02             	add    eax,0x2
  1054ec:	0f b7 c0             	movzx  eax,ax
  1054ef:	83 ec 08             	sub    esp,0x8
  1054f2:	68 c7 00 00 00       	push   0xc7
  1054f7:	50                   	push   eax
  1054f8:	e8 04 fb ff ff       	call   105001 <port_outb>
  1054fd:	83 c4 10             	add    esp,0x10
  105500:	a1 08 8e 51 00       	mov    eax,ds:0x518e08
  105505:	83 c0 04             	add    eax,0x4
  105508:	0f b7 c0             	movzx  eax,ax
  10550b:	83 ec 08             	sub    esp,0x8
  10550e:	6a 0b                	push   0xb
  105510:	50                   	push   eax
  105511:	e8 eb fa ff ff       	call   105001 <port_outb>
  105516:	83 c4 10             	add    esp,0x10
  105519:	a1 08 8e 51 00       	mov    eax,ds:0x518e08
  10551e:	83 c0 04             	add    eax,0x4
  105521:	0f b7 c0             	movzx  eax,ax
  105524:	83 ec 08             	sub    esp,0x8
  105527:	6a 1e                	push   0x1e
  105529:	50                   	push   eax
  10552a:	e8 d2 fa ff ff       	call   105001 <port_outb>
  10552f:	83 c4 10             	add    esp,0x10
  105532:	a1 08 8e 51 00       	mov    eax,ds:0x518e08
  105537:	0f b7 c0             	movzx  eax,ax
  10553a:	83 ec 08             	sub    esp,0x8
  10553d:	68 ae 00 00 00       	push   0xae
  105542:	50                   	push   eax
  105543:	e8 b9 fa ff ff       	call   105001 <port_outb>
  105548:	83 c4 10             	add    esp,0x10
  10554b:	a1 08 8e 51 00       	mov    eax,ds:0x518e08
  105550:	0f b7 c0             	movzx  eax,ax
  105553:	83 ec 0c             	sub    esp,0xc
  105556:	50                   	push   eax
  105557:	e8 19 fa ff ff       	call   104f75 <port_inb>
  10555c:	83 c4 10             	add    esp,0x10
  10555f:	3c ae                	cmp    al,0xae
  105561:	74 0c                	je     10556f <serial_setport+0x116>
  105563:	c7 05 08 8e 51 00 00 00 00 00 	mov    DWORD PTR ds:0x518e08,0x0
  10556d:	eb 19                	jmp    105588 <serial_setport+0x12f>
  10556f:	a1 08 8e 51 00       	mov    eax,ds:0x518e08
  105574:	83 c0 04             	add    eax,0x4
  105577:	0f b7 c0             	movzx  eax,ax
  10557a:	83 ec 08             	sub    esp,0x8
  10557d:	6a 0f                	push   0xf
  10557f:	50                   	push   eax
  105580:	e8 7c fa ff ff       	call   105001 <port_outb>
  105585:	83 c4 10             	add    esp,0x10
  105588:	c9                   	leave  
  105589:	c3                   	ret    

0010558a <serial_getport>:
  10558a:	55                   	push   ebp
  10558b:	89 e5                	mov    ebp,esp
  10558d:	a1 08 8e 51 00       	mov    eax,ds:0x518e08
  105592:	5d                   	pop    ebp
  105593:	c3                   	ret    

00105594 <serial_getportstr>:
  105594:	55                   	push   ebp
  105595:	89 e5                	mov    ebp,esp
  105597:	8b 45 08             	mov    eax,DWORD PTR [ebp+0x8]
  10559a:	3d f8 02 00 00       	cmp    eax,0x2f8
  10559f:	74 32                	je     1055d3 <serial_getportstr+0x3f>
  1055a1:	3d f8 02 00 00       	cmp    eax,0x2f8
  1055a6:	77 0d                	ja     1055b5 <serial_getportstr+0x21>
  1055a8:	85 c0                	test   eax,eax
  1055aa:	74 19                	je     1055c5 <serial_getportstr+0x31>
  1055ac:	3d e8 02 00 00       	cmp    eax,0x2e8
  1055b1:	74 2e                	je     1055e1 <serial_getportstr+0x4d>
  1055b3:	eb 33                	jmp    1055e8 <serial_getportstr+0x54>
  1055b5:	3d e8 03 00 00       	cmp    eax,0x3e8
  1055ba:	74 1e                	je     1055da <serial_getportstr+0x46>
  1055bc:	3d f8 03 00 00       	cmp    eax,0x3f8
  1055c1:	74 09                	je     1055cc <serial_getportstr+0x38>
  1055c3:	eb 23                	jmp    1055e8 <serial_getportstr+0x54>
  1055c5:	a1 60 db 10 00       	mov    eax,ds:0x10db60
  1055ca:	eb 21                	jmp    1055ed <serial_getportstr+0x59>
  1055cc:	a1 64 db 10 00       	mov    eax,ds:0x10db64
  1055d1:	eb 1a                	jmp    1055ed <serial_getportstr+0x59>
  1055d3:	a1 68 db 10 00       	mov    eax,ds:0x10db68
  1055d8:	eb 13                	jmp    1055ed <serial_getportstr+0x59>
  1055da:	a1 6c db 10 00       	mov    eax,ds:0x10db6c
  1055df:	eb 0c                	jmp    1055ed <serial_getportstr+0x59>
  1055e1:	a1 70 db 10 00       	mov    eax,ds:0x10db70
  1055e6:	eb 05                	jmp    1055ed <serial_getportstr+0x59>
  1055e8:	a1 74 db 10 00       	mov    eax,ds:0x10db74
  1055ed:	5d                   	pop    ebp
  1055ee:	c3                   	ret    

001055ef <serial_read>:
  1055ef:	55                   	push   ebp
  1055f0:	89 e5                	mov    ebp,esp
  1055f2:	83 ec 08             	sub    esp,0x8
  1055f5:	e8 ee 06 00 00       	call   105ce8 <serial_validate>
  1055fa:	84 c0                	test   al,al
  1055fc:	75 07                	jne    105605 <serial_read+0x16>
  1055fe:	b8 00 00 00 00       	mov    eax,0x0
  105603:	eb 1e                	jmp    105623 <serial_read+0x34>
  105605:	90                   	nop
  105606:	e8 79 06 00 00       	call   105c84 <serial_recieved>
  10560b:	84 c0                	test   al,al
  10560d:	74 f7                	je     105606 <serial_read+0x17>
  10560f:	a1 08 8e 51 00       	mov    eax,ds:0x518e08
  105614:	0f b7 c0             	movzx  eax,ax
  105617:	83 ec 0c             	sub    esp,0xc
  10561a:	50                   	push   eax
  10561b:	e8 55 f9 ff ff       	call   104f75 <port_inb>
  105620:	83 c4 10             	add    esp,0x10
  105623:	c9                   	leave  
  105624:	c3                   	ret    

00105625 <serial_writechar>:
  105625:	55                   	push   ebp
  105626:	89 e5                	mov    ebp,esp
  105628:	83 ec 18             	sub    esp,0x18
  10562b:	8b 45 08             	mov    eax,DWORD PTR [ebp+0x8]
  10562e:	88 45 f4             	mov    BYTE PTR [ebp-0xc],al
  105631:	e8 b2 06 00 00       	call   105ce8 <serial_validate>
  105636:	84 c0                	test   al,al
  105638:	74 28                	je     105662 <serial_writechar+0x3d>
  10563a:	90                   	nop
  10563b:	e8 76 06 00 00       	call   105cb6 <serial_send>
  105640:	84 c0                	test   al,al
  105642:	74 f7                	je     10563b <serial_writechar+0x16>
  105644:	0f b6 45 f4          	movzx  eax,BYTE PTR [ebp-0xc]
  105648:	0f b6 d0             	movzx  edx,al
  10564b:	a1 08 8e 51 00       	mov    eax,ds:0x518e08
  105650:	0f b7 c0             	movzx  eax,ax
  105653:	83 ec 08             	sub    esp,0x8
  105656:	52                   	push   edx
  105657:	50                   	push   eax
  105658:	e8 a4 f9 ff ff       	call   105001 <port_outb>
  10565d:	83 c4 10             	add    esp,0x10
  105660:	eb 01                	jmp    105663 <serial_writechar+0x3e>
  105662:	90                   	nop
  105663:	c9                   	leave  
  105664:	c3                   	ret    

00105665 <serial_writechar_col>:
  105665:	55                   	push   ebp
  105666:	89 e5                	mov    ebp,esp
  105668:	83 ec 18             	sub    esp,0x18
  10566b:	8b 55 08             	mov    edx,DWORD PTR [ebp+0x8]
  10566e:	8b 45 0c             	mov    eax,DWORD PTR [ebp+0xc]
  105671:	88 55 f4             	mov    BYTE PTR [ebp-0xc],dl
  105674:	88 45 f0             	mov    BYTE PTR [ebp-0x10],al
  105677:	0f b6 45 f0          	movzx  eax,BYTE PTR [ebp-0x10]
  10567b:	83 ec 0c             	sub    esp,0xc
  10567e:	50                   	push   eax
  10567f:	e8 7d 04 00 00       	call   105b01 <serial_setcol>
  105684:	83 c4 10             	add    esp,0x10
  105687:	0f be 45 f4          	movsx  eax,BYTE PTR [ebp-0xc]
  10568b:	83 ec 0c             	sub    esp,0xc
  10568e:	50                   	push   eax
  10568f:	e8 91 ff ff ff       	call   105625 <serial_writechar>
  105694:	83 c4 10             	add    esp,0x10
  105697:	83 ec 0c             	sub    esp,0xc
  10569a:	68 ff 00 00 00       	push   0xff
  10569f:	e8 5d 04 00 00       	call   105b01 <serial_setcol>
  1056a4:	83 c4 10             	add    esp,0x10
  1056a7:	90                   	nop
  1056a8:	c9                   	leave  
  1056a9:	c3                   	ret    

001056aa <serial_write>:
  1056aa:	55                   	push   ebp
  1056ab:	89 e5                	mov    ebp,esp
  1056ad:	83 ec 18             	sub    esp,0x18
  1056b0:	e8 33 06 00 00       	call   105ce8 <serial_validate>
  1056b5:	84 c0                	test   al,al
  1056b7:	74 38                	je     1056f1 <serial_write+0x47>
  1056b9:	c7 45 f4 00 00 00 00 	mov    DWORD PTR [ebp-0xc],0x0
  1056c0:	eb 1e                	jmp    1056e0 <serial_write+0x36>
  1056c2:	8b 55 f4             	mov    edx,DWORD PTR [ebp-0xc]
  1056c5:	8b 45 08             	mov    eax,DWORD PTR [ebp+0x8]
  1056c8:	01 d0                	add    eax,edx
  1056ca:	0f b6 00             	movzx  eax,BYTE PTR [eax]
  1056cd:	0f be c0             	movsx  eax,al
  1056d0:	83 ec 0c             	sub    esp,0xc
  1056d3:	50                   	push   eax
  1056d4:	e8 4c ff ff ff       	call   105625 <serial_writechar>
  1056d9:	83 c4 10             	add    esp,0x10
  1056dc:	83 45 f4 01          	add    DWORD PTR [ebp-0xc],0x1
  1056e0:	8b 55 f4             	mov    edx,DWORD PTR [ebp-0xc]
  1056e3:	8b 45 08             	mov    eax,DWORD PTR [ebp+0x8]
  1056e6:	01 d0                	add    eax,edx
  1056e8:	0f b6 00             	movzx  eax,BYTE PTR [eax]
  1056eb:	84 c0                	test   al,al
  1056ed:	75 d3                	jne    1056c2 <serial_write+0x18>
  1056ef:	eb 01                	jmp    1056f2 <serial_write+0x48>
  1056f1:	90                   	nop
  1056f2:	c9                   	leave  
  1056f3:	c3                   	ret    

001056f4 <serial_write_col>:
  1056f4:	55                   	push   ebp
  1056f5:	89 e5                	mov    ebp,esp
  1056f7:	83 ec 18             	sub    esp,0x18
  1056fa:	8b 45 0c             	mov    eax,DWORD PTR [ebp+0xc]
  1056fd:	88 45 f4             	mov    BYTE PTR [ebp-0xc],al
  105700:	0f b6 45 f4          	movzx  eax,BYTE PTR [ebp-0xc]
  105704:	83 ec 0c             	sub    esp,0xc
  105707:	50                   	push   eax
  105708:	e8 f4 03 00 00       	call   105b01 <serial_setcol>
  10570d:	83 c4 10             	add    esp,0x10
  105710:	83 ec 0c             	sub    esp,0xc
  105713:	ff 75 08             	push   DWORD PTR [ebp+0x8]
  105716:	e8 8f ff ff ff       	call   1056aa <serial_write>
  10571b:	83 c4 10             	add    esp,0x10
  10571e:	83 ec 0c             	sub    esp,0xc
  105721:	68 ff 00 00 00       	push   0xff
  105726:	e8 d6 03 00 00       	call   105b01 <serial_setcol>
  10572b:	83 c4 10             	add    esp,0x10
  10572e:	90                   	nop
  10572f:	c9                   	leave  
  105730:	c3                   	ret    

00105731 <serial_writeln>:
  105731:	55                   	push   ebp
  105732:	89 e5                	mov    ebp,esp
  105734:	83 ec 08             	sub    esp,0x8
  105737:	83 ec 0c             	sub    esp,0xc
  10573a:	ff 75 08             	push   DWORD PTR [ebp+0x8]
  10573d:	e8 68 ff ff ff       	call   1056aa <serial_write>
  105742:	83 c4 10             	add    esp,0x10
  105745:	e8 2a 00 00 00       	call   105774 <serial_newline>
  10574a:	90                   	nop
  10574b:	c9                   	leave  
  10574c:	c3                   	ret    

0010574d <serial_writeln_col>:
  10574d:	55                   	push   ebp
  10574e:	89 e5                	mov    ebp,esp
  105750:	83 ec 18             	sub    esp,0x18
  105753:	8b 45 0c             	mov    eax,DWORD PTR [ebp+0xc]
  105756:	88 45 f4             	mov    BYTE PTR [ebp-0xc],al
  105759:	0f b6 45 f4          	movzx  eax,BYTE PTR [ebp-0xc]
  10575d:	83 ec 08             	sub    esp,0x8
  105760:	50                   	push   eax
  105761:	ff 75 08             	push   DWORD PTR [ebp+0x8]
  105764:	e8 8b ff ff ff       	call   1056f4 <serial_write_col>
  105769:	83 c4 10             	add    esp,0x10
  10576c:	e8 03 00 00 00       	call   105774 <serial_newline>
  105771:	90                   	nop
  105772:	c9                   	leave  
  105773:	c3                   	ret    

00105774 <serial_newline>:
  105774:	55                   	push   ebp
  105775:	89 e5                	mov    ebp,esp
  105777:	83 ec 08             	sub    esp,0x8
  10577a:	83 ec 0c             	sub    esp,0xc
  10577d:	6a 0a                	push   0xa
  10577f:	e8 a1 fe ff ff       	call   105625 <serial_writechar>
  105784:	83 c4 10             	add    esp,0x10
  105787:	90                   	nop
  105788:	c9                   	leave  
  105789:	c3                   	ret    

0010578a <serial_vprintf>:
  10578a:	55                   	push   ebp
  10578b:	89 e5                	mov    ebp,esp
  10578d:	81 ec 88 00 00 00    	sub    esp,0x88
  105793:	e9 2e 03 00 00       	jmp    105ac6 <serial_vprintf+0x33c>
  105798:	8b 45 08             	mov    eax,DWORD PTR [ebp+0x8]
  10579b:	0f b6 00             	movzx  eax,BYTE PTR [eax]
  10579e:	3c 25                	cmp    al,0x25
  1057a0:	0f 85 07 03 00 00    	jne    105aad <serial_vprintf+0x323>
  1057a6:	83 45 08 01          	add    DWORD PTR [ebp+0x8],0x1
  1057aa:	8b 45 08             	mov    eax,DWORD PTR [ebp+0x8]
  1057ad:	0f b6 00             	movzx  eax,BYTE PTR [eax]
  1057b0:	3c 25                	cmp    al,0x25
  1057b2:	75 0d                	jne    1057c1 <serial_vprintf+0x37>
  1057b4:	83 ec 0c             	sub    esp,0xc
  1057b7:	6a 25                	push   0x25
  1057b9:	e8 67 fe ff ff       	call   105625 <serial_writechar>
  1057be:	83 c4 10             	add    esp,0x10
  1057c1:	8b 45 08             	mov    eax,DWORD PTR [ebp+0x8]
  1057c4:	0f b6 00             	movzx  eax,BYTE PTR [eax]
  1057c7:	3c 63                	cmp    al,0x63
  1057c9:	75 20                	jne    1057eb <serial_vprintf+0x61>
  1057cb:	83 45 0c 04          	add    DWORD PTR [ebp+0xc],0x4
  1057cf:	8b 45 0c             	mov    eax,DWORD PTR [ebp+0xc]
  1057d2:	83 e8 04             	sub    eax,0x4
  1057d5:	8b 00                	mov    eax,DWORD PTR [eax]
  1057d7:	0f be c0             	movsx  eax,al
  1057da:	83 ec 0c             	sub    esp,0xc
  1057dd:	50                   	push   eax
  1057de:	e8 42 fe ff ff       	call   105625 <serial_writechar>
  1057e3:	83 c4 10             	add    esp,0x10
  1057e6:	e9 d7 02 00 00       	jmp    105ac2 <serial_vprintf+0x338>
  1057eb:	8b 45 08             	mov    eax,DWORD PTR [ebp+0x8]
  1057ee:	0f b6 00             	movzx  eax,BYTE PTR [eax]
  1057f1:	3c 64                	cmp    al,0x64
  1057f3:	74 0a                	je     1057ff <serial_vprintf+0x75>
  1057f5:	8b 45 08             	mov    eax,DWORD PTR [ebp+0x8]
  1057f8:	0f b6 00             	movzx  eax,BYTE PTR [eax]
  1057fb:	3c 75                	cmp    al,0x75
  1057fd:	75 45                	jne    105844 <serial_vprintf+0xba>
  1057ff:	83 45 0c 04          	add    DWORD PTR [ebp+0xc],0x4
  105803:	8b 45 0c             	mov    eax,DWORD PTR [ebp+0xc]
  105806:	8b 40 fc             	mov    eax,DWORD PTR [eax-0x4]
  105809:	89 45 dc             	mov    DWORD PTR [ebp-0x24],eax
  10580c:	83 ec 04             	sub    esp,0x4
  10580f:	6a 10                	push   0x10
  105811:	6a 00                	push   0x0
  105813:	8d 45 cc             	lea    eax,[ebp-0x34]
  105816:	50                   	push   eax
  105817:	e8 99 f2 ff ff       	call   104ab5 <memset>
  10581c:	83 c4 10             	add    esp,0x10
  10581f:	83 ec 04             	sub    esp,0x4
  105822:	6a 0a                	push   0xa
  105824:	8d 45 cc             	lea    eax,[ebp-0x34]
  105827:	50                   	push   eax
  105828:	ff 75 dc             	push   DWORD PTR [ebp-0x24]
  10582b:	e8 ca b5 ff ff       	call   100dfa <itoa>
  105830:	83 c4 10             	add    esp,0x10
  105833:	83 ec 0c             	sub    esp,0xc
  105836:	50                   	push   eax
  105837:	e8 6e fe ff ff       	call   1056aa <serial_write>
  10583c:	83 c4 10             	add    esp,0x10
  10583f:	e9 7e 02 00 00       	jmp    105ac2 <serial_vprintf+0x338>
  105844:	8b 45 08             	mov    eax,DWORD PTR [ebp+0x8]
  105847:	0f b6 00             	movzx  eax,BYTE PTR [eax]
  10584a:	3c 75                	cmp    al,0x75
  10584c:	75 45                	jne    105893 <serial_vprintf+0x109>
  10584e:	83 45 0c 04          	add    DWORD PTR [ebp+0xc],0x4
  105852:	8b 45 0c             	mov    eax,DWORD PTR [ebp+0xc]
  105855:	8b 40 fc             	mov    eax,DWORD PTR [eax-0x4]
  105858:	89 45 e0             	mov    DWORD PTR [ebp-0x20],eax
  10585b:	83 ec 04             	sub    esp,0x4
  10585e:	6a 10                	push   0x10
  105860:	6a 00                	push   0x0
  105862:	8d 45 bc             	lea    eax,[ebp-0x44]
  105865:	50                   	push   eax
  105866:	e8 4a f2 ff ff       	call   104ab5 <memset>
  10586b:	83 c4 10             	add    esp,0x10
  10586e:	83 ec 04             	sub    esp,0x4
  105871:	6a 0a                	push   0xa
  105873:	8d 45 bc             	lea    eax,[ebp-0x44]
  105876:	50                   	push   eax
  105877:	ff 75 e0             	push   DWORD PTR [ebp-0x20]
  10587a:	e8 1c b7 ff ff       	call   100f9b <ltoa>
  10587f:	83 c4 10             	add    esp,0x10
  105882:	83 ec 0c             	sub    esp,0xc
  105885:	50                   	push   eax
  105886:	e8 1f fe ff ff       	call   1056aa <serial_write>
  10588b:	83 c4 10             	add    esp,0x10
  10588e:	e9 2f 02 00 00       	jmp    105ac2 <serial_vprintf+0x338>
  105893:	8b 45 08             	mov    eax,DWORD PTR [ebp+0x8]
  105896:	0f b6 00             	movzx  eax,BYTE PTR [eax]
  105899:	3c 78                	cmp    al,0x78
  10589b:	75 45                	jne    1058e2 <serial_vprintf+0x158>
  10589d:	83 45 0c 04          	add    DWORD PTR [ebp+0xc],0x4
  1058a1:	8b 45 0c             	mov    eax,DWORD PTR [ebp+0xc]
  1058a4:	8b 40 fc             	mov    eax,DWORD PTR [eax-0x4]
  1058a7:	89 45 e4             	mov    DWORD PTR [ebp-0x1c],eax
  1058aa:	83 ec 04             	sub    esp,0x4
  1058ad:	6a 10                	push   0x10
  1058af:	6a 00                	push   0x0
  1058b1:	8d 45 ac             	lea    eax,[ebp-0x54]
  1058b4:	50                   	push   eax
  1058b5:	e8 fb f1 ff ff       	call   104ab5 <memset>
  1058ba:	83 c4 10             	add    esp,0x10
  1058bd:	83 ec 04             	sub    esp,0x4
  1058c0:	6a 10                	push   0x10
  1058c2:	8d 45 ac             	lea    eax,[ebp-0x54]
  1058c5:	50                   	push   eax
  1058c6:	ff 75 e4             	push   DWORD PTR [ebp-0x1c]
  1058c9:	e8 cd b6 ff ff       	call   100f9b <ltoa>
  1058ce:	83 c4 10             	add    esp,0x10
  1058d1:	83 ec 0c             	sub    esp,0xc
  1058d4:	50                   	push   eax
  1058d5:	e8 d0 fd ff ff       	call   1056aa <serial_write>
  1058da:	83 c4 10             	add    esp,0x10
  1058dd:	e9 e0 01 00 00       	jmp    105ac2 <serial_vprintf+0x338>
  1058e2:	8b 45 08             	mov    eax,DWORD PTR [ebp+0x8]
  1058e5:	0f b6 00             	movzx  eax,BYTE PTR [eax]
  1058e8:	3c 32                	cmp    al,0x32
  1058ea:	75 76                	jne    105962 <serial_vprintf+0x1d8>
  1058ec:	83 45 08 01          	add    DWORD PTR [ebp+0x8],0x1
  1058f0:	8b 45 08             	mov    eax,DWORD PTR [ebp+0x8]
  1058f3:	0f b6 00             	movzx  eax,BYTE PTR [eax]
  1058f6:	3c 78                	cmp    al,0x78
  1058f8:	74 24                	je     10591e <serial_vprintf+0x194>
  1058fa:	8b 45 08             	mov    eax,DWORD PTR [ebp+0x8]
  1058fd:	0f b6 00             	movzx  eax,BYTE PTR [eax]
  105900:	3c 58                	cmp    al,0x58
  105902:	74 1a                	je     10591e <serial_vprintf+0x194>
  105904:	8b 45 08             	mov    eax,DWORD PTR [ebp+0x8]
  105907:	0f b6 00             	movzx  eax,BYTE PTR [eax]
  10590a:	0f be c0             	movsx  eax,al
  10590d:	83 ec 0c             	sub    esp,0xc
  105910:	50                   	push   eax
  105911:	e8 0f fd ff ff       	call   105625 <serial_writechar>
  105916:	83 c4 10             	add    esp,0x10
  105919:	e9 a4 01 00 00       	jmp    105ac2 <serial_vprintf+0x338>
  10591e:	83 45 0c 04          	add    DWORD PTR [ebp+0xc],0x4
  105922:	8b 45 0c             	mov    eax,DWORD PTR [ebp+0xc]
  105925:	8b 40 fc             	mov    eax,DWORD PTR [eax-0x4]
  105928:	89 45 e8             	mov    DWORD PTR [ebp-0x18],eax
  10592b:	83 ec 04             	sub    esp,0x4
  10592e:	6a 10                	push   0x10
  105930:	6a 00                	push   0x0
  105932:	8d 45 9c             	lea    eax,[ebp-0x64]
  105935:	50                   	push   eax
  105936:	e8 7a f1 ff ff       	call   104ab5 <memset>
  10593b:	83 c4 10             	add    esp,0x10
  10593e:	6a 01                	push   0x1
  105940:	6a 00                	push   0x0
  105942:	8d 45 9c             	lea    eax,[ebp-0x64]
  105945:	50                   	push   eax
  105946:	ff 75 e8             	push   DWORD PTR [ebp-0x18]
  105949:	e8 5d 14 00 00       	call   106dab <strhex>
  10594e:	83 c4 10             	add    esp,0x10
  105951:	83 ec 0c             	sub    esp,0xc
  105954:	50                   	push   eax
  105955:	e8 50 fd ff ff       	call   1056aa <serial_write>
  10595a:	83 c4 10             	add    esp,0x10
  10595d:	e9 60 01 00 00       	jmp    105ac2 <serial_vprintf+0x338>
  105962:	8b 45 08             	mov    eax,DWORD PTR [ebp+0x8]
  105965:	0f b6 00             	movzx  eax,BYTE PTR [eax]
  105968:	3c 34                	cmp    al,0x34
  10596a:	75 76                	jne    1059e2 <serial_vprintf+0x258>
  10596c:	83 45 08 01          	add    DWORD PTR [ebp+0x8],0x1
  105970:	8b 45 08             	mov    eax,DWORD PTR [ebp+0x8]
  105973:	0f b6 00             	movzx  eax,BYTE PTR [eax]
  105976:	3c 78                	cmp    al,0x78
  105978:	74 24                	je     10599e <serial_vprintf+0x214>
  10597a:	8b 45 08             	mov    eax,DWORD PTR [ebp+0x8]
  10597d:	0f b6 00             	movzx  eax,BYTE PTR [eax]
  105980:	3c 58                	cmp    al,0x58
  105982:	74 1a                	je     10599e <serial_vprintf+0x214>
  105984:	8b 45 08             	mov    eax,DWORD PTR [ebp+0x8]
  105987:	0f b6 00             	movzx  eax,BYTE PTR [eax]
  10598a:	0f be c0             	movsx  eax,al
  10598d:	83 ec 0c             	sub    esp,0xc
  105990:	50                   	push   eax
  105991:	e8 8f fc ff ff       	call   105625 <serial_writechar>
  105996:	83 c4 10             	add    esp,0x10
  105999:	e9 24 01 00 00       	jmp    105ac2 <serial_vprintf+0x338>
  10599e:	83 45 0c 04          	add    DWORD PTR [ebp+0xc],0x4
  1059a2:	8b 45 0c             	mov    eax,DWORD PTR [ebp+0xc]
  1059a5:	8b 40 fc             	mov    eax,DWORD PTR [eax-0x4]
  1059a8:	89 45 ec             	mov    DWORD PTR [ebp-0x14],eax
  1059ab:	83 ec 04             	sub    esp,0x4
  1059ae:	6a 10                	push   0x10
  1059b0:	6a 00                	push   0x0
  1059b2:	8d 45 8c             	lea    eax,[ebp-0x74]
  1059b5:	50                   	push   eax
  1059b6:	e8 fa f0 ff ff       	call   104ab5 <memset>
  1059bb:	83 c4 10             	add    esp,0x10
  1059be:	6a 02                	push   0x2
  1059c0:	6a 00                	push   0x0
  1059c2:	8d 45 8c             	lea    eax,[ebp-0x74]
  1059c5:	50                   	push   eax
  1059c6:	ff 75 ec             	push   DWORD PTR [ebp-0x14]
  1059c9:	e8 dd 13 00 00       	call   106dab <strhex>
  1059ce:	83 c4 10             	add    esp,0x10
  1059d1:	83 ec 0c             	sub    esp,0xc
  1059d4:	50                   	push   eax
  1059d5:	e8 d0 fc ff ff       	call   1056aa <serial_write>
  1059da:	83 c4 10             	add    esp,0x10
  1059dd:	e9 e0 00 00 00       	jmp    105ac2 <serial_vprintf+0x338>
  1059e2:	8b 45 08             	mov    eax,DWORD PTR [ebp+0x8]
  1059e5:	0f b6 00             	movzx  eax,BYTE PTR [eax]
  1059e8:	3c 38                	cmp    al,0x38
  1059ea:	75 79                	jne    105a65 <serial_vprintf+0x2db>
  1059ec:	83 45 08 01          	add    DWORD PTR [ebp+0x8],0x1
  1059f0:	8b 45 08             	mov    eax,DWORD PTR [ebp+0x8]
  1059f3:	0f b6 00             	movzx  eax,BYTE PTR [eax]
  1059f6:	3c 78                	cmp    al,0x78
  1059f8:	74 24                	je     105a1e <serial_vprintf+0x294>
  1059fa:	8b 45 08             	mov    eax,DWORD PTR [ebp+0x8]
  1059fd:	0f b6 00             	movzx  eax,BYTE PTR [eax]
  105a00:	3c 58                	cmp    al,0x58
  105a02:	74 1a                	je     105a1e <serial_vprintf+0x294>
  105a04:	8b 45 08             	mov    eax,DWORD PTR [ebp+0x8]
  105a07:	0f b6 00             	movzx  eax,BYTE PTR [eax]
  105a0a:	0f be c0             	movsx  eax,al
  105a0d:	83 ec 0c             	sub    esp,0xc
  105a10:	50                   	push   eax
  105a11:	e8 0f fc ff ff       	call   105625 <serial_writechar>
  105a16:	83 c4 10             	add    esp,0x10
  105a19:	e9 a4 00 00 00       	jmp    105ac2 <serial_vprintf+0x338>
  105a1e:	83 45 0c 04          	add    DWORD PTR [ebp+0xc],0x4
  105a22:	8b 45 0c             	mov    eax,DWORD PTR [ebp+0xc]
  105a25:	8b 40 fc             	mov    eax,DWORD PTR [eax-0x4]
  105a28:	89 45 f0             	mov    DWORD PTR [ebp-0x10],eax
  105a2b:	83 ec 04             	sub    esp,0x4
  105a2e:	6a 10                	push   0x10
  105a30:	6a 00                	push   0x0
  105a32:	8d 85 7c ff ff ff    	lea    eax,[ebp-0x84]
  105a38:	50                   	push   eax
  105a39:	e8 77 f0 ff ff       	call   104ab5 <memset>
  105a3e:	83 c4 10             	add    esp,0x10
  105a41:	6a 04                	push   0x4
  105a43:	6a 00                	push   0x0
  105a45:	8d 85 7c ff ff ff    	lea    eax,[ebp-0x84]
  105a4b:	50                   	push   eax
  105a4c:	ff 75 f0             	push   DWORD PTR [ebp-0x10]
  105a4f:	e8 57 13 00 00       	call   106dab <strhex>
  105a54:	83 c4 10             	add    esp,0x10
  105a57:	83 ec 0c             	sub    esp,0xc
  105a5a:	50                   	push   eax
  105a5b:	e8 4a fc ff ff       	call   1056aa <serial_write>
  105a60:	83 c4 10             	add    esp,0x10
  105a63:	eb 5d                	jmp    105ac2 <serial_vprintf+0x338>
  105a65:	8b 45 08             	mov    eax,DWORD PTR [ebp+0x8]
  105a68:	0f b6 00             	movzx  eax,BYTE PTR [eax]
  105a6b:	3c 66                	cmp    al,0x66
  105a6d:	74 53                	je     105ac2 <serial_vprintf+0x338>
  105a6f:	8b 45 08             	mov    eax,DWORD PTR [ebp+0x8]
  105a72:	0f b6 00             	movzx  eax,BYTE PTR [eax]
  105a75:	3c 73                	cmp    al,0x73
  105a77:	75 1d                	jne    105a96 <serial_vprintf+0x30c>
  105a79:	83 45 0c 04          	add    DWORD PTR [ebp+0xc],0x4
  105a7d:	8b 45 0c             	mov    eax,DWORD PTR [ebp+0xc]
  105a80:	8b 40 fc             	mov    eax,DWORD PTR [eax-0x4]
  105a83:	89 45 f4             	mov    DWORD PTR [ebp-0xc],eax
  105a86:	83 ec 0c             	sub    esp,0xc
  105a89:	ff 75 f4             	push   DWORD PTR [ebp-0xc]
  105a8c:	e8 19 fc ff ff       	call   1056aa <serial_write>
  105a91:	83 c4 10             	add    esp,0x10
  105a94:	eb 2c                	jmp    105ac2 <serial_vprintf+0x338>
  105a96:	8b 45 08             	mov    eax,DWORD PTR [ebp+0x8]
  105a99:	0f b6 00             	movzx  eax,BYTE PTR [eax]
  105a9c:	0f be c0             	movsx  eax,al
  105a9f:	83 ec 0c             	sub    esp,0xc
  105aa2:	50                   	push   eax
  105aa3:	e8 7d fb ff ff       	call   105625 <serial_writechar>
  105aa8:	83 c4 10             	add    esp,0x10
  105aab:	eb 15                	jmp    105ac2 <serial_vprintf+0x338>
  105aad:	8b 45 08             	mov    eax,DWORD PTR [ebp+0x8]
  105ab0:	0f b6 00             	movzx  eax,BYTE PTR [eax]
  105ab3:	0f be c0             	movsx  eax,al
  105ab6:	83 ec 0c             	sub    esp,0xc
  105ab9:	50                   	push   eax
  105aba:	e8 66 fb ff ff       	call   105625 <serial_writechar>
  105abf:	83 c4 10             	add    esp,0x10
  105ac2:	83 45 08 01          	add    DWORD PTR [ebp+0x8],0x1
  105ac6:	8b 45 08             	mov    eax,DWORD PTR [ebp+0x8]
  105ac9:	0f b6 00             	movzx  eax,BYTE PTR [eax]
  105acc:	84 c0                	test   al,al
  105ace:	0f 85 c4 fc ff ff    	jne    105798 <serial_vprintf+0xe>
  105ad4:	b8 01 00 00 00       	mov    eax,0x1
  105ad9:	c9                   	leave  
  105ada:	c3                   	ret    

00105adb <serial_printf>:
  105adb:	55                   	push   ebp
  105adc:	89 e5                	mov    ebp,esp
  105ade:	83 ec 18             	sub    esp,0x18
  105ae1:	8d 45 0c             	lea    eax,[ebp+0xc]
  105ae4:	89 45 f4             	mov    DWORD PTR [ebp-0xc],eax
  105ae7:	8b 45 08             	mov    eax,DWORD PTR [ebp+0x8]
  105aea:	83 ec 08             	sub    esp,0x8
  105aed:	ff 75 f4             	push   DWORD PTR [ebp-0xc]
  105af0:	50                   	push   eax
  105af1:	e8 94 fc ff ff       	call   10578a <serial_vprintf>
  105af6:	83 c4 10             	add    esp,0x10
  105af9:	89 45 f0             	mov    DWORD PTR [ebp-0x10],eax
  105afc:	8b 45 f0             	mov    eax,DWORD PTR [ebp-0x10]
  105aff:	c9                   	leave  
  105b00:	c3                   	ret    

00105b01 <serial_setcol>:
  105b01:	55                   	push   ebp
  105b02:	89 e5                	mov    ebp,esp
  105b04:	83 ec 18             	sub    esp,0x18
  105b07:	8b 45 08             	mov    eax,DWORD PTR [ebp+0x8]
  105b0a:	88 45 f4             	mov    BYTE PTR [ebp-0xc],al
  105b0d:	e8 d6 01 00 00       	call   105ce8 <serial_validate>
  105b12:	84 c0                	test   al,al
  105b14:	0f 84 67 01 00 00    	je     105c81 <serial_setcol+0x180>
  105b1a:	0f b6 45 f4          	movzx  eax,BYTE PTR [ebp-0xc]
  105b1e:	83 f8 0f             	cmp    eax,0xf
  105b21:	0f 87 47 01 00 00    	ja     105c6e <serial_setcol+0x16d>
  105b27:	8b 04 85 24 3a 11 00 	mov    eax,DWORD PTR [eax*4+0x113a24]
  105b2e:	ff e0                	jmp    eax
  105b30:	83 ec 0c             	sub    esp,0xc
  105b33:	68 ed 39 11 00       	push   0x1139ed
  105b38:	e8 6d fb ff ff       	call   1056aa <serial_write>
  105b3d:	83 c4 10             	add    esp,0x10
  105b40:	e9 3d 01 00 00       	jmp    105c82 <serial_setcol+0x181>
  105b45:	83 ec 0c             	sub    esp,0xc
  105b48:	68 f2 39 11 00       	push   0x1139f2
  105b4d:	e8 58 fb ff ff       	call   1056aa <serial_write>
  105b52:	83 c4 10             	add    esp,0x10
  105b55:	e9 28 01 00 00       	jmp    105c82 <serial_setcol+0x181>
  105b5a:	83 ec 0c             	sub    esp,0xc
  105b5d:	68 f8 39 11 00       	push   0x1139f8
  105b62:	e8 43 fb ff ff       	call   1056aa <serial_write>
  105b67:	83 c4 10             	add    esp,0x10
  105b6a:	e9 13 01 00 00       	jmp    105c82 <serial_setcol+0x181>
  105b6f:	83 ec 0c             	sub    esp,0xc
  105b72:	68 fe 39 11 00       	push   0x1139fe
  105b77:	e8 2e fb ff ff       	call   1056aa <serial_write>
  105b7c:	83 c4 10             	add    esp,0x10
  105b7f:	e9 fe 00 00 00       	jmp    105c82 <serial_setcol+0x181>
  105b84:	83 ec 0c             	sub    esp,0xc
  105b87:	68 04 3a 11 00       	push   0x113a04
  105b8c:	e8 19 fb ff ff       	call   1056aa <serial_write>
  105b91:	83 c4 10             	add    esp,0x10
  105b94:	e9 e9 00 00 00       	jmp    105c82 <serial_setcol+0x181>
  105b99:	83 ec 0c             	sub    esp,0xc
  105b9c:	68 0a 3a 11 00       	push   0x113a0a
  105ba1:	e8 04 fb ff ff       	call   1056aa <serial_write>
  105ba6:	83 c4 10             	add    esp,0x10
  105ba9:	e9 d4 00 00 00       	jmp    105c82 <serial_setcol+0x181>
  105bae:	83 ec 0c             	sub    esp,0xc
  105bb1:	68 10 3a 11 00       	push   0x113a10
  105bb6:	e8 ef fa ff ff       	call   1056aa <serial_write>
  105bbb:	83 c4 10             	add    esp,0x10
  105bbe:	e9 bf 00 00 00       	jmp    105c82 <serial_setcol+0x181>
  105bc3:	83 ec 0c             	sub    esp,0xc
  105bc6:	68 16 3a 11 00       	push   0x113a16
  105bcb:	e8 da fa ff ff       	call   1056aa <serial_write>
  105bd0:	83 c4 10             	add    esp,0x10
  105bd3:	e9 aa 00 00 00       	jmp    105c82 <serial_setcol+0x181>
  105bd8:	83 ec 0c             	sub    esp,0xc
  105bdb:	68 16 3a 11 00       	push   0x113a16
  105be0:	e8 c5 fa ff ff       	call   1056aa <serial_write>
  105be5:	83 c4 10             	add    esp,0x10
  105be8:	e9 95 00 00 00       	jmp    105c82 <serial_setcol+0x181>
  105bed:	83 ec 0c             	sub    esp,0xc
  105bf0:	68 f2 39 11 00       	push   0x1139f2
  105bf5:	e8 b0 fa ff ff       	call   1056aa <serial_write>
  105bfa:	83 c4 10             	add    esp,0x10
  105bfd:	e9 80 00 00 00       	jmp    105c82 <serial_setcol+0x181>
  105c02:	83 ec 0c             	sub    esp,0xc
  105c05:	68 f8 39 11 00       	push   0x1139f8
  105c0a:	e8 9b fa ff ff       	call   1056aa <serial_write>
  105c0f:	83 c4 10             	add    esp,0x10
  105c12:	eb 6e                	jmp    105c82 <serial_setcol+0x181>
  105c14:	83 ec 0c             	sub    esp,0xc
  105c17:	68 fe 39 11 00       	push   0x1139fe
  105c1c:	e8 89 fa ff ff       	call   1056aa <serial_write>
  105c21:	83 c4 10             	add    esp,0x10
  105c24:	eb 5c                	jmp    105c82 <serial_setcol+0x181>
  105c26:	83 ec 0c             	sub    esp,0xc
  105c29:	68 04 3a 11 00       	push   0x113a04
  105c2e:	e8 77 fa ff ff       	call   1056aa <serial_write>
  105c33:	83 c4 10             	add    esp,0x10
  105c36:	eb 4a                	jmp    105c82 <serial_setcol+0x181>
  105c38:	83 ec 0c             	sub    esp,0xc
  105c3b:	68 0a 3a 11 00       	push   0x113a0a
  105c40:	e8 65 fa ff ff       	call   1056aa <serial_write>
  105c45:	83 c4 10             	add    esp,0x10
  105c48:	eb 38                	jmp    105c82 <serial_setcol+0x181>
  105c4a:	83 ec 0c             	sub    esp,0xc
  105c4d:	68 10 3a 11 00       	push   0x113a10
  105c52:	e8 53 fa ff ff       	call   1056aa <serial_write>
  105c57:	83 c4 10             	add    esp,0x10
  105c5a:	eb 26                	jmp    105c82 <serial_setcol+0x181>
  105c5c:	83 ec 0c             	sub    esp,0xc
  105c5f:	68 16 3a 11 00       	push   0x113a16
  105c64:	e8 41 fa ff ff       	call   1056aa <serial_write>
  105c69:	83 c4 10             	add    esp,0x10
  105c6c:	eb 14                	jmp    105c82 <serial_setcol+0x181>
  105c6e:	83 ec 0c             	sub    esp,0xc
  105c71:	68 1c 3a 11 00       	push   0x113a1c
  105c76:	e8 2f fa ff ff       	call   1056aa <serial_write>
  105c7b:	83 c4 10             	add    esp,0x10
  105c7e:	90                   	nop
  105c7f:	eb 01                	jmp    105c82 <serial_setcol+0x181>
  105c81:	90                   	nop
  105c82:	c9                   	leave  
  105c83:	c3                   	ret    

00105c84 <serial_recieved>:
  105c84:	55                   	push   ebp
  105c85:	89 e5                	mov    ebp,esp
  105c87:	83 ec 08             	sub    esp,0x8
  105c8a:	e8 59 00 00 00       	call   105ce8 <serial_validate>
  105c8f:	84 c0                	test   al,al
  105c91:	75 07                	jne    105c9a <serial_recieved+0x16>
  105c93:	b8 00 00 00 00       	mov    eax,0x0
  105c98:	eb 1a                	jmp    105cb4 <serial_recieved+0x30>
  105c9a:	a1 08 8e 51 00       	mov    eax,ds:0x518e08
  105c9f:	83 c0 05             	add    eax,0x5
  105ca2:	0f b7 c0             	movzx  eax,ax
  105ca5:	83 ec 0c             	sub    esp,0xc
  105ca8:	50                   	push   eax
  105ca9:	e8 c7 f2 ff ff       	call   104f75 <port_inb>
  105cae:	83 c4 10             	add    esp,0x10
  105cb1:	83 e0 01             	and    eax,0x1
  105cb4:	c9                   	leave  
  105cb5:	c3                   	ret    

00105cb6 <serial_send>:
  105cb6:	55                   	push   ebp
  105cb7:	89 e5                	mov    ebp,esp
  105cb9:	83 ec 08             	sub    esp,0x8
  105cbc:	e8 27 00 00 00       	call   105ce8 <serial_validate>
  105cc1:	84 c0                	test   al,al
  105cc3:	75 07                	jne    105ccc <serial_send+0x16>
  105cc5:	b8 00 00 00 00       	mov    eax,0x0
  105cca:	eb 1a                	jmp    105ce6 <serial_send+0x30>
  105ccc:	a1 08 8e 51 00       	mov    eax,ds:0x518e08
  105cd1:	83 c0 05             	add    eax,0x5
  105cd4:	0f b7 c0             	movzx  eax,ax
  105cd7:	83 ec 0c             	sub    esp,0xc
  105cda:	50                   	push   eax
  105cdb:	e8 95 f2 ff ff       	call   104f75 <port_inb>
  105ce0:	83 c4 10             	add    esp,0x10
  105ce3:	83 e0 20             	and    eax,0x20
  105ce6:	c9                   	leave  
  105ce7:	c3                   	ret    

00105ce8 <serial_validate>:
  105ce8:	55                   	push   ebp
  105ce9:	89 e5                	mov    ebp,esp
  105ceb:	a1 08 8e 51 00       	mov    eax,ds:0x518e08
  105cf0:	3d f8 03 00 00       	cmp    eax,0x3f8
  105cf5:	75 07                	jne    105cfe <serial_validate+0x16>
  105cf7:	b8 01 00 00 00       	mov    eax,0x1
  105cfc:	eb 3e                	jmp    105d3c <serial_validate+0x54>
  105cfe:	a1 08 8e 51 00       	mov    eax,ds:0x518e08
  105d03:	3d f8 02 00 00       	cmp    eax,0x2f8
  105d08:	75 07                	jne    105d11 <serial_validate+0x29>
  105d0a:	b8 01 00 00 00       	mov    eax,0x1
  105d0f:	eb 2b                	jmp    105d3c <serial_validate+0x54>
  105d11:	a1 08 8e 51 00       	mov    eax,ds:0x518e08
  105d16:	3d e8 03 00 00       	cmp    eax,0x3e8
  105d1b:	75 07                	jne    105d24 <serial_validate+0x3c>
  105d1d:	b8 01 00 00 00       	mov    eax,0x1
  105d22:	eb 18                	jmp    105d3c <serial_validate+0x54>
  105d24:	a1 08 8e 51 00       	mov    eax,ds:0x518e08
  105d29:	3d e8 02 00 00       	cmp    eax,0x2e8
  105d2e:	75 07                	jne    105d37 <serial_validate+0x4f>
  105d30:	b8 01 00 00 00       	mov    eax,0x1
  105d35:	eb 05                	jmp    105d3c <serial_validate+0x54>
  105d37:	b8 00 00 00 00       	mov    eax,0x0
  105d3c:	5d                   	pop    ebp
  105d3d:	c3                   	ret    

00105d3e <service_initmgr>:
  105d3e:	55                   	push   ebp
  105d3f:	89 e5                	mov    ebp,esp
  105d41:	83 ec 08             	sub    esp,0x8
  105d44:	c7 05 0c 8e 51 00 00 02 00 00 	mov    DWORD PTR ds:0x518e0c,0x200
  105d4e:	c7 05 14 8e 51 00 00 00 00 00 	mov    DWORD PTR ds:0x518e14,0x0
  105d58:	a1 0c 8e 51 00       	mov    eax,ds:0x518e0c
  105d5d:	c1 e0 02             	shl    eax,0x2
  105d60:	83 ec 08             	sub    esp,0x8
  105d63:	6a 04                	push   0x4
  105d65:	50                   	push   eax
  105d66:	e8 73 ee ff ff       	call   104bde <tcalloc>
  105d6b:	83 c4 10             	add    esp,0x10
  105d6e:	a3 10 8e 51 00       	mov    ds:0x518e10,eax
  105d73:	83 ec 0c             	sub    esp,0xc
  105d76:	68 c8 3e 11 00       	push   0x113ec8
  105d7b:	e8 d8 b9 ff ff       	call   101758 <debug_ok>
  105d80:	83 c4 10             	add    esp,0x10
  105d83:	90                   	nop
  105d84:	c9                   	leave  
  105d85:	c3                   	ret    

00105d86 <service_printlist>:
  105d86:	55                   	push   ebp
  105d87:	89 e5                	mov    ebp,esp
  105d89:	57                   	push   edi
  105d8a:	56                   	push   esi
  105d8b:	53                   	push   ebx
  105d8c:	83 ec 1c             	sub    esp,0x1c
  105d8f:	83 ec 08             	sub    esp,0x8
  105d92:	6a 08                	push   0x8
  105d94:	68 e4 3e 11 00       	push   0x113ee4
  105d99:	e8 0d 2f 00 00       	call   108cab <vga_write_fg>
  105d9e:	83 c4 10             	add    esp,0x10
  105da1:	83 ec 08             	sub    esp,0x8
  105da4:	6a 0e                	push   0xe
  105da6:	68 ec 3e 11 00       	push   0x113eec
  105dab:	e8 fb 2e 00 00       	call   108cab <vga_write_fg>
  105db0:	83 c4 10             	add    esp,0x10
  105db3:	83 ec 08             	sub    esp,0x8
  105db6:	6a 08                	push   0x8
  105db8:	68 f8 3e 11 00       	push   0x113ef8
  105dbd:	e8 c7 2f 00 00       	call   108d89 <vga_writeln_fg>
  105dc2:	83 c4 10             	add    esp,0x10
  105dc5:	83 ec 08             	sub    esp,0x8
  105dc8:	6a 08                	push   0x8
  105dca:	68 24 3f 11 00       	push   0x113f24
  105dcf:	e8 b5 2f 00 00       	call   108d89 <vga_writeln_fg>
  105dd4:	83 c4 10             	add    esp,0x10
  105dd7:	c7 45 e4 00 00 00 00 	mov    DWORD PTR [ebp-0x1c],0x0
  105dde:	e9 93 00 00 00       	jmp    105e76 <service_printlist+0xf0>
  105de3:	a1 10 8e 51 00       	mov    eax,ds:0x518e10
  105de8:	8b 55 e4             	mov    edx,DWORD PTR [ebp-0x1c]
  105deb:	c1 e2 02             	shl    edx,0x2
  105dee:	01 d0                	add    eax,edx
  105df0:	8b 00                	mov    eax,DWORD PTR [eax]
  105df2:	85 c0                	test   eax,eax
  105df4:	74 7b                	je     105e71 <service_printlist+0xeb>
  105df6:	a1 10 8e 51 00       	mov    eax,ds:0x518e10
  105dfb:	8b 55 e4             	mov    edx,DWORD PTR [ebp-0x1c]
  105dfe:	c1 e2 02             	shl    edx,0x2
  105e01:	01 d0                	add    eax,edx
  105e03:	8b 00                	mov    eax,DWORD PTR [eax]
  105e05:	8b 08                	mov    ecx,DWORD PTR [eax]
  105e07:	a1 10 8e 51 00       	mov    eax,ds:0x518e10
  105e0c:	8b 55 e4             	mov    edx,DWORD PTR [ebp-0x1c]
  105e0f:	c1 e2 02             	shl    edx,0x2
  105e12:	01 d0                	add    eax,edx
  105e14:	8b 00                	mov    eax,DWORD PTR [eax]
  105e16:	8b 40 10             	mov    eax,DWORD PTR [eax+0x10]
  105e19:	89 c7                	mov    edi,eax
  105e1b:	a1 10 8e 51 00       	mov    eax,ds:0x518e10
  105e20:	8b 55 e4             	mov    edx,DWORD PTR [ebp-0x1c]
  105e23:	c1 e2 02             	shl    edx,0x2
  105e26:	01 d0                	add    eax,edx
  105e28:	8b 00                	mov    eax,DWORD PTR [eax]
  105e2a:	8b 40 0c             	mov    eax,DWORD PTR [eax+0xc]
  105e2d:	89 c6                	mov    esi,eax
  105e2f:	a1 10 8e 51 00       	mov    eax,ds:0x518e10
  105e34:	8b 55 e4             	mov    edx,DWORD PTR [ebp-0x1c]
  105e37:	c1 e2 02             	shl    edx,0x2
  105e3a:	01 d0                	add    eax,edx
  105e3c:	8b 00                	mov    eax,DWORD PTR [eax]
  105e3e:	0f b6 40 09          	movzx  eax,BYTE PTR [eax+0x9]
  105e42:	0f b6 d0             	movzx  edx,al
  105e45:	a1 10 8e 51 00       	mov    eax,ds:0x518e10
  105e4a:	8b 5d e4             	mov    ebx,DWORD PTR [ebp-0x1c]
  105e4d:	c1 e3 02             	shl    ebx,0x2
  105e50:	01 d8                	add    eax,ebx
  105e52:	8b 00                	mov    eax,DWORD PTR [eax]
  105e54:	8b 40 04             	mov    eax,DWORD PTR [eax+0x4]
  105e57:	83 ec 04             	sub    esp,0x4
  105e5a:	51                   	push   ecx
  105e5b:	57                   	push   edi
  105e5c:	56                   	push   esi
  105e5d:	52                   	push   edx
  105e5e:	50                   	push   eax
  105e5f:	ff 75 e4             	push   DWORD PTR [ebp-0x1c]
  105e62:	68 60 3f 11 00       	push   0x113f60
  105e67:	e8 30 33 00 00       	call   10919c <vga_printf>
  105e6c:	83 c4 20             	add    esp,0x20
  105e6f:	eb 01                	jmp    105e72 <service_printlist+0xec>
  105e71:	90                   	nop
  105e72:	83 45 e4 01          	add    DWORD PTR [ebp-0x1c],0x1
  105e76:	a1 0c 8e 51 00       	mov    eax,ds:0x518e0c
  105e7b:	39 45 e4             	cmp    DWORD PTR [ebp-0x1c],eax
  105e7e:	0f 82 5f ff ff ff    	jb     105de3 <service_printlist+0x5d>
  105e84:	90                   	nop
  105e85:	8d 65 f4             	lea    esp,[ebp-0xc]
  105e88:	5b                   	pop    ebx
  105e89:	5e                   	pop    esi
  105e8a:	5f                   	pop    edi
  105e8b:	5d                   	pop    ebp
  105e8c:	c3                   	ret    

00105e8d <service_create>:
  105e8d:	55                   	push   ebp
  105e8e:	89 e5                	mov    ebp,esp
  105e90:	83 ec 18             	sub    esp,0x18
  105e93:	83 ec 08             	sub    esp,0x8
  105e96:	6a 03                	push   0x3
  105e98:	6a 14                	push   0x14
  105e9a:	e8 3f ed ff ff       	call   104bde <tcalloc>
  105e9f:	83 c4 10             	add    esp,0x10
  105ea2:	89 45 f4             	mov    DWORD PTR [ebp-0xc],eax
  105ea5:	8b 45 f4             	mov    eax,DWORD PTR [ebp-0xc]
  105ea8:	8b 55 08             	mov    edx,DWORD PTR [ebp+0x8]
  105eab:	89 10                	mov    DWORD PTR [eax],edx
  105ead:	8b 45 f4             	mov    eax,DWORD PTR [ebp-0xc]
  105eb0:	8b 55 0c             	mov    edx,DWORD PTR [ebp+0xc]
  105eb3:	89 50 04             	mov    DWORD PTR [eax+0x4],edx
  105eb6:	8b 45 f4             	mov    eax,DWORD PTR [ebp-0xc]
  105eb9:	8b 55 10             	mov    edx,DWORD PTR [ebp+0x10]
  105ebc:	89 50 0c             	mov    DWORD PTR [eax+0xc],edx
  105ebf:	8b 45 f4             	mov    eax,DWORD PTR [ebp-0xc]
  105ec2:	8b 55 14             	mov    edx,DWORD PTR [ebp+0x14]
  105ec5:	89 50 10             	mov    DWORD PTR [eax+0x10],edx
  105ec8:	8b 45 f4             	mov    eax,DWORD PTR [ebp-0xc]
  105ecb:	c6 40 08 00          	mov    BYTE PTR [eax+0x8],0x0
  105ecf:	8b 45 f4             	mov    eax,DWORD PTR [ebp-0xc]
  105ed2:	c6 40 09 00          	mov    BYTE PTR [eax+0x9],0x0
  105ed6:	8b 45 f4             	mov    eax,DWORD PTR [ebp-0xc]
  105ed9:	c9                   	leave  
  105eda:	c3                   	ret    

00105edb <service_dispose>:
  105edb:	55                   	push   ebp
  105edc:	89 e5                	mov    ebp,esp
  105ede:	83 ec 08             	sub    esp,0x8
  105ee1:	83 7d 08 00          	cmp    DWORD PTR [ebp+0x8],0x0
  105ee5:	75 07                	jne    105eee <service_dispose+0x13>
  105ee7:	b8 00 00 00 00       	mov    eax,0x0
  105eec:	eb 0e                	jmp    105efc <service_dispose+0x21>
  105eee:	83 ec 0c             	sub    esp,0xc
  105ef1:	ff 75 08             	push   DWORD PTR [ebp+0x8]
  105ef4:	e8 12 ed ff ff       	call   104c0b <free>
  105ef9:	83 c4 10             	add    esp,0x10
  105efc:	c9                   	leave  
  105efd:	c3                   	ret    

00105efe <service_freeindex>:
  105efe:	55                   	push   ebp
  105eff:	89 e5                	mov    ebp,esp
  105f01:	83 ec 10             	sub    esp,0x10
  105f04:	c7 45 fc 00 00 00 00 	mov    DWORD PTR [ebp-0x4],0x0
  105f0b:	eb 1c                	jmp    105f29 <service_freeindex+0x2b>
  105f0d:	a1 10 8e 51 00       	mov    eax,ds:0x518e10
  105f12:	8b 55 fc             	mov    edx,DWORD PTR [ebp-0x4]
  105f15:	c1 e2 02             	shl    edx,0x2
  105f18:	01 d0                	add    eax,edx
  105f1a:	8b 00                	mov    eax,DWORD PTR [eax]
  105f1c:	85 c0                	test   eax,eax
  105f1e:	75 05                	jne    105f25 <service_freeindex+0x27>
  105f20:	8b 45 fc             	mov    eax,DWORD PTR [ebp-0x4]
  105f23:	eb 13                	jmp    105f38 <service_freeindex+0x3a>
  105f25:	83 45 fc 01          	add    DWORD PTR [ebp-0x4],0x1
  105f29:	a1 0c 8e 51 00       	mov    eax,ds:0x518e0c
  105f2e:	39 45 fc             	cmp    DWORD PTR [ebp-0x4],eax
  105f31:	72 da                	jb     105f0d <service_freeindex+0xf>
  105f33:	b8 ff ff ff ff       	mov    eax,0xffffffff
  105f38:	c9                   	leave  
  105f39:	c3                   	ret    

00105f3a <service_register>:
  105f3a:	55                   	push   ebp
  105f3b:	89 e5                	mov    ebp,esp
  105f3d:	83 ec 18             	sub    esp,0x18
  105f40:	e8 b9 ff ff ff       	call   105efe <service_freeindex>
  105f45:	89 45 f4             	mov    DWORD PTR [ebp-0xc],eax
  105f48:	83 7d f4 00          	cmp    DWORD PTR [ebp-0xc],0x0
  105f4c:	78 0c                	js     105f5a <service_register+0x20>
  105f4e:	8b 55 f4             	mov    edx,DWORD PTR [ebp-0xc]
  105f51:	a1 0c 8e 51 00       	mov    eax,ds:0x518e0c
  105f56:	39 c2                	cmp    edx,eax
  105f58:	72 1b                	jb     105f75 <service_register+0x3b>
  105f5a:	83 ec 04             	sub    esp,0x4
  105f5d:	68 8a 3f 11 00       	push   0x113f8a
  105f62:	6a 00                	push   0x0
  105f64:	6a 05                	push   0x5
  105f66:	e8 be c3 ff ff       	call   102329 <panicf>
  105f6b:	83 c4 10             	add    esp,0x10
  105f6e:	b8 00 00 00 00       	mov    eax,0x0
  105f73:	eb 41                	jmp    105fb6 <service_register+0x7c>
  105f75:	a1 10 8e 51 00       	mov    eax,ds:0x518e10
  105f7a:	8b 55 f4             	mov    edx,DWORD PTR [ebp-0xc]
  105f7d:	c1 e2 02             	shl    edx,0x2
  105f80:	01 c2                	add    edx,eax
  105f82:	8b 45 08             	mov    eax,DWORD PTR [ebp+0x8]
  105f85:	89 02                	mov    DWORD PTR [edx],eax
  105f87:	a1 14 8e 51 00       	mov    eax,ds:0x518e14
  105f8c:	83 c0 01             	add    eax,0x1
  105f8f:	a3 14 8e 51 00       	mov    ds:0x518e14,eax
  105f94:	8b 45 08             	mov    eax,DWORD PTR [ebp+0x8]
  105f97:	8b 10                	mov    edx,DWORD PTR [eax]
  105f99:	8b 45 08             	mov    eax,DWORD PTR [ebp+0x8]
  105f9c:	8b 40 04             	mov    eax,DWORD PTR [eax+0x4]
  105f9f:	83 ec 04             	sub    esp,0x4
  105fa2:	52                   	push   edx
  105fa3:	50                   	push   eax
  105fa4:	68 9c 3f 11 00       	push   0x113f9c
  105fa9:	e8 cf b7 ff ff       	call   10177d <debug_info>
  105fae:	83 c4 10             	add    esp,0x10
  105fb1:	b8 01 00 00 00       	mov    eax,0x1
  105fb6:	c9                   	leave  
  105fb7:	c3                   	ret    

00105fb8 <service_start>:
  105fb8:	55                   	push   ebp
  105fb9:	89 e5                	mov    ebp,esp
  105fbb:	83 ec 08             	sub    esp,0x8
  105fbe:	83 ec 0c             	sub    esp,0xc
  105fc1:	ff 75 08             	push   DWORD PTR [ebp+0x8]
  105fc4:	e8 8b 04 00 00       	call   106454 <service_validate>
  105fc9:	83 c4 10             	add    esp,0x10
  105fcc:	84 c0                	test   al,al
  105fce:	75 07                	jne    105fd7 <service_start+0x1f>
  105fd0:	b8 00 00 00 00       	mov    eax,0x0
  105fd5:	eb 45                	jmp    10601c <service_start+0x64>
  105fd7:	8b 45 08             	mov    eax,DWORD PTR [ebp+0x8]
  105fda:	0f b6 40 09          	movzx  eax,BYTE PTR [eax+0x9]
  105fde:	84 c0                	test   al,al
  105fe0:	74 07                	je     105fe9 <service_start+0x31>
  105fe2:	b8 00 00 00 00       	mov    eax,0x0
  105fe7:	eb 33                	jmp    10601c <service_start+0x64>
  105fe9:	8b 45 08             	mov    eax,DWORD PTR [ebp+0x8]
  105fec:	c6 40 09 01          	mov    BYTE PTR [eax+0x9],0x1
  105ff0:	8b 45 08             	mov    eax,DWORD PTR [ebp+0x8]
  105ff3:	8b 40 0c             	mov    eax,DWORD PTR [eax+0xc]
  105ff6:	83 ec 0c             	sub    esp,0xc
  105ff9:	ff 75 08             	push   DWORD PTR [ebp+0x8]
  105ffc:	ff d0                	call   eax
  105ffe:	83 c4 10             	add    esp,0x10
  106001:	8b 45 08             	mov    eax,DWORD PTR [ebp+0x8]
  106004:	8b 00                	mov    eax,DWORD PTR [eax]
  106006:	83 ec 08             	sub    esp,0x8
  106009:	50                   	push   eax
  10600a:	68 c8 3f 11 00       	push   0x113fc8
  10600f:	e8 69 b7 ff ff       	call   10177d <debug_info>
  106014:	83 c4 10             	add    esp,0x10
  106017:	b8 01 00 00 00       	mov    eax,0x1
  10601c:	c9                   	leave  
  10601d:	c3                   	ret    

0010601e <service_start_byname>:
  10601e:	55                   	push   ebp
  10601f:	89 e5                	mov    ebp,esp
  106021:	83 ec 18             	sub    esp,0x18
  106024:	83 ec 0c             	sub    esp,0xc
  106027:	ff 75 08             	push   DWORD PTR [ebp+0x8]
  10602a:	e8 c3 04 00 00       	call   1064f2 <service_validate_byname>
  10602f:	83 c4 10             	add    esp,0x10
  106032:	84 c0                	test   al,al
  106034:	75 0a                	jne    106040 <service_start_byname+0x22>
  106036:	b8 00 00 00 00       	mov    eax,0x0
  10603b:	e9 85 00 00 00       	jmp    1060c5 <service_start_byname+0xa7>
  106040:	c7 45 f4 00 00 00 00 	mov    DWORD PTR [ebp-0xc],0x0
  106047:	eb 59                	jmp    1060a2 <service_start_byname+0x84>
  106049:	a1 10 8e 51 00       	mov    eax,ds:0x518e10
  10604e:	8b 55 f4             	mov    edx,DWORD PTR [ebp-0xc]
  106051:	c1 e2 02             	shl    edx,0x2
  106054:	01 d0                	add    eax,edx
  106056:	8b 00                	mov    eax,DWORD PTR [eax]
  106058:	85 c0                	test   eax,eax
  10605a:	74 41                	je     10609d <service_start_byname+0x7f>
  10605c:	a1 10 8e 51 00       	mov    eax,ds:0x518e10
  106061:	8b 55 f4             	mov    edx,DWORD PTR [ebp-0xc]
  106064:	c1 e2 02             	shl    edx,0x2
  106067:	01 d0                	add    eax,edx
  106069:	8b 00                	mov    eax,DWORD PTR [eax]
  10606b:	8b 00                	mov    eax,DWORD PTR [eax]
  10606d:	83 ec 08             	sub    esp,0x8
  106070:	ff 75 08             	push   DWORD PTR [ebp+0x8]
  106073:	50                   	push   eax
  106074:	e8 fe 0e 00 00       	call   106f77 <streql>
  106079:	83 c4 10             	add    esp,0x10
  10607c:	84 c0                	test   al,al
  10607e:	74 1e                	je     10609e <service_start_byname+0x80>
  106080:	a1 10 8e 51 00       	mov    eax,ds:0x518e10
  106085:	8b 55 f4             	mov    edx,DWORD PTR [ebp-0xc]
  106088:	c1 e2 02             	shl    edx,0x2
  10608b:	01 d0                	add    eax,edx
  10608d:	8b 00                	mov    eax,DWORD PTR [eax]
  10608f:	83 ec 0c             	sub    esp,0xc
  106092:	50                   	push   eax
  106093:	e8 20 ff ff ff       	call   105fb8 <service_start>
  106098:	83 c4 10             	add    esp,0x10
  10609b:	eb 28                	jmp    1060c5 <service_start_byname+0xa7>
  10609d:	90                   	nop
  10609e:	83 45 f4 01          	add    DWORD PTR [ebp-0xc],0x1
  1060a2:	a1 0c 8e 51 00       	mov    eax,ds:0x518e0c
  1060a7:	39 45 f4             	cmp    DWORD PTR [ebp-0xc],eax
  1060aa:	72 9d                	jb     106049 <service_start_byname+0x2b>
  1060ac:	ff 75 08             	push   DWORD PTR [ebp+0x8]
  1060af:	68 dc 3f 11 00       	push   0x113fdc
  1060b4:	6a 00                	push   0x0
  1060b6:	6a 01                	push   0x1
  1060b8:	e8 6c c2 ff ff       	call   102329 <panicf>
  1060bd:	83 c4 10             	add    esp,0x10
  1060c0:	b8 00 00 00 00       	mov    eax,0x0
  1060c5:	c9                   	leave  
  1060c6:	c3                   	ret    

001060c7 <service_start_byindex>:
  1060c7:	55                   	push   ebp
  1060c8:	89 e5                	mov    ebp,esp
  1060ca:	83 ec 18             	sub    esp,0x18
  1060cd:	83 ec 0c             	sub    esp,0xc
  1060d0:	ff 75 08             	push   DWORD PTR [ebp+0x8]
  1060d3:	e8 e7 04 00 00       	call   1065bf <service_validate_byindex>
  1060d8:	83 c4 10             	add    esp,0x10
  1060db:	84 c0                	test   al,al
  1060dd:	75 07                	jne    1060e6 <service_start_byindex+0x1f>
  1060df:	b8 00 00 00 00       	mov    eax,0x0
  1060e4:	eb 68                	jmp    10614e <service_start_byindex+0x87>
  1060e6:	c7 45 f4 00 00 00 00 	mov    DWORD PTR [ebp-0xc],0x0
  1060ed:	eb 3c                	jmp    10612b <service_start_byindex+0x64>
  1060ef:	8b 45 08             	mov    eax,DWORD PTR [ebp+0x8]
  1060f2:	39 45 f4             	cmp    DWORD PTR [ebp-0xc],eax
  1060f5:	75 30                	jne    106127 <service_start_byindex+0x60>
  1060f7:	a1 10 8e 51 00       	mov    eax,ds:0x518e10
  1060fc:	8b 55 f4             	mov    edx,DWORD PTR [ebp-0xc]
  1060ff:	c1 e2 02             	shl    edx,0x2
  106102:	01 d0                	add    eax,edx
  106104:	8b 00                	mov    eax,DWORD PTR [eax]
  106106:	85 c0                	test   eax,eax
  106108:	74 1d                	je     106127 <service_start_byindex+0x60>
  10610a:	a1 10 8e 51 00       	mov    eax,ds:0x518e10
  10610f:	8b 55 f4             	mov    edx,DWORD PTR [ebp-0xc]
  106112:	c1 e2 02             	shl    edx,0x2
  106115:	01 d0                	add    eax,edx
  106117:	8b 00                	mov    eax,DWORD PTR [eax]
  106119:	83 ec 0c             	sub    esp,0xc
  10611c:	50                   	push   eax
  10611d:	e8 96 fe ff ff       	call   105fb8 <service_start>
  106122:	83 c4 10             	add    esp,0x10
  106125:	eb 27                	jmp    10614e <service_start_byindex+0x87>
  106127:	83 45 f4 01          	add    DWORD PTR [ebp-0xc],0x1
  10612b:	a1 0c 8e 51 00       	mov    eax,ds:0x518e0c
  106130:	39 45 f4             	cmp    DWORD PTR [ebp-0xc],eax
  106133:	72 ba                	jb     1060ef <service_start_byindex+0x28>
  106135:	ff 75 08             	push   DWORD PTR [ebp+0x8]
  106138:	68 f1 3f 11 00       	push   0x113ff1
  10613d:	6a 00                	push   0x0
  10613f:	6a 01                	push   0x1
  106141:	e8 e3 c1 ff ff       	call   102329 <panicf>
  106146:	83 c4 10             	add    esp,0x10
  106149:	b8 00 00 00 00       	mov    eax,0x0
  10614e:	c9                   	leave  
  10614f:	c3                   	ret    

00106150 <service_stop>:
  106150:	55                   	push   ebp
  106151:	89 e5                	mov    ebp,esp
  106153:	90                   	nop
  106154:	5d                   	pop    ebp
  106155:	c3                   	ret    

00106156 <service_stop_byname>:
  106156:	55                   	push   ebp
  106157:	89 e5                	mov    ebp,esp
  106159:	90                   	nop
  10615a:	5d                   	pop    ebp
  10615b:	c3                   	ret    

0010615c <service_stop_byindex>:
  10615c:	55                   	push   ebp
  10615d:	89 e5                	mov    ebp,esp
  10615f:	90                   	nop
  106160:	5d                   	pop    ebp
  106161:	c3                   	ret    

00106162 <service_isrunning>:
  106162:	55                   	push   ebp
  106163:	89 e5                	mov    ebp,esp
  106165:	83 ec 18             	sub    esp,0x18
  106168:	83 7d 08 00          	cmp    DWORD PTR [ebp+0x8],0x0
  10616c:	75 1b                	jne    106189 <service_isrunning+0x27>
  10616e:	83 ec 04             	sub    esp,0x4
  106171:	68 07 40 11 00       	push   0x114007
  106176:	6a 00                	push   0x0
  106178:	6a 02                	push   0x2
  10617a:	e8 aa c1 ff ff       	call   102329 <panicf>
  10617f:	83 c4 10             	add    esp,0x10
  106182:	b8 00 00 00 00       	mov    eax,0x0
  106187:	eb 69                	jmp    1061f2 <service_isrunning+0x90>
  106189:	c7 45 f4 00 00 00 00 	mov    DWORD PTR [ebp-0xc],0x0
  106190:	eb 51                	jmp    1061e3 <service_isrunning+0x81>
  106192:	a1 10 8e 51 00       	mov    eax,ds:0x518e10
  106197:	8b 55 f4             	mov    edx,DWORD PTR [ebp-0xc]
  10619a:	c1 e2 02             	shl    edx,0x2
  10619d:	01 d0                	add    eax,edx
  10619f:	8b 00                	mov    eax,DWORD PTR [eax]
  1061a1:	85 c0                	test   eax,eax
  1061a3:	74 39                	je     1061de <service_isrunning+0x7c>
  1061a5:	a1 10 8e 51 00       	mov    eax,ds:0x518e10
  1061aa:	8b 55 f4             	mov    edx,DWORD PTR [ebp-0xc]
  1061ad:	c1 e2 02             	shl    edx,0x2
  1061b0:	01 d0                	add    eax,edx
  1061b2:	8b 00                	mov    eax,DWORD PTR [eax]
  1061b4:	39 45 08             	cmp    DWORD PTR [ebp+0x8],eax
  1061b7:	75 26                	jne    1061df <service_isrunning+0x7d>
  1061b9:	a1 10 8e 51 00       	mov    eax,ds:0x518e10
  1061be:	8b 55 f4             	mov    edx,DWORD PTR [ebp-0xc]
  1061c1:	c1 e2 02             	shl    edx,0x2
  1061c4:	01 d0                	add    eax,edx
  1061c6:	8b 00                	mov    eax,DWORD PTR [eax]
  1061c8:	0f b6 40 09          	movzx  eax,BYTE PTR [eax+0x9]
  1061cc:	84 c0                	test   al,al
  1061ce:	74 07                	je     1061d7 <service_isrunning+0x75>
  1061d0:	b8 01 00 00 00       	mov    eax,0x1
  1061d5:	eb 1b                	jmp    1061f2 <service_isrunning+0x90>
  1061d7:	b8 00 00 00 00       	mov    eax,0x0
  1061dc:	eb 14                	jmp    1061f2 <service_isrunning+0x90>
  1061de:	90                   	nop
  1061df:	83 45 f4 01          	add    DWORD PTR [ebp-0xc],0x1
  1061e3:	a1 0c 8e 51 00       	mov    eax,ds:0x518e0c
  1061e8:	39 45 f4             	cmp    DWORD PTR [ebp-0xc],eax
  1061eb:	72 a5                	jb     106192 <service_isrunning+0x30>
  1061ed:	b8 00 00 00 00       	mov    eax,0x0
  1061f2:	c9                   	leave  
  1061f3:	c3                   	ret    

001061f4 <service_isrunning_byname>:
  1061f4:	55                   	push   ebp
  1061f5:	89 e5                	mov    ebp,esp
  1061f7:	83 ec 18             	sub    esp,0x18
  1061fa:	83 7d 08 00          	cmp    DWORD PTR [ebp+0x8],0x0
  1061fe:	75 1b                	jne    10621b <service_isrunning_byname+0x27>
  106200:	83 ec 04             	sub    esp,0x4
  106203:	68 19 40 11 00       	push   0x114019
  106208:	6a 00                	push   0x0
  10620a:	6a 02                	push   0x2
  10620c:	e8 18 c1 ff ff       	call   102329 <panicf>
  106211:	83 c4 10             	add    esp,0x10
  106214:	b8 00 00 00 00       	mov    eax,0x0
  106219:	eb 79                	jmp    106294 <service_isrunning_byname+0xa0>
  10621b:	c7 45 f4 00 00 00 00 	mov    DWORD PTR [ebp-0xc],0x0
  106222:	eb 61                	jmp    106285 <service_isrunning_byname+0x91>
  106224:	a1 10 8e 51 00       	mov    eax,ds:0x518e10
  106229:	8b 55 f4             	mov    edx,DWORD PTR [ebp-0xc]
  10622c:	c1 e2 02             	shl    edx,0x2
  10622f:	01 d0                	add    eax,edx
  106231:	8b 00                	mov    eax,DWORD PTR [eax]
  106233:	85 c0                	test   eax,eax
  106235:	74 49                	je     106280 <service_isrunning_byname+0x8c>
  106237:	a1 10 8e 51 00       	mov    eax,ds:0x518e10
  10623c:	8b 55 f4             	mov    edx,DWORD PTR [ebp-0xc]
  10623f:	c1 e2 02             	shl    edx,0x2
  106242:	01 d0                	add    eax,edx
  106244:	8b 00                	mov    eax,DWORD PTR [eax]
  106246:	8b 00                	mov    eax,DWORD PTR [eax]
  106248:	83 ec 08             	sub    esp,0x8
  10624b:	ff 75 08             	push   DWORD PTR [ebp+0x8]
  10624e:	50                   	push   eax
  10624f:	e8 23 0d 00 00       	call   106f77 <streql>
  106254:	83 c4 10             	add    esp,0x10
  106257:	84 c0                	test   al,al
  106259:	74 26                	je     106281 <service_isrunning_byname+0x8d>
  10625b:	a1 10 8e 51 00       	mov    eax,ds:0x518e10
  106260:	8b 55 f4             	mov    edx,DWORD PTR [ebp-0xc]
  106263:	c1 e2 02             	shl    edx,0x2
  106266:	01 d0                	add    eax,edx
  106268:	8b 00                	mov    eax,DWORD PTR [eax]
  10626a:	0f b6 40 09          	movzx  eax,BYTE PTR [eax+0x9]
  10626e:	84 c0                	test   al,al
  106270:	74 07                	je     106279 <service_isrunning_byname+0x85>
  106272:	b8 01 00 00 00       	mov    eax,0x1
  106277:	eb 1b                	jmp    106294 <service_isrunning_byname+0xa0>
  106279:	b8 00 00 00 00       	mov    eax,0x0
  10627e:	eb 14                	jmp    106294 <service_isrunning_byname+0xa0>
  106280:	90                   	nop
  106281:	83 45 f4 01          	add    DWORD PTR [ebp-0xc],0x1
  106285:	a1 0c 8e 51 00       	mov    eax,ds:0x518e0c
  10628a:	39 45 f4             	cmp    DWORD PTR [ebp-0xc],eax
  10628d:	72 95                	jb     106224 <service_isrunning_byname+0x30>
  10628f:	b8 00 00 00 00       	mov    eax,0x0
  106294:	c9                   	leave  
  106295:	c3                   	ret    

00106296 <service_isrunning_byindex>:
  106296:	55                   	push   ebp
  106297:	89 e5                	mov    ebp,esp
  106299:	83 ec 08             	sub    esp,0x8
  10629c:	83 7d 08 00          	cmp    DWORD PTR [ebp+0x8],0x0
  1062a0:	78 0c                	js     1062ae <service_isrunning_byindex+0x18>
  1062a2:	8b 55 08             	mov    edx,DWORD PTR [ebp+0x8]
  1062a5:	a1 0c 8e 51 00       	mov    eax,ds:0x518e0c
  1062aa:	39 c2                	cmp    edx,eax
  1062ac:	72 1b                	jb     1062c9 <service_isrunning_byindex+0x33>
  1062ae:	83 ec 04             	sub    esp,0x4
  1062b1:	68 32 40 11 00       	push   0x114032
  1062b6:	6a 00                	push   0x0
  1062b8:	6a 03                	push   0x3
  1062ba:	e8 6a c0 ff ff       	call   102329 <panicf>
  1062bf:	83 c4 10             	add    esp,0x10
  1062c2:	b8 00 00 00 00       	mov    eax,0x0
  1062c7:	eb 3d                	jmp    106306 <service_isrunning_byindex+0x70>
  1062c9:	a1 10 8e 51 00       	mov    eax,ds:0x518e10
  1062ce:	8b 55 08             	mov    edx,DWORD PTR [ebp+0x8]
  1062d1:	c1 e2 02             	shl    edx,0x2
  1062d4:	01 d0                	add    eax,edx
  1062d6:	8b 00                	mov    eax,DWORD PTR [eax]
  1062d8:	85 c0                	test   eax,eax
  1062da:	75 07                	jne    1062e3 <service_isrunning_byindex+0x4d>
  1062dc:	b8 00 00 00 00       	mov    eax,0x0
  1062e1:	eb 23                	jmp    106306 <service_isrunning_byindex+0x70>
  1062e3:	a1 10 8e 51 00       	mov    eax,ds:0x518e10
  1062e8:	8b 55 08             	mov    edx,DWORD PTR [ebp+0x8]
  1062eb:	c1 e2 02             	shl    edx,0x2
  1062ee:	01 d0                	add    eax,edx
  1062f0:	8b 00                	mov    eax,DWORD PTR [eax]
  1062f2:	0f b6 40 09          	movzx  eax,BYTE PTR [eax+0x9]
  1062f6:	84 c0                	test   al,al
  1062f8:	75 07                	jne    106301 <service_isrunning_byindex+0x6b>
  1062fa:	b8 00 00 00 00       	mov    eax,0x0
  1062ff:	eb 05                	jmp    106306 <service_isrunning_byindex+0x70>
  106301:	b8 01 00 00 00       	mov    eax,0x1
  106306:	c9                   	leave  
  106307:	c3                   	ret    

00106308 <service_isregistered>:
  106308:	55                   	push   ebp
  106309:	89 e5                	mov    ebp,esp
  10630b:	83 ec 18             	sub    esp,0x18
  10630e:	83 7d 08 00          	cmp    DWORD PTR [ebp+0x8],0x0
  106312:	75 1b                	jne    10632f <service_isregistered+0x27>
  106314:	83 ec 04             	sub    esp,0x4
  106317:	68 4c 40 11 00       	push   0x11404c
  10631c:	6a 00                	push   0x0
  10631e:	6a 02                	push   0x2
  106320:	e8 04 c0 ff ff       	call   102329 <panicf>
  106325:	83 c4 10             	add    esp,0x10
  106328:	b8 00 00 00 00       	mov    eax,0x0
  10632d:	eb 4b                	jmp    10637a <service_isregistered+0x72>
  10632f:	c7 45 f4 00 00 00 00 	mov    DWORD PTR [ebp-0xc],0x0
  106336:	eb 33                	jmp    10636b <service_isregistered+0x63>
  106338:	a1 10 8e 51 00       	mov    eax,ds:0x518e10
  10633d:	8b 55 f4             	mov    edx,DWORD PTR [ebp-0xc]
  106340:	c1 e2 02             	shl    edx,0x2
  106343:	01 d0                	add    eax,edx
  106345:	8b 00                	mov    eax,DWORD PTR [eax]
  106347:	85 c0                	test   eax,eax
  106349:	74 1b                	je     106366 <service_isregistered+0x5e>
  10634b:	a1 10 8e 51 00       	mov    eax,ds:0x518e10
  106350:	8b 55 f4             	mov    edx,DWORD PTR [ebp-0xc]
  106353:	c1 e2 02             	shl    edx,0x2
  106356:	01 d0                	add    eax,edx
  106358:	8b 00                	mov    eax,DWORD PTR [eax]
  10635a:	39 45 08             	cmp    DWORD PTR [ebp+0x8],eax
  10635d:	75 08                	jne    106367 <service_isregistered+0x5f>
  10635f:	b8 01 00 00 00       	mov    eax,0x1
  106364:	eb 14                	jmp    10637a <service_isregistered+0x72>
  106366:	90                   	nop
  106367:	83 45 f4 01          	add    DWORD PTR [ebp-0xc],0x1
  10636b:	a1 0c 8e 51 00       	mov    eax,ds:0x518e0c
  106370:	39 45 f4             	cmp    DWORD PTR [ebp-0xc],eax
  106373:	72 c3                	jb     106338 <service_isregistered+0x30>
  106375:	b8 00 00 00 00       	mov    eax,0x0
  10637a:	c9                   	leave  
  10637b:	c3                   	ret    

0010637c <service_isregistered_byname>:
  10637c:	55                   	push   ebp
  10637d:	89 e5                	mov    ebp,esp
  10637f:	83 ec 18             	sub    esp,0x18
  106382:	83 7d 08 00          	cmp    DWORD PTR [ebp+0x8],0x0
  106386:	75 1b                	jne    1063a3 <service_isregistered_byname+0x27>
  106388:	83 ec 04             	sub    esp,0x4
  10638b:	68 61 40 11 00       	push   0x114061
  106390:	6a 00                	push   0x0
  106392:	6a 02                	push   0x2
  106394:	e8 90 bf ff ff       	call   102329 <panicf>
  106399:	83 c4 10             	add    esp,0x10
  10639c:	b8 00 00 00 00       	mov    eax,0x0
  1063a1:	eb 5b                	jmp    1063fe <service_isregistered_byname+0x82>
  1063a3:	c7 45 f4 00 00 00 00 	mov    DWORD PTR [ebp-0xc],0x0
  1063aa:	eb 43                	jmp    1063ef <service_isregistered_byname+0x73>
  1063ac:	a1 10 8e 51 00       	mov    eax,ds:0x518e10
  1063b1:	8b 55 f4             	mov    edx,DWORD PTR [ebp-0xc]
  1063b4:	c1 e2 02             	shl    edx,0x2
  1063b7:	01 d0                	add    eax,edx
  1063b9:	8b 00                	mov    eax,DWORD PTR [eax]
  1063bb:	85 c0                	test   eax,eax
  1063bd:	74 2b                	je     1063ea <service_isregistered_byname+0x6e>
  1063bf:	a1 10 8e 51 00       	mov    eax,ds:0x518e10
  1063c4:	8b 55 f4             	mov    edx,DWORD PTR [ebp-0xc]
  1063c7:	c1 e2 02             	shl    edx,0x2
  1063ca:	01 d0                	add    eax,edx
  1063cc:	8b 00                	mov    eax,DWORD PTR [eax]
  1063ce:	8b 00                	mov    eax,DWORD PTR [eax]
  1063d0:	83 ec 08             	sub    esp,0x8
  1063d3:	ff 75 08             	push   DWORD PTR [ebp+0x8]
  1063d6:	50                   	push   eax
  1063d7:	e8 9b 0b 00 00       	call   106f77 <streql>
  1063dc:	83 c4 10             	add    esp,0x10
  1063df:	84 c0                	test   al,al
  1063e1:	74 08                	je     1063eb <service_isregistered_byname+0x6f>
  1063e3:	b8 01 00 00 00       	mov    eax,0x1
  1063e8:	eb 14                	jmp    1063fe <service_isregistered_byname+0x82>
  1063ea:	90                   	nop
  1063eb:	83 45 f4 01          	add    DWORD PTR [ebp-0xc],0x1
  1063ef:	a1 0c 8e 51 00       	mov    eax,ds:0x518e0c
  1063f4:	39 45 f4             	cmp    DWORD PTR [ebp-0xc],eax
  1063f7:	72 b3                	jb     1063ac <service_isregistered_byname+0x30>
  1063f9:	b8 00 00 00 00       	mov    eax,0x0
  1063fe:	c9                   	leave  
  1063ff:	c3                   	ret    

00106400 <service_isregistered_byindex>:
  106400:	55                   	push   ebp
  106401:	89 e5                	mov    ebp,esp
  106403:	83 ec 08             	sub    esp,0x8
  106406:	83 7d 08 00          	cmp    DWORD PTR [ebp+0x8],0x0
  10640a:	78 0c                	js     106418 <service_isregistered_byindex+0x18>
  10640c:	8b 55 08             	mov    edx,DWORD PTR [ebp+0x8]
  10640f:	a1 0c 8e 51 00       	mov    eax,ds:0x518e0c
  106414:	39 c2                	cmp    edx,eax
  106416:	72 1b                	jb     106433 <service_isregistered_byindex+0x33>
  106418:	83 ec 04             	sub    esp,0x4
  10641b:	68 7d 40 11 00       	push   0x11407d
  106420:	6a 00                	push   0x0
  106422:	6a 03                	push   0x3
  106424:	e8 00 bf ff ff       	call   102329 <panicf>
  106429:	83 c4 10             	add    esp,0x10
  10642c:	b8 00 00 00 00       	mov    eax,0x0
  106431:	eb 1f                	jmp    106452 <service_isregistered_byindex+0x52>
  106433:	a1 10 8e 51 00       	mov    eax,ds:0x518e10
  106438:	8b 55 08             	mov    edx,DWORD PTR [ebp+0x8]
  10643b:	c1 e2 02             	shl    edx,0x2
  10643e:	01 d0                	add    eax,edx
  106440:	8b 00                	mov    eax,DWORD PTR [eax]
  106442:	85 c0                	test   eax,eax
  106444:	75 07                	jne    10644d <service_isregistered_byindex+0x4d>
  106446:	b8 00 00 00 00       	mov    eax,0x0
  10644b:	eb 05                	jmp    106452 <service_isregistered_byindex+0x52>
  10644d:	b8 01 00 00 00       	mov    eax,0x1
  106452:	c9                   	leave  
  106453:	c3                   	ret    

00106454 <service_validate>:
  106454:	55                   	push   ebp
  106455:	89 e5                	mov    ebp,esp
  106457:	83 ec 08             	sub    esp,0x8
  10645a:	83 7d 08 00          	cmp    DWORD PTR [ebp+0x8],0x0
  10645e:	75 1b                	jne    10647b <service_validate+0x27>
  106460:	83 ec 04             	sub    esp,0x4
  106463:	68 9a 40 11 00       	push   0x11409a
  106468:	6a 00                	push   0x0
  10646a:	6a 02                	push   0x2
  10646c:	e8 b8 be ff ff       	call   102329 <panicf>
  106471:	83 c4 10             	add    esp,0x10
  106474:	b8 00 00 00 00       	mov    eax,0x0
  106479:	eb 75                	jmp    1064f0 <service_validate+0x9c>
  10647b:	83 ec 0c             	sub    esp,0xc
  10647e:	ff 75 08             	push   DWORD PTR [ebp+0x8]
  106481:	e8 82 fe ff ff       	call   106308 <service_isregistered>
  106486:	83 c4 10             	add    esp,0x10
  106489:	84 c0                	test   al,al
  10648b:	74 26                	je     1064b3 <service_validate+0x5f>
  10648d:	8b 45 08             	mov    eax,DWORD PTR [ebp+0x8]
  106490:	0f b6 40 08          	movzx  eax,BYTE PTR [eax+0x8]
  106494:	84 c0                	test   al,al
  106496:	75 1b                	jne    1064b3 <service_validate+0x5f>
  106498:	83 ec 04             	sub    esp,0x4
  10649b:	68 9a 40 11 00       	push   0x11409a
  1064a0:	6a 00                	push   0x0
  1064a2:	6a 01                	push   0x1
  1064a4:	e8 80 be ff ff       	call   102329 <panicf>
  1064a9:	83 c4 10             	add    esp,0x10
  1064ac:	b8 00 00 00 00       	mov    eax,0x0
  1064b1:	eb 3d                	jmp    1064f0 <service_validate+0x9c>
  1064b3:	83 ec 0c             	sub    esp,0xc
  1064b6:	ff 75 08             	push   DWORD PTR [ebp+0x8]
  1064b9:	e8 4a fe ff ff       	call   106308 <service_isregistered>
  1064be:	83 c4 10             	add    esp,0x10
  1064c1:	84 c0                	test   al,al
  1064c3:	74 12                	je     1064d7 <service_validate+0x83>
  1064c5:	8b 45 08             	mov    eax,DWORD PTR [ebp+0x8]
  1064c8:	0f b6 40 08          	movzx  eax,BYTE PTR [eax+0x8]
  1064cc:	84 c0                	test   al,al
  1064ce:	74 07                	je     1064d7 <service_validate+0x83>
  1064d0:	b8 01 00 00 00       	mov    eax,0x1
  1064d5:	eb 19                	jmp    1064f0 <service_validate+0x9c>
  1064d7:	83 ec 04             	sub    esp,0x4
  1064da:	68 9a 40 11 00       	push   0x11409a
  1064df:	6a 00                	push   0x0
  1064e1:	6a 01                	push   0x1
  1064e3:	e8 41 be ff ff       	call   102329 <panicf>
  1064e8:	83 c4 10             	add    esp,0x10
  1064eb:	b8 00 00 00 00       	mov    eax,0x0
  1064f0:	c9                   	leave  
  1064f1:	c3                   	ret    

001064f2 <service_validate_byname>:
  1064f2:	55                   	push   ebp
  1064f3:	89 e5                	mov    ebp,esp
  1064f5:	83 ec 18             	sub    esp,0x18
  1064f8:	83 7d 08 00          	cmp    DWORD PTR [ebp+0x8],0x0
  1064fc:	75 1e                	jne    10651c <service_validate_byname+0x2a>
  1064fe:	83 ec 04             	sub    esp,0x4
  106501:	68 ab 40 11 00       	push   0x1140ab
  106506:	6a 00                	push   0x0
  106508:	6a 02                	push   0x2
  10650a:	e8 1a be ff ff       	call   102329 <panicf>
  10650f:	83 c4 10             	add    esp,0x10
  106512:	b8 00 00 00 00       	mov    eax,0x0
  106517:	e9 a1 00 00 00       	jmp    1065bd <service_validate_byname+0xcb>
  10651c:	c7 45 f4 00 00 00 00 	mov    DWORD PTR [ebp-0xc],0x0
  106523:	eb 75                	jmp    10659a <service_validate_byname+0xa8>
  106525:	a1 10 8e 51 00       	mov    eax,ds:0x518e10
  10652a:	8b 55 f4             	mov    edx,DWORD PTR [ebp-0xc]
  10652d:	c1 e2 02             	shl    edx,0x2
  106530:	01 d0                	add    eax,edx
  106532:	8b 00                	mov    eax,DWORD PTR [eax]
  106534:	85 c0                	test   eax,eax
  106536:	74 5d                	je     106595 <service_validate_byname+0xa3>
  106538:	a1 10 8e 51 00       	mov    eax,ds:0x518e10
  10653d:	8b 55 f4             	mov    edx,DWORD PTR [ebp-0xc]
  106540:	c1 e2 02             	shl    edx,0x2
  106543:	01 d0                	add    eax,edx
  106545:	8b 00                	mov    eax,DWORD PTR [eax]
  106547:	8b 00                	mov    eax,DWORD PTR [eax]
  106549:	83 ec 08             	sub    esp,0x8
  10654c:	ff 75 08             	push   DWORD PTR [ebp+0x8]
  10654f:	50                   	push   eax
  106550:	e8 22 0a 00 00       	call   106f77 <streql>
  106555:	83 c4 10             	add    esp,0x10
  106558:	84 c0                	test   al,al
  10655a:	74 3a                	je     106596 <service_validate_byname+0xa4>
  10655c:	a1 10 8e 51 00       	mov    eax,ds:0x518e10
  106561:	8b 55 f4             	mov    edx,DWORD PTR [ebp-0xc]
  106564:	c1 e2 02             	shl    edx,0x2
  106567:	01 d0                	add    eax,edx
  106569:	8b 00                	mov    eax,DWORD PTR [eax]
  10656b:	0f b6 40 08          	movzx  eax,BYTE PTR [eax+0x8]
  10656f:	84 c0                	test   al,al
  106571:	75 1b                	jne    10658e <service_validate_byname+0x9c>
  106573:	83 ec 04             	sub    esp,0x4
  106576:	68 ab 40 11 00       	push   0x1140ab
  10657b:	6a 00                	push   0x0
  10657d:	6a 00                	push   0x0
  10657f:	e8 a5 bd ff ff       	call   102329 <panicf>
  106584:	83 c4 10             	add    esp,0x10
  106587:	b8 00 00 00 00       	mov    eax,0x0
  10658c:	eb 2f                	jmp    1065bd <service_validate_byname+0xcb>
  10658e:	b8 01 00 00 00       	mov    eax,0x1
  106593:	eb 28                	jmp    1065bd <service_validate_byname+0xcb>
  106595:	90                   	nop
  106596:	83 45 f4 01          	add    DWORD PTR [ebp-0xc],0x1
  10659a:	a1 0c 8e 51 00       	mov    eax,ds:0x518e0c
  10659f:	39 45 f4             	cmp    DWORD PTR [ebp-0xc],eax
  1065a2:	72 81                	jb     106525 <service_validate_byname+0x33>
  1065a4:	83 ec 04             	sub    esp,0x4
  1065a7:	68 ab 40 11 00       	push   0x1140ab
  1065ac:	6a 00                	push   0x0
  1065ae:	6a 01                	push   0x1
  1065b0:	e8 74 bd ff ff       	call   102329 <panicf>
  1065b5:	83 c4 10             	add    esp,0x10
  1065b8:	b8 00 00 00 00       	mov    eax,0x0
  1065bd:	c9                   	leave  
  1065be:	c3                   	ret    

001065bf <service_validate_byindex>:
  1065bf:	55                   	push   ebp
  1065c0:	89 e5                	mov    ebp,esp
  1065c2:	83 ec 08             	sub    esp,0x8
  1065c5:	83 7d 08 00          	cmp    DWORD PTR [ebp+0x8],0x0
  1065c9:	78 0c                	js     1065d7 <service_validate_byindex+0x18>
  1065cb:	8b 55 08             	mov    edx,DWORD PTR [ebp+0x8]
  1065ce:	a1 0c 8e 51 00       	mov    eax,ds:0x518e0c
  1065d3:	39 c2                	cmp    edx,eax
  1065d5:	72 1b                	jb     1065f2 <service_validate_byindex+0x33>
  1065d7:	83 ec 04             	sub    esp,0x4
  1065da:	68 c3 40 11 00       	push   0x1140c3
  1065df:	6a 00                	push   0x0
  1065e1:	6a 03                	push   0x3
  1065e3:	e8 41 bd ff ff       	call   102329 <panicf>
  1065e8:	83 c4 10             	add    esp,0x10
  1065eb:	b8 00 00 00 00       	mov    eax,0x0
  1065f0:	eb 65                	jmp    106657 <service_validate_byindex+0x98>
  1065f2:	a1 10 8e 51 00       	mov    eax,ds:0x518e10
  1065f7:	8b 55 08             	mov    edx,DWORD PTR [ebp+0x8]
  1065fa:	c1 e2 02             	shl    edx,0x2
  1065fd:	01 d0                	add    eax,edx
  1065ff:	8b 00                	mov    eax,DWORD PTR [eax]
  106601:	85 c0                	test   eax,eax
  106603:	75 1b                	jne    106620 <service_validate_byindex+0x61>
  106605:	83 ec 04             	sub    esp,0x4
  106608:	68 c3 40 11 00       	push   0x1140c3
  10660d:	6a 00                	push   0x0
  10660f:	6a 07                	push   0x7
  106611:	e8 13 bd ff ff       	call   102329 <panicf>
  106616:	83 c4 10             	add    esp,0x10
  106619:	b8 00 00 00 00       	mov    eax,0x0
  10661e:	eb 37                	jmp    106657 <service_validate_byindex+0x98>
  106620:	a1 10 8e 51 00       	mov    eax,ds:0x518e10
  106625:	8b 55 08             	mov    edx,DWORD PTR [ebp+0x8]
  106628:	c1 e2 02             	shl    edx,0x2
  10662b:	01 d0                	add    eax,edx
  10662d:	8b 00                	mov    eax,DWORD PTR [eax]
  10662f:	0f b6 40 08          	movzx  eax,BYTE PTR [eax+0x8]
  106633:	84 c0                	test   al,al
  106635:	75 1b                	jne    106652 <service_validate_byindex+0x93>
  106637:	83 ec 04             	sub    esp,0x4
  10663a:	68 c3 40 11 00       	push   0x1140c3
  10663f:	6a 00                	push   0x0
  106641:	6a 00                	push   0x0
  106643:	e8 e1 bc ff ff       	call   102329 <panicf>
  106648:	83 c4 10             	add    esp,0x10
  10664b:	b8 00 00 00 00       	mov    eax,0x0
  106650:	eb 05                	jmp    106657 <service_validate_byindex+0x98>
  106652:	b8 01 00 00 00       	mov    eax,0x1
  106657:	c9                   	leave  
  106658:	c3                   	ret    

00106659 <bytestream_create>:
  106659:	55                   	push   ebp
  10665a:	89 e5                	mov    ebp,esp
  10665c:	83 ec 18             	sub    esp,0x18
  10665f:	c7 45 ec 00 00 00 00 	mov    DWORD PTR [ebp-0x14],0x0
  106666:	8b 45 0c             	mov    eax,DWORD PTR [ebp+0xc]
  106669:	89 45 f0             	mov    DWORD PTR [ebp-0x10],eax
  10666c:	83 7d 10 00          	cmp    DWORD PTR [ebp+0x10],0x0
  106670:	75 15                	jne    106687 <bytestream_create+0x2e>
  106672:	83 ec 08             	sub    esp,0x8
  106675:	6a 05                	push   0x5
  106677:	ff 75 0c             	push   DWORD PTR [ebp+0xc]
  10667a:	e8 5f e5 ff ff       	call   104bde <tcalloc>
  10667f:	83 c4 10             	add    esp,0x10
  106682:	89 45 f4             	mov    DWORD PTR [ebp-0xc],eax
  106685:	eb 06                	jmp    10668d <bytestream_create+0x34>
  106687:	8b 45 10             	mov    eax,DWORD PTR [ebp+0x10]
  10668a:	89 45 f4             	mov    DWORD PTR [ebp-0xc],eax
  10668d:	8b 45 08             	mov    eax,DWORD PTR [ebp+0x8]
  106690:	8b 55 ec             	mov    edx,DWORD PTR [ebp-0x14]
  106693:	89 10                	mov    DWORD PTR [eax],edx
  106695:	8b 55 f0             	mov    edx,DWORD PTR [ebp-0x10]
  106698:	89 50 04             	mov    DWORD PTR [eax+0x4],edx
  10669b:	8b 55 f4             	mov    edx,DWORD PTR [ebp-0xc]
  10669e:	89 50 08             	mov    DWORD PTR [eax+0x8],edx
  1066a1:	8b 45 08             	mov    eax,DWORD PTR [ebp+0x8]
  1066a4:	c9                   	leave  
  1066a5:	c2 04 00             	ret    0x4

001066a8 <bytestream_validate>:
  1066a8:	55                   	push   ebp
  1066a9:	89 e5                	mov    ebp,esp
  1066ab:	83 ec 08             	sub    esp,0x8
  1066ae:	83 7d 08 00          	cmp    DWORD PTR [ebp+0x8],0x0
  1066b2:	75 1b                	jne    1066cf <bytestream_validate+0x27>
  1066b4:	83 ec 04             	sub    esp,0x4
  1066b7:	68 28 45 11 00       	push   0x114528
  1066bc:	6a 00                	push   0x0
  1066be:	6a 02                	push   0x2
  1066c0:	e8 64 bc ff ff       	call   102329 <panicf>
  1066c5:	83 c4 10             	add    esp,0x10
  1066c8:	b8 00 00 00 00       	mov    eax,0x0
  1066cd:	eb 2a                	jmp    1066f9 <bytestream_validate+0x51>
  1066cf:	8b 45 08             	mov    eax,DWORD PTR [ebp+0x8]
  1066d2:	8b 40 08             	mov    eax,DWORD PTR [eax+0x8]
  1066d5:	85 c0                	test   eax,eax
  1066d7:	75 1b                	jne    1066f4 <bytestream_validate+0x4c>
  1066d9:	83 ec 04             	sub    esp,0x4
  1066dc:	68 28 45 11 00       	push   0x114528
  1066e1:	6a 00                	push   0x0
  1066e3:	6a 07                	push   0x7
  1066e5:	e8 3f bc ff ff       	call   102329 <panicf>
  1066ea:	83 c4 10             	add    esp,0x10
  1066ed:	b8 00 00 00 00       	mov    eax,0x0
  1066f2:	eb 05                	jmp    1066f9 <bytestream_validate+0x51>
  1066f4:	b8 01 00 00 00       	mov    eax,0x1
  1066f9:	c9                   	leave  
  1066fa:	c3                   	ret    

001066fb <bytestream_dispose>:
  1066fb:	55                   	push   ebp
  1066fc:	89 e5                	mov    ebp,esp
  1066fe:	83 ec 08             	sub    esp,0x8
  106701:	83 ec 0c             	sub    esp,0xc
  106704:	ff 75 08             	push   DWORD PTR [ebp+0x8]
  106707:	e8 9c ff ff ff       	call   1066a8 <bytestream_validate>
  10670c:	83 c4 10             	add    esp,0x10
  10670f:	84 c0                	test   al,al
  106711:	75 07                	jne    10671a <bytestream_dispose+0x1f>
  106713:	b8 00 00 00 00       	mov    eax,0x0
  106718:	eb 17                	jmp    106731 <bytestream_dispose+0x36>
  10671a:	8b 45 08             	mov    eax,DWORD PTR [ebp+0x8]
  10671d:	8b 40 08             	mov    eax,DWORD PTR [eax+0x8]
  106720:	83 ec 0c             	sub    esp,0xc
  106723:	50                   	push   eax
  106724:	e8 e2 e4 ff ff       	call   104c0b <free>
  106729:	83 c4 10             	add    esp,0x10
  10672c:	b8 01 00 00 00       	mov    eax,0x1
  106731:	c9                   	leave  
  106732:	c3                   	ret    

00106733 <bytestream_clear>:
  106733:	55                   	push   ebp
  106734:	89 e5                	mov    ebp,esp
  106736:	83 ec 08             	sub    esp,0x8
  106739:	83 ec 0c             	sub    esp,0xc
  10673c:	ff 75 08             	push   DWORD PTR [ebp+0x8]
  10673f:	e8 64 ff ff ff       	call   1066a8 <bytestream_validate>
  106744:	83 c4 10             	add    esp,0x10
  106747:	84 c0                	test   al,al
  106749:	75 07                	jne    106752 <bytestream_clear+0x1f>
  10674b:	b8 00 00 00 00       	mov    eax,0x0
  106750:	eb 29                	jmp    10677b <bytestream_clear+0x48>
  106752:	8b 45 08             	mov    eax,DWORD PTR [ebp+0x8]
  106755:	8b 50 04             	mov    edx,DWORD PTR [eax+0x4]
  106758:	8b 45 08             	mov    eax,DWORD PTR [ebp+0x8]
  10675b:	8b 40 08             	mov    eax,DWORD PTR [eax+0x8]
  10675e:	83 ec 04             	sub    esp,0x4
  106761:	52                   	push   edx
  106762:	6a 00                	push   0x0
  106764:	50                   	push   eax
  106765:	e8 4b e3 ff ff       	call   104ab5 <memset>
  10676a:	83 c4 10             	add    esp,0x10
  10676d:	8b 45 08             	mov    eax,DWORD PTR [ebp+0x8]
  106770:	c7 00 00 00 00 00    	mov    DWORD PTR [eax],0x0
  106776:	b8 01 00 00 00       	mov    eax,0x1
  10677b:	c9                   	leave  
  10677c:	c3                   	ret    

0010677d <bytestream_ismore>:
  10677d:	55                   	push   ebp
  10677e:	89 e5                	mov    ebp,esp
  106780:	83 ec 08             	sub    esp,0x8
  106783:	83 ec 0c             	sub    esp,0xc
  106786:	ff 75 08             	push   DWORD PTR [ebp+0x8]
  106789:	e8 1a ff ff ff       	call   1066a8 <bytestream_validate>
  10678e:	83 c4 10             	add    esp,0x10
  106791:	84 c0                	test   al,al
  106793:	75 07                	jne    10679c <bytestream_ismore+0x1f>
  106795:	b8 00 00 00 00       	mov    eax,0x0
  10679a:	eb 36                	jmp    1067d2 <bytestream_ismore+0x55>
  10679c:	8b 45 08             	mov    eax,DWORD PTR [ebp+0x8]
  10679f:	8b 10                	mov    edx,DWORD PTR [eax]
  1067a1:	8b 45 08             	mov    eax,DWORD PTR [ebp+0x8]
  1067a4:	8b 40 04             	mov    eax,DWORD PTR [eax+0x4]
  1067a7:	39 c2                	cmp    edx,eax
  1067a9:	72 07                	jb     1067b2 <bytestream_ismore+0x35>
  1067ab:	b8 00 00 00 00       	mov    eax,0x0
  1067b0:	eb 20                	jmp    1067d2 <bytestream_ismore+0x55>
  1067b2:	8b 45 08             	mov    eax,DWORD PTR [ebp+0x8]
  1067b5:	8b 50 08             	mov    edx,DWORD PTR [eax+0x8]
  1067b8:	8b 45 08             	mov    eax,DWORD PTR [ebp+0x8]
  1067bb:	8b 00                	mov    eax,DWORD PTR [eax]
  1067bd:	01 d0                	add    eax,edx
  1067bf:	0f b6 00             	movzx  eax,BYTE PTR [eax]
  1067c2:	84 c0                	test   al,al
  1067c4:	75 07                	jne    1067cd <bytestream_ismore+0x50>
  1067c6:	b8 00 00 00 00       	mov    eax,0x0
  1067cb:	eb 05                	jmp    1067d2 <bytestream_ismore+0x55>
  1067cd:	b8 01 00 00 00       	mov    eax,0x1
  1067d2:	c9                   	leave  
  1067d3:	c3                   	ret    

001067d4 <bytestream_seek>:
  1067d4:	55                   	push   ebp
  1067d5:	89 e5                	mov    ebp,esp
  1067d7:	83 ec 08             	sub    esp,0x8
  1067da:	83 ec 0c             	sub    esp,0xc
  1067dd:	ff 75 08             	push   DWORD PTR [ebp+0x8]
  1067e0:	e8 c3 fe ff ff       	call   1066a8 <bytestream_validate>
  1067e5:	83 c4 10             	add    esp,0x10
  1067e8:	84 c0                	test   al,al
  1067ea:	75 07                	jne    1067f3 <bytestream_seek+0x1f>
  1067ec:	b8 00 00 00 00       	mov    eax,0x0
  1067f1:	eb 33                	jmp    106826 <bytestream_seek+0x52>
  1067f3:	8b 45 08             	mov    eax,DWORD PTR [ebp+0x8]
  1067f6:	8b 40 04             	mov    eax,DWORD PTR [eax+0x4]
  1067f9:	39 45 0c             	cmp    DWORD PTR [ebp+0xc],eax
  1067fc:	72 1b                	jb     106819 <bytestream_seek+0x45>
  1067fe:	83 ec 04             	sub    esp,0x4
  106801:	68 3c 45 11 00       	push   0x11453c
  106806:	6a 00                	push   0x0
  106808:	6a 03                	push   0x3
  10680a:	e8 1a bb ff ff       	call   102329 <panicf>
  10680f:	83 c4 10             	add    esp,0x10
  106812:	b8 00 00 00 00       	mov    eax,0x0
  106817:	eb 0d                	jmp    106826 <bytestream_seek+0x52>
  106819:	8b 45 08             	mov    eax,DWORD PTR [ebp+0x8]
  10681c:	8b 55 0c             	mov    edx,DWORD PTR [ebp+0xc]
  10681f:	89 10                	mov    DWORD PTR [eax],edx
  106821:	b8 01 00 00 00       	mov    eax,0x1
  106826:	c9                   	leave  
  106827:	c3                   	ret    

00106828 <bytestream_peek>:
  106828:	55                   	push   ebp
  106829:	89 e5                	mov    ebp,esp
  10682b:	83 ec 08             	sub    esp,0x8
  10682e:	83 ec 0c             	sub    esp,0xc
  106831:	ff 75 08             	push   DWORD PTR [ebp+0x8]
  106834:	e8 6f fe ff ff       	call   1066a8 <bytestream_validate>
  106839:	83 c4 10             	add    esp,0x10
  10683c:	84 c0                	test   al,al
  10683e:	75 07                	jne    106847 <bytestream_peek+0x1f>
  106840:	b8 00 00 00 00       	mov    eax,0x0
  106845:	eb 10                	jmp    106857 <bytestream_peek+0x2f>
  106847:	8b 45 08             	mov    eax,DWORD PTR [ebp+0x8]
  10684a:	8b 50 08             	mov    edx,DWORD PTR [eax+0x8]
  10684d:	8b 45 08             	mov    eax,DWORD PTR [ebp+0x8]
  106850:	8b 00                	mov    eax,DWORD PTR [eax]
  106852:	01 d0                	add    eax,edx
  106854:	0f b6 00             	movzx  eax,BYTE PTR [eax]
  106857:	c9                   	leave  
  106858:	c3                   	ret    

00106859 <bytestream_peekat>:
  106859:	55                   	push   ebp
  10685a:	89 e5                	mov    ebp,esp
  10685c:	83 ec 08             	sub    esp,0x8
  10685f:	83 ec 0c             	sub    esp,0xc
  106862:	ff 75 08             	push   DWORD PTR [ebp+0x8]
  106865:	e8 3e fe ff ff       	call   1066a8 <bytestream_validate>
  10686a:	83 c4 10             	add    esp,0x10
  10686d:	84 c0                	test   al,al
  10686f:	75 07                	jne    106878 <bytestream_peekat+0x1f>
  106871:	b8 00 00 00 00       	mov    eax,0x0
  106876:	eb 34                	jmp    1068ac <bytestream_peekat+0x53>
  106878:	8b 45 08             	mov    eax,DWORD PTR [ebp+0x8]
  10687b:	8b 40 04             	mov    eax,DWORD PTR [eax+0x4]
  10687e:	39 45 0c             	cmp    DWORD PTR [ebp+0xc],eax
  106881:	72 1b                	jb     10689e <bytestream_peekat+0x45>
  106883:	83 ec 04             	sub    esp,0x4
  106886:	68 4c 45 11 00       	push   0x11454c
  10688b:	6a 00                	push   0x0
  10688d:	6a 03                	push   0x3
  10688f:	e8 95 ba ff ff       	call   102329 <panicf>
  106894:	83 c4 10             	add    esp,0x10
  106897:	b8 00 00 00 00       	mov    eax,0x0
  10689c:	eb 0e                	jmp    1068ac <bytestream_peekat+0x53>
  10689e:	8b 45 08             	mov    eax,DWORD PTR [ebp+0x8]
  1068a1:	8b 50 08             	mov    edx,DWORD PTR [eax+0x8]
  1068a4:	8b 45 0c             	mov    eax,DWORD PTR [ebp+0xc]
  1068a7:	01 d0                	add    eax,edx
  1068a9:	0f b6 00             	movzx  eax,BYTE PTR [eax]
  1068ac:	c9                   	leave  
  1068ad:	c3                   	ret    

001068ae <bytestream_next>:
  1068ae:	55                   	push   ebp
  1068af:	89 e5                	mov    ebp,esp
  1068b1:	83 ec 08             	sub    esp,0x8
  1068b4:	83 ec 0c             	sub    esp,0xc
  1068b7:	ff 75 08             	push   DWORD PTR [ebp+0x8]
  1068ba:	e8 be fe ff ff       	call   10677d <bytestream_ismore>
  1068bf:	83 c4 10             	add    esp,0x10
  1068c2:	84 c0                	test   al,al
  1068c4:	75 07                	jne    1068cd <bytestream_next+0x1f>
  1068c6:	b8 00 00 00 00       	mov    eax,0x0
  1068cb:	eb 20                	jmp    1068ed <bytestream_next+0x3f>
  1068cd:	8b 45 08             	mov    eax,DWORD PTR [ebp+0x8]
  1068d0:	8b 00                	mov    eax,DWORD PTR [eax]
  1068d2:	8d 50 01             	lea    edx,[eax+0x1]
  1068d5:	8b 45 08             	mov    eax,DWORD PTR [ebp+0x8]
  1068d8:	89 10                	mov    DWORD PTR [eax],edx
  1068da:	8b 45 08             	mov    eax,DWORD PTR [ebp+0x8]
  1068dd:	8b 50 08             	mov    edx,DWORD PTR [eax+0x8]
  1068e0:	8b 45 08             	mov    eax,DWORD PTR [ebp+0x8]
  1068e3:	8b 00                	mov    eax,DWORD PTR [eax]
  1068e5:	83 e8 01             	sub    eax,0x1
  1068e8:	01 d0                	add    eax,edx
  1068ea:	0f b6 00             	movzx  eax,BYTE PTR [eax]
  1068ed:	c9                   	leave  
  1068ee:	c3                   	ret    

001068ef <iostream_create>:
  1068ef:	55                   	push   ebp
  1068f0:	89 e5                	mov    ebp,esp
  1068f2:	83 ec 38             	sub    esp,0x38
  1068f5:	8d 45 c8             	lea    eax,[ebp-0x38]
  1068f8:	83 ec 04             	sub    esp,0x4
  1068fb:	ff 75 14             	push   DWORD PTR [ebp+0x14]
  1068fe:	ff 75 0c             	push   DWORD PTR [ebp+0xc]
  106901:	50                   	push   eax
  106902:	e8 52 fd ff ff       	call   106659 <bytestream_create>
  106907:	83 c4 0c             	add    esp,0xc
  10690a:	8b 45 c8             	mov    eax,DWORD PTR [ebp-0x38]
  10690d:	89 45 e0             	mov    DWORD PTR [ebp-0x20],eax
  106910:	8b 45 cc             	mov    eax,DWORD PTR [ebp-0x34]
  106913:	89 45 e4             	mov    DWORD PTR [ebp-0x1c],eax
  106916:	8b 45 d0             	mov    eax,DWORD PTR [ebp-0x30]
  106919:	89 45 e8             	mov    DWORD PTR [ebp-0x18],eax
  10691c:	8d 45 c8             	lea    eax,[ebp-0x38]
  10691f:	83 ec 04             	sub    esp,0x4
  106922:	ff 75 18             	push   DWORD PTR [ebp+0x18]
  106925:	ff 75 10             	push   DWORD PTR [ebp+0x10]
  106928:	50                   	push   eax
  106929:	e8 2b fd ff ff       	call   106659 <bytestream_create>
  10692e:	83 c4 0c             	add    esp,0xc
  106931:	8b 45 c8             	mov    eax,DWORD PTR [ebp-0x38]
  106934:	89 45 ec             	mov    DWORD PTR [ebp-0x14],eax
  106937:	8b 45 cc             	mov    eax,DWORD PTR [ebp-0x34]
  10693a:	89 45 f0             	mov    DWORD PTR [ebp-0x10],eax
  10693d:	8b 45 d0             	mov    eax,DWORD PTR [ebp-0x30]
  106940:	89 45 f4             	mov    DWORD PTR [ebp-0xc],eax
  106943:	8b 45 08             	mov    eax,DWORD PTR [ebp+0x8]
  106946:	8b 55 e0             	mov    edx,DWORD PTR [ebp-0x20]
  106949:	89 10                	mov    DWORD PTR [eax],edx
  10694b:	8b 55 e4             	mov    edx,DWORD PTR [ebp-0x1c]
  10694e:	89 50 04             	mov    DWORD PTR [eax+0x4],edx
  106951:	8b 55 e8             	mov    edx,DWORD PTR [ebp-0x18]
  106954:	89 50 08             	mov    DWORD PTR [eax+0x8],edx
  106957:	8b 55 ec             	mov    edx,DWORD PTR [ebp-0x14]
  10695a:	89 50 0c             	mov    DWORD PTR [eax+0xc],edx
  10695d:	8b 55 f0             	mov    edx,DWORD PTR [ebp-0x10]
  106960:	89 50 10             	mov    DWORD PTR [eax+0x10],edx
  106963:	8b 55 f4             	mov    edx,DWORD PTR [ebp-0xc]
  106966:	89 50 14             	mov    DWORD PTR [eax+0x14],edx
  106969:	8b 45 08             	mov    eax,DWORD PTR [ebp+0x8]
  10696c:	c9                   	leave  
  10696d:	c2 04 00             	ret    0x4

00106970 <iostream_dispose>:
  106970:	55                   	push   ebp
  106971:	89 e5                	mov    ebp,esp
  106973:	83 ec 08             	sub    esp,0x8
  106976:	83 7d 08 00          	cmp    DWORD PTR [ebp+0x8],0x0
  10697a:	75 1b                	jne    106997 <iostream_dispose+0x27>
  10697c:	83 ec 04             	sub    esp,0x4
  10697f:	68 5e 45 11 00       	push   0x11455e
  106984:	6a 00                	push   0x0
  106986:	6a 02                	push   0x2
  106988:	e8 9c b9 ff ff       	call   102329 <panicf>
  10698d:	83 c4 10             	add    esp,0x10
  106990:	b8 00 00 00 00       	mov    eax,0x0
  106995:	eb 3c                	jmp    1069d3 <iostream_dispose+0x63>
  106997:	8b 45 08             	mov    eax,DWORD PTR [ebp+0x8]
  10699a:	83 ec 0c             	sub    esp,0xc
  10699d:	50                   	push   eax
  10699e:	e8 58 fd ff ff       	call   1066fb <bytestream_dispose>
  1069a3:	83 c4 10             	add    esp,0x10
  1069a6:	84 c0                	test   al,al
  1069a8:	75 07                	jne    1069b1 <iostream_dispose+0x41>
  1069aa:	b8 00 00 00 00       	mov    eax,0x0
  1069af:	eb 22                	jmp    1069d3 <iostream_dispose+0x63>
  1069b1:	8b 45 08             	mov    eax,DWORD PTR [ebp+0x8]
  1069b4:	83 c0 0c             	add    eax,0xc
  1069b7:	83 ec 0c             	sub    esp,0xc
  1069ba:	50                   	push   eax
  1069bb:	e8 3b fd ff ff       	call   1066fb <bytestream_dispose>
  1069c0:	83 c4 10             	add    esp,0x10
  1069c3:	84 c0                	test   al,al
  1069c5:	75 07                	jne    1069ce <iostream_dispose+0x5e>
  1069c7:	b8 00 00 00 00       	mov    eax,0x0
  1069cc:	eb 05                	jmp    1069d3 <iostream_dispose+0x63>
  1069ce:	b8 01 00 00 00       	mov    eax,0x1
  1069d3:	c9                   	leave  
  1069d4:	c3                   	ret    

001069d5 <strcat>:
  1069d5:	55                   	push   ebp
  1069d6:	89 e5                	mov    ebp,esp
  1069d8:	83 ec 18             	sub    esp,0x18
  1069db:	83 7d 08 00          	cmp    DWORD PTR [ebp+0x8],0x0
  1069df:	75 07                	jne    1069e8 <strcat+0x13>
  1069e1:	b8 00 00 00 00       	mov    eax,0x0
  1069e6:	eb 77                	jmp    106a5f <strcat+0x8a>
  1069e8:	83 7d 0c 00          	cmp    DWORD PTR [ebp+0xc],0x0
  1069ec:	75 05                	jne    1069f3 <strcat+0x1e>
  1069ee:	8b 45 08             	mov    eax,DWORD PTR [ebp+0x8]
  1069f1:	eb 6c                	jmp    106a5f <strcat+0x8a>
  1069f3:	83 ec 0c             	sub    esp,0xc
  1069f6:	ff 75 0c             	push   DWORD PTR [ebp+0xc]
  1069f9:	e8 f2 01 00 00       	call   106bf0 <strlen>
  1069fe:	83 c4 10             	add    esp,0x10
  106a01:	89 45 f0             	mov    DWORD PTR [ebp-0x10],eax
  106a04:	83 ec 0c             	sub    esp,0xc
  106a07:	ff 75 08             	push   DWORD PTR [ebp+0x8]
  106a0a:	e8 e1 01 00 00       	call   106bf0 <strlen>
  106a0f:	83 c4 10             	add    esp,0x10
  106a12:	89 45 ec             	mov    DWORD PTR [ebp-0x14],eax
  106a15:	c7 45 f4 00 00 00 00 	mov    DWORD PTR [ebp-0xc],0x0
  106a1c:	eb 1e                	jmp    106a3c <strcat+0x67>
  106a1e:	8b 55 0c             	mov    edx,DWORD PTR [ebp+0xc]
  106a21:	8b 45 f4             	mov    eax,DWORD PTR [ebp-0xc]
  106a24:	01 d0                	add    eax,edx
  106a26:	8b 4d ec             	mov    ecx,DWORD PTR [ebp-0x14]
  106a29:	8b 55 f4             	mov    edx,DWORD PTR [ebp-0xc]
  106a2c:	01 d1                	add    ecx,edx
  106a2e:	8b 55 08             	mov    edx,DWORD PTR [ebp+0x8]
  106a31:	01 ca                	add    edx,ecx
  106a33:	0f b6 00             	movzx  eax,BYTE PTR [eax]
  106a36:	88 02                	mov    BYTE PTR [edx],al
  106a38:	83 45 f4 01          	add    DWORD PTR [ebp-0xc],0x1
  106a3c:	8b 45 f4             	mov    eax,DWORD PTR [ebp-0xc]
  106a3f:	3b 45 f0             	cmp    eax,DWORD PTR [ebp-0x10]
  106a42:	72 da                	jb     106a1e <strcat+0x49>
  106a44:	83 ec 0c             	sub    esp,0xc
  106a47:	ff 75 08             	push   DWORD PTR [ebp+0x8]
  106a4a:	e8 a1 01 00 00       	call   106bf0 <strlen>
  106a4f:	83 c4 10             	add    esp,0x10
  106a52:	89 c2                	mov    edx,eax
  106a54:	8b 45 08             	mov    eax,DWORD PTR [ebp+0x8]
  106a57:	01 d0                	add    eax,edx
  106a59:	c6 00 00             	mov    BYTE PTR [eax],0x0
  106a5c:	8b 45 08             	mov    eax,DWORD PTR [ebp+0x8]
  106a5f:	c9                   	leave  
  106a60:	c3                   	ret    

00106a61 <strncat>:
  106a61:	55                   	push   ebp
  106a62:	89 e5                	mov    ebp,esp
  106a64:	83 ec 18             	sub    esp,0x18
  106a67:	83 7d 08 00          	cmp    DWORD PTR [ebp+0x8],0x0
  106a6b:	75 07                	jne    106a74 <strncat+0x13>
  106a6d:	b8 00 00 00 00       	mov    eax,0x0
  106a72:	eb 66                	jmp    106ada <strncat+0x79>
  106a74:	83 7d 0c 00          	cmp    DWORD PTR [ebp+0xc],0x0
  106a78:	75 05                	jne    106a7f <strncat+0x1e>
  106a7a:	8b 45 08             	mov    eax,DWORD PTR [ebp+0x8]
  106a7d:	eb 5b                	jmp    106ada <strncat+0x79>
  106a7f:	83 ec 0c             	sub    esp,0xc
  106a82:	ff 75 08             	push   DWORD PTR [ebp+0x8]
  106a85:	e8 66 01 00 00       	call   106bf0 <strlen>
  106a8a:	83 c4 10             	add    esp,0x10
  106a8d:	89 45 f0             	mov    DWORD PTR [ebp-0x10],eax
  106a90:	c7 45 f4 00 00 00 00 	mov    DWORD PTR [ebp-0xc],0x0
  106a97:	eb 1e                	jmp    106ab7 <strncat+0x56>
  106a99:	8b 55 0c             	mov    edx,DWORD PTR [ebp+0xc]
  106a9c:	8b 45 f4             	mov    eax,DWORD PTR [ebp-0xc]
  106a9f:	01 d0                	add    eax,edx
  106aa1:	8b 4d f0             	mov    ecx,DWORD PTR [ebp-0x10]
  106aa4:	8b 55 f4             	mov    edx,DWORD PTR [ebp-0xc]
  106aa7:	01 d1                	add    ecx,edx
  106aa9:	8b 55 08             	mov    edx,DWORD PTR [ebp+0x8]
  106aac:	01 ca                	add    edx,ecx
  106aae:	0f b6 00             	movzx  eax,BYTE PTR [eax]
  106ab1:	88 02                	mov    BYTE PTR [edx],al
  106ab3:	83 45 f4 01          	add    DWORD PTR [ebp-0xc],0x1
  106ab7:	8b 45 f4             	mov    eax,DWORD PTR [ebp-0xc]
  106aba:	3b 45 10             	cmp    eax,DWORD PTR [ebp+0x10]
  106abd:	72 da                	jb     106a99 <strncat+0x38>
  106abf:	83 ec 0c             	sub    esp,0xc
  106ac2:	ff 75 08             	push   DWORD PTR [ebp+0x8]
  106ac5:	e8 26 01 00 00       	call   106bf0 <strlen>
  106aca:	83 c4 10             	add    esp,0x10
  106acd:	89 c2                	mov    edx,eax
  106acf:	8b 45 08             	mov    eax,DWORD PTR [ebp+0x8]
  106ad2:	01 d0                	add    eax,edx
  106ad4:	c6 00 00             	mov    BYTE PTR [eax],0x0
  106ad7:	8b 45 08             	mov    eax,DWORD PTR [ebp+0x8]
  106ada:	c9                   	leave  
  106adb:	c3                   	ret    

00106adc <strchr>:
  106adc:	55                   	push   ebp
  106add:	89 e5                	mov    ebp,esp
  106adf:	90                   	nop
  106ae0:	5d                   	pop    ebp
  106ae1:	c3                   	ret    

00106ae2 <strrchr>:
  106ae2:	55                   	push   ebp
  106ae3:	89 e5                	mov    ebp,esp
  106ae5:	90                   	nop
  106ae6:	5d                   	pop    ebp
  106ae7:	c3                   	ret    

00106ae8 <strcmp>:
  106ae8:	55                   	push   ebp
  106ae9:	89 e5                	mov    ebp,esp
  106aeb:	eb 18                	jmp    106b05 <strcmp+0x1d>
  106aed:	8b 45 08             	mov    eax,DWORD PTR [ebp+0x8]
  106af0:	0f b6 10             	movzx  edx,BYTE PTR [eax]
  106af3:	8b 45 0c             	mov    eax,DWORD PTR [ebp+0xc]
  106af6:	0f b6 00             	movzx  eax,BYTE PTR [eax]
  106af9:	38 c2                	cmp    dl,al
  106afb:	75 14                	jne    106b11 <strcmp+0x29>
  106afd:	83 45 08 01          	add    DWORD PTR [ebp+0x8],0x1
  106b01:	83 45 0c 01          	add    DWORD PTR [ebp+0xc],0x1
  106b05:	8b 45 08             	mov    eax,DWORD PTR [ebp+0x8]
  106b08:	0f b6 00             	movzx  eax,BYTE PTR [eax]
  106b0b:	84 c0                	test   al,al
  106b0d:	75 de                	jne    106aed <strcmp+0x5>
  106b0f:	eb 01                	jmp    106b12 <strcmp+0x2a>
  106b11:	90                   	nop
  106b12:	8b 45 08             	mov    eax,DWORD PTR [ebp+0x8]
  106b15:	0f b6 00             	movzx  eax,BYTE PTR [eax]
  106b18:	0f be d0             	movsx  edx,al
  106b1b:	8b 45 0c             	mov    eax,DWORD PTR [ebp+0xc]
  106b1e:	0f b6 00             	movzx  eax,BYTE PTR [eax]
  106b21:	0f be c0             	movsx  eax,al
  106b24:	29 c2                	sub    edx,eax
  106b26:	89 d0                	mov    eax,edx
  106b28:	5d                   	pop    ebp
  106b29:	c3                   	ret    

00106b2a <strcmpi>:
  106b2a:	55                   	push   ebp
  106b2b:	89 e5                	mov    ebp,esp
  106b2d:	90                   	nop
  106b2e:	5d                   	pop    ebp
  106b2f:	c3                   	ret    

00106b30 <strncmp>:
  106b30:	55                   	push   ebp
  106b31:	89 e5                	mov    ebp,esp
  106b33:	eb 0c                	jmp    106b41 <strncmp+0x11>
  106b35:	83 45 08 01          	add    DWORD PTR [ebp+0x8],0x1
  106b39:	83 45 0c 01          	add    DWORD PTR [ebp+0xc],0x1
  106b3d:	83 6d 10 01          	sub    DWORD PTR [ebp+0x10],0x1
  106b41:	83 7d 10 00          	cmp    DWORD PTR [ebp+0x10],0x0
  106b45:	74 1a                	je     106b61 <strncmp+0x31>
  106b47:	8b 45 08             	mov    eax,DWORD PTR [ebp+0x8]
  106b4a:	0f b6 00             	movzx  eax,BYTE PTR [eax]
  106b4d:	84 c0                	test   al,al
  106b4f:	74 10                	je     106b61 <strncmp+0x31>
  106b51:	8b 45 08             	mov    eax,DWORD PTR [ebp+0x8]
  106b54:	0f b6 10             	movzx  edx,BYTE PTR [eax]
  106b57:	8b 45 0c             	mov    eax,DWORD PTR [ebp+0xc]
  106b5a:	0f b6 00             	movzx  eax,BYTE PTR [eax]
  106b5d:	38 c2                	cmp    dl,al
  106b5f:	74 d4                	je     106b35 <strncmp+0x5>
  106b61:	83 7d 10 00          	cmp    DWORD PTR [ebp+0x10],0x0
  106b65:	75 07                	jne    106b6e <strncmp+0x3e>
  106b67:	b8 00 00 00 00       	mov    eax,0x0
  106b6c:	eb 14                	jmp    106b82 <strncmp+0x52>
  106b6e:	8b 45 0c             	mov    eax,DWORD PTR [ebp+0xc]
  106b71:	0f b6 10             	movzx  edx,BYTE PTR [eax]
  106b74:	8b 45 08             	mov    eax,DWORD PTR [ebp+0x8]
  106b77:	88 10                	mov    BYTE PTR [eax],dl
  106b79:	8b 45 08             	mov    eax,DWORD PTR [ebp+0x8]
  106b7c:	0f b6 00             	movzx  eax,BYTE PTR [eax]
  106b7f:	0f be c0             	movsx  eax,al
  106b82:	5d                   	pop    ebp
  106b83:	c3                   	ret    

00106b84 <strcoll>:
  106b84:	55                   	push   ebp
  106b85:	89 e5                	mov    ebp,esp
  106b87:	90                   	nop
  106b88:	5d                   	pop    ebp
  106b89:	c3                   	ret    

00106b8a <strcpy>:
  106b8a:	55                   	push   ebp
  106b8b:	89 e5                	mov    ebp,esp
  106b8d:	83 ec 08             	sub    esp,0x8
  106b90:	83 ec 0c             	sub    esp,0xc
  106b93:	ff 75 0c             	push   DWORD PTR [ebp+0xc]
  106b96:	e8 55 00 00 00       	call   106bf0 <strlen>
  106b9b:	83 c4 10             	add    esp,0x10
  106b9e:	83 ec 04             	sub    esp,0x4
  106ba1:	50                   	push   eax
  106ba2:	ff 75 0c             	push   DWORD PTR [ebp+0xc]
  106ba5:	ff 75 08             	push   DWORD PTR [ebp+0x8]
  106ba8:	e8 c9 de ff ff       	call   104a76 <memcpy>
  106bad:	83 c4 10             	add    esp,0x10
  106bb0:	8b 45 08             	mov    eax,DWORD PTR [ebp+0x8]
  106bb3:	c9                   	leave  
  106bb4:	c3                   	ret    

00106bb5 <strncpy>:
  106bb5:	55                   	push   ebp
  106bb6:	89 e5                	mov    ebp,esp
  106bb8:	83 ec 10             	sub    esp,0x10
  106bbb:	c7 45 fc 00 00 00 00 	mov    DWORD PTR [ebp-0x4],0x0
  106bc2:	eb 19                	jmp    106bdd <strncpy+0x28>
  106bc4:	8b 55 0c             	mov    edx,DWORD PTR [ebp+0xc]
  106bc7:	8b 45 fc             	mov    eax,DWORD PTR [ebp-0x4]
  106bca:	01 d0                	add    eax,edx
  106bcc:	8b 4d 08             	mov    ecx,DWORD PTR [ebp+0x8]
  106bcf:	8b 55 fc             	mov    edx,DWORD PTR [ebp-0x4]
  106bd2:	01 ca                	add    edx,ecx
  106bd4:	0f b6 00             	movzx  eax,BYTE PTR [eax]
  106bd7:	88 02                	mov    BYTE PTR [edx],al
  106bd9:	83 45 fc 01          	add    DWORD PTR [ebp-0x4],0x1
  106bdd:	8b 45 fc             	mov    eax,DWORD PTR [ebp-0x4]
  106be0:	3b 45 10             	cmp    eax,DWORD PTR [ebp+0x10]
  106be3:	72 df                	jb     106bc4 <strncpy+0xf>
  106be5:	8b 45 08             	mov    eax,DWORD PTR [ebp+0x8]
  106be8:	c9                   	leave  
  106be9:	c3                   	ret    

00106bea <strcspn>:
  106bea:	55                   	push   ebp
  106beb:	89 e5                	mov    ebp,esp
  106bed:	90                   	nop
  106bee:	5d                   	pop    ebp
  106bef:	c3                   	ret    

00106bf0 <strlen>:
  106bf0:	55                   	push   ebp
  106bf1:	89 e5                	mov    ebp,esp
  106bf3:	83 ec 10             	sub    esp,0x10
  106bf6:	c7 45 fc 00 00 00 00 	mov    DWORD PTR [ebp-0x4],0x0
  106bfd:	eb 04                	jmp    106c03 <strlen+0x13>
  106bff:	83 45 fc 01          	add    DWORD PTR [ebp-0x4],0x1
  106c03:	8b 55 08             	mov    edx,DWORD PTR [ebp+0x8]
  106c06:	8b 45 fc             	mov    eax,DWORD PTR [ebp-0x4]
  106c09:	01 d0                	add    eax,edx
  106c0b:	0f b6 00             	movzx  eax,BYTE PTR [eax]
  106c0e:	84 c0                	test   al,al
  106c10:	75 ed                	jne    106bff <strlen+0xf>
  106c12:	8b 45 fc             	mov    eax,DWORD PTR [ebp-0x4]
  106c15:	c9                   	leave  
  106c16:	c3                   	ret    

00106c17 <strpbrk>:
  106c17:	55                   	push   ebp
  106c18:	89 e5                	mov    ebp,esp
  106c1a:	90                   	nop
  106c1b:	5d                   	pop    ebp
  106c1c:	c3                   	ret    

00106c1d <strspn>:
  106c1d:	55                   	push   ebp
  106c1e:	89 e5                	mov    ebp,esp
  106c20:	90                   	nop
  106c21:	5d                   	pop    ebp
  106c22:	c3                   	ret    

00106c23 <strstr>:
  106c23:	55                   	push   ebp
  106c24:	89 e5                	mov    ebp,esp
  106c26:	90                   	nop
  106c27:	5d                   	pop    ebp
  106c28:	c3                   	ret    

00106c29 <strtok>:
  106c29:	55                   	push   ebp
  106c2a:	89 e5                	mov    ebp,esp
  106c2c:	90                   	nop
  106c2d:	5d                   	pop    ebp
  106c2e:	c3                   	ret    

00106c2f <strxfrm>:
  106c2f:	55                   	push   ebp
  106c30:	89 e5                	mov    ebp,esp
  106c32:	90                   	nop
  106c33:	5d                   	pop    ebp
  106c34:	c3                   	ret    

00106c35 <strdup>:
  106c35:	55                   	push   ebp
  106c36:	89 e5                	mov    ebp,esp
  106c38:	90                   	nop
  106c39:	5d                   	pop    ebp
  106c3a:	c3                   	ret    

00106c3b <strlwr>:
  106c3b:	55                   	push   ebp
  106c3c:	89 e5                	mov    ebp,esp
  106c3e:	83 ec 18             	sub    esp,0x18
  106c41:	c7 45 f4 00 00 00 00 	mov    DWORD PTR [ebp-0xc],0x0
  106c48:	eb 2c                	jmp    106c76 <strlwr+0x3b>
  106c4a:	8b 55 08             	mov    edx,DWORD PTR [ebp+0x8]
  106c4d:	8b 45 f4             	mov    eax,DWORD PTR [ebp-0xc]
  106c50:	01 d0                	add    eax,edx
  106c52:	0f b6 00             	movzx  eax,BYTE PTR [eax]
  106c55:	0f be c0             	movsx  eax,al
  106c58:	83 ec 0c             	sub    esp,0xc
  106c5b:	50                   	push   eax
  106c5c:	e8 ab 9f ff ff       	call   100c0c <tolower>
  106c61:	83 c4 10             	add    esp,0x10
  106c64:	89 c1                	mov    ecx,eax
  106c66:	8b 55 08             	mov    edx,DWORD PTR [ebp+0x8]
  106c69:	8b 45 f4             	mov    eax,DWORD PTR [ebp-0xc]
  106c6c:	01 d0                	add    eax,edx
  106c6e:	89 ca                	mov    edx,ecx
  106c70:	88 10                	mov    BYTE PTR [eax],dl
  106c72:	83 45 f4 01          	add    DWORD PTR [ebp-0xc],0x1
  106c76:	83 ec 0c             	sub    esp,0xc
  106c79:	ff 75 08             	push   DWORD PTR [ebp+0x8]
  106c7c:	e8 6f ff ff ff       	call   106bf0 <strlen>
  106c81:	83 c4 10             	add    esp,0x10
  106c84:	39 45 f4             	cmp    DWORD PTR [ebp-0xc],eax
  106c87:	72 c1                	jb     106c4a <strlwr+0xf>
  106c89:	90                   	nop
  106c8a:	c9                   	leave  
  106c8b:	c3                   	ret    

00106c8c <strupr>:
  106c8c:	55                   	push   ebp
  106c8d:	89 e5                	mov    ebp,esp
  106c8f:	83 ec 18             	sub    esp,0x18
  106c92:	c7 45 f4 00 00 00 00 	mov    DWORD PTR [ebp-0xc],0x0
  106c99:	eb 2c                	jmp    106cc7 <strupr+0x3b>
  106c9b:	8b 55 08             	mov    edx,DWORD PTR [ebp+0x8]
  106c9e:	8b 45 f4             	mov    eax,DWORD PTR [ebp-0xc]
  106ca1:	01 d0                	add    eax,edx
  106ca3:	0f b6 00             	movzx  eax,BYTE PTR [eax]
  106ca6:	0f be c0             	movsx  eax,al
  106ca9:	83 ec 0c             	sub    esp,0xc
  106cac:	50                   	push   eax
  106cad:	e8 76 9f ff ff       	call   100c28 <toupper>
  106cb2:	83 c4 10             	add    esp,0x10
  106cb5:	89 c1                	mov    ecx,eax
  106cb7:	8b 55 08             	mov    edx,DWORD PTR [ebp+0x8]
  106cba:	8b 45 f4             	mov    eax,DWORD PTR [ebp-0xc]
  106cbd:	01 d0                	add    eax,edx
  106cbf:	89 ca                	mov    edx,ecx
  106cc1:	88 10                	mov    BYTE PTR [eax],dl
  106cc3:	83 45 f4 01          	add    DWORD PTR [ebp-0xc],0x1
  106cc7:	83 ec 0c             	sub    esp,0xc
  106cca:	ff 75 08             	push   DWORD PTR [ebp+0x8]
  106ccd:	e8 1e ff ff ff       	call   106bf0 <strlen>
  106cd2:	83 c4 10             	add    esp,0x10
  106cd5:	39 45 f4             	cmp    DWORD PTR [ebp-0xc],eax
  106cd8:	72 c1                	jb     106c9b <strupr+0xf>
  106cda:	90                   	nop
  106cdb:	c9                   	leave  
  106cdc:	c3                   	ret    

00106cdd <strrev>:
  106cdd:	55                   	push   ebp
  106cde:	89 e5                	mov    ebp,esp
  106ce0:	83 ec 10             	sub    esp,0x10
  106ce3:	ff 75 08             	push   DWORD PTR [ebp+0x8]
  106ce6:	e8 05 ff ff ff       	call   106bf0 <strlen>
  106ceb:	83 c4 04             	add    esp,0x4
  106cee:	89 45 f4             	mov    DWORD PTR [ebp-0xc],eax
  106cf1:	c7 45 fc 00 00 00 00 	mov    DWORD PTR [ebp-0x4],0x0
  106cf8:	8b 45 f4             	mov    eax,DWORD PTR [ebp-0xc]
  106cfb:	83 e8 01             	sub    eax,0x1
  106cfe:	89 45 f8             	mov    DWORD PTR [ebp-0x8],eax
  106d01:	eb 39                	jmp    106d3c <strrev+0x5f>
  106d03:	8b 55 fc             	mov    edx,DWORD PTR [ebp-0x4]
  106d06:	8b 45 08             	mov    eax,DWORD PTR [ebp+0x8]
  106d09:	01 d0                	add    eax,edx
  106d0b:	0f b6 00             	movzx  eax,BYTE PTR [eax]
  106d0e:	88 45 f3             	mov    BYTE PTR [ebp-0xd],al
  106d11:	8b 55 f8             	mov    edx,DWORD PTR [ebp-0x8]
  106d14:	8b 45 08             	mov    eax,DWORD PTR [ebp+0x8]
  106d17:	01 d0                	add    eax,edx
  106d19:	8b 4d fc             	mov    ecx,DWORD PTR [ebp-0x4]
  106d1c:	8b 55 08             	mov    edx,DWORD PTR [ebp+0x8]
  106d1f:	01 ca                	add    edx,ecx
  106d21:	0f b6 00             	movzx  eax,BYTE PTR [eax]
  106d24:	88 02                	mov    BYTE PTR [edx],al
  106d26:	8b 55 f8             	mov    edx,DWORD PTR [ebp-0x8]
  106d29:	8b 45 08             	mov    eax,DWORD PTR [ebp+0x8]
  106d2c:	01 c2                	add    edx,eax
  106d2e:	0f b6 45 f3          	movzx  eax,BYTE PTR [ebp-0xd]
  106d32:	88 02                	mov    BYTE PTR [edx],al
  106d34:	83 45 fc 01          	add    DWORD PTR [ebp-0x4],0x1
  106d38:	83 6d f8 01          	sub    DWORD PTR [ebp-0x8],0x1
  106d3c:	8b 45 fc             	mov    eax,DWORD PTR [ebp-0x4]
  106d3f:	3b 45 f8             	cmp    eax,DWORD PTR [ebp-0x8]
  106d42:	7c bf                	jl     106d03 <strrev+0x26>
  106d44:	8b 45 08             	mov    eax,DWORD PTR [ebp+0x8]
  106d47:	c9                   	leave  
  106d48:	c3                   	ret    

00106d49 <strset>:
  106d49:	55                   	push   ebp
  106d4a:	89 e5                	mov    ebp,esp
  106d4c:	83 ec 10             	sub    esp,0x10
  106d4f:	c7 45 fc 00 00 00 00 	mov    DWORD PTR [ebp-0x4],0x0
  106d56:	eb 11                	jmp    106d69 <strset+0x20>
  106d58:	8b 55 08             	mov    edx,DWORD PTR [ebp+0x8]
  106d5b:	8b 45 fc             	mov    eax,DWORD PTR [ebp-0x4]
  106d5e:	01 d0                	add    eax,edx
  106d60:	8b 55 0c             	mov    edx,DWORD PTR [ebp+0xc]
  106d63:	88 10                	mov    BYTE PTR [eax],dl
  106d65:	83 45 fc 01          	add    DWORD PTR [ebp-0x4],0x1
  106d69:	ff 75 08             	push   DWORD PTR [ebp+0x8]
  106d6c:	e8 7f fe ff ff       	call   106bf0 <strlen>
  106d71:	83 c4 04             	add    esp,0x4
  106d74:	39 45 fc             	cmp    DWORD PTR [ebp-0x4],eax
  106d77:	72 df                	jb     106d58 <strset+0xf>
  106d79:	8b 45 08             	mov    eax,DWORD PTR [ebp+0x8]
  106d7c:	c9                   	leave  
  106d7d:	c3                   	ret    

00106d7e <strnset>:
  106d7e:	55                   	push   ebp
  106d7f:	89 e5                	mov    ebp,esp
  106d81:	83 ec 10             	sub    esp,0x10
  106d84:	c7 45 fc 00 00 00 00 	mov    DWORD PTR [ebp-0x4],0x0
  106d8b:	eb 11                	jmp    106d9e <strnset+0x20>
  106d8d:	8b 55 08             	mov    edx,DWORD PTR [ebp+0x8]
  106d90:	8b 45 fc             	mov    eax,DWORD PTR [ebp-0x4]
  106d93:	01 d0                	add    eax,edx
  106d95:	8b 55 0c             	mov    edx,DWORD PTR [ebp+0xc]
  106d98:	88 10                	mov    BYTE PTR [eax],dl
  106d9a:	83 45 fc 01          	add    DWORD PTR [ebp-0x4],0x1
  106d9e:	8b 45 fc             	mov    eax,DWORD PTR [ebp-0x4]
  106da1:	3b 45 10             	cmp    eax,DWORD PTR [ebp+0x10]
  106da4:	72 e7                	jb     106d8d <strnset+0xf>
  106da6:	8b 45 08             	mov    eax,DWORD PTR [ebp+0x8]
  106da9:	c9                   	leave  
  106daa:	c3                   	ret    

00106dab <strhex>:
  106dab:	55                   	push   ebp
  106dac:	89 e5                	mov    ebp,esp
  106dae:	83 ec 18             	sub    esp,0x18
  106db1:	8b 55 10             	mov    edx,DWORD PTR [ebp+0x10]
  106db4:	8b 45 14             	mov    eax,DWORD PTR [ebp+0x14]
  106db7:	88 55 ec             	mov    BYTE PTR [ebp-0x14],dl
  106dba:	88 45 e8             	mov    BYTE PTR [ebp-0x18],al
  106dbd:	8b 45 0c             	mov    eax,DWORD PTR [ebp+0xc]
  106dc0:	89 45 fc             	mov    DWORD PTR [ebp-0x4],eax
  106dc3:	8b 45 fc             	mov    eax,DWORD PTR [ebp-0x4]
  106dc6:	c6 00 00             	mov    BYTE PTR [eax],0x0
  106dc9:	80 7d ec 00          	cmp    BYTE PTR [ebp-0x14],0x0
  106dcd:	74 13                	je     106de2 <strhex+0x37>
  106dcf:	8b 45 0c             	mov    eax,DWORD PTR [ebp+0xc]
  106dd2:	c6 00 30             	mov    BYTE PTR [eax],0x30
  106dd5:	8b 45 0c             	mov    eax,DWORD PTR [ebp+0xc]
  106dd8:	83 c0 01             	add    eax,0x1
  106ddb:	c6 00 78             	mov    BYTE PTR [eax],0x78
  106dde:	83 45 0c 02          	add    DWORD PTR [ebp+0xc],0x2
  106de2:	80 7d e8 01          	cmp    BYTE PTR [ebp-0x18],0x1
  106de6:	75 36                	jne    106e1e <strhex+0x73>
  106de8:	8b 45 08             	mov    eax,DWORD PTR [ebp+0x8]
  106deb:	c1 e8 04             	shr    eax,0x4
  106dee:	0f b6 c0             	movzx  eax,al
  106df1:	83 e0 0f             	and    eax,0xf
  106df4:	0f b6 90 c8 49 11 00 	movzx  edx,BYTE PTR [eax+0x1149c8]
  106dfb:	8b 45 0c             	mov    eax,DWORD PTR [ebp+0xc]
  106dfe:	88 10                	mov    BYTE PTR [eax],dl
  106e00:	83 45 0c 01          	add    DWORD PTR [ebp+0xc],0x1
  106e04:	8b 45 08             	mov    eax,DWORD PTR [ebp+0x8]
  106e07:	0f b6 c0             	movzx  eax,al
  106e0a:	83 e0 0f             	and    eax,0xf
  106e0d:	0f b6 90 c8 49 11 00 	movzx  edx,BYTE PTR [eax+0x1149c8]
  106e14:	8b 45 0c             	mov    eax,DWORD PTR [ebp+0xc]
  106e17:	88 10                	mov    BYTE PTR [eax],dl
  106e19:	e9 54 01 00 00       	jmp    106f72 <strhex+0x1c7>
  106e1e:	80 7d e8 02          	cmp    BYTE PTR [ebp-0x18],0x2
  106e22:	75 6e                	jne    106e92 <strhex+0xe7>
  106e24:	8b 45 08             	mov    eax,DWORD PTR [ebp+0x8]
  106e27:	c1 e8 0c             	shr    eax,0xc
  106e2a:	0f b6 c0             	movzx  eax,al
  106e2d:	83 e0 0f             	and    eax,0xf
  106e30:	0f b6 90 c8 49 11 00 	movzx  edx,BYTE PTR [eax+0x1149c8]
  106e37:	8b 45 0c             	mov    eax,DWORD PTR [ebp+0xc]
  106e3a:	88 10                	mov    BYTE PTR [eax],dl
  106e3c:	83 45 0c 01          	add    DWORD PTR [ebp+0xc],0x1
  106e40:	8b 45 08             	mov    eax,DWORD PTR [ebp+0x8]
  106e43:	c1 e8 08             	shr    eax,0x8
  106e46:	0f b6 c0             	movzx  eax,al
  106e49:	83 e0 0f             	and    eax,0xf
  106e4c:	0f b6 90 c8 49 11 00 	movzx  edx,BYTE PTR [eax+0x1149c8]
  106e53:	8b 45 0c             	mov    eax,DWORD PTR [ebp+0xc]
  106e56:	88 10                	mov    BYTE PTR [eax],dl
  106e58:	83 45 0c 01          	add    DWORD PTR [ebp+0xc],0x1
  106e5c:	8b 45 08             	mov    eax,DWORD PTR [ebp+0x8]
  106e5f:	c1 e8 04             	shr    eax,0x4
  106e62:	0f b6 c0             	movzx  eax,al
  106e65:	83 e0 0f             	and    eax,0xf
  106e68:	0f b6 90 c8 49 11 00 	movzx  edx,BYTE PTR [eax+0x1149c8]
  106e6f:	8b 45 0c             	mov    eax,DWORD PTR [ebp+0xc]
  106e72:	88 10                	mov    BYTE PTR [eax],dl
  106e74:	83 45 0c 01          	add    DWORD PTR [ebp+0xc],0x1
  106e78:	8b 45 08             	mov    eax,DWORD PTR [ebp+0x8]
  106e7b:	0f b6 c0             	movzx  eax,al
  106e7e:	83 e0 0f             	and    eax,0xf
  106e81:	0f b6 90 c8 49 11 00 	movzx  edx,BYTE PTR [eax+0x1149c8]
  106e88:	8b 45 0c             	mov    eax,DWORD PTR [ebp+0xc]
  106e8b:	88 10                	mov    BYTE PTR [eax],dl
  106e8d:	e9 e0 00 00 00       	jmp    106f72 <strhex+0x1c7>
  106e92:	80 7d e8 04          	cmp    BYTE PTR [ebp-0x18],0x4
  106e96:	0f 85 d6 00 00 00    	jne    106f72 <strhex+0x1c7>
  106e9c:	8b 45 08             	mov    eax,DWORD PTR [ebp+0x8]
  106e9f:	c1 e8 1c             	shr    eax,0x1c
  106ea2:	0f b6 c0             	movzx  eax,al
  106ea5:	0f b6 90 c8 49 11 00 	movzx  edx,BYTE PTR [eax+0x1149c8]
  106eac:	8b 45 0c             	mov    eax,DWORD PTR [ebp+0xc]
  106eaf:	88 10                	mov    BYTE PTR [eax],dl
  106eb1:	83 45 0c 01          	add    DWORD PTR [ebp+0xc],0x1
  106eb5:	8b 45 08             	mov    eax,DWORD PTR [ebp+0x8]
  106eb8:	c1 e8 18             	shr    eax,0x18
  106ebb:	0f b6 c0             	movzx  eax,al
  106ebe:	83 e0 0f             	and    eax,0xf
  106ec1:	0f b6 90 c8 49 11 00 	movzx  edx,BYTE PTR [eax+0x1149c8]
  106ec8:	8b 45 0c             	mov    eax,DWORD PTR [ebp+0xc]
  106ecb:	88 10                	mov    BYTE PTR [eax],dl
  106ecd:	83 45 0c 01          	add    DWORD PTR [ebp+0xc],0x1
  106ed1:	8b 45 08             	mov    eax,DWORD PTR [ebp+0x8]
  106ed4:	c1 e8 14             	shr    eax,0x14
  106ed7:	0f b6 c0             	movzx  eax,al
  106eda:	83 e0 0f             	and    eax,0xf
  106edd:	0f b6 90 c8 49 11 00 	movzx  edx,BYTE PTR [eax+0x1149c8]
  106ee4:	8b 45 0c             	mov    eax,DWORD PTR [ebp+0xc]
  106ee7:	88 10                	mov    BYTE PTR [eax],dl
  106ee9:	83 45 0c 01          	add    DWORD PTR [ebp+0xc],0x1
  106eed:	8b 45 08             	mov    eax,DWORD PTR [ebp+0x8]
  106ef0:	c1 e8 10             	shr    eax,0x10
  106ef3:	0f b6 c0             	movzx  eax,al
  106ef6:	83 e0 0f             	and    eax,0xf
  106ef9:	0f b6 90 c8 49 11 00 	movzx  edx,BYTE PTR [eax+0x1149c8]
  106f00:	8b 45 0c             	mov    eax,DWORD PTR [ebp+0xc]
  106f03:	88 10                	mov    BYTE PTR [eax],dl
  106f05:	83 45 0c 01          	add    DWORD PTR [ebp+0xc],0x1
  106f09:	8b 45 08             	mov    eax,DWORD PTR [ebp+0x8]
  106f0c:	c1 e8 0c             	shr    eax,0xc
  106f0f:	0f b6 c0             	movzx  eax,al
  106f12:	83 e0 0f             	and    eax,0xf
  106f15:	0f b6 90 c8 49 11 00 	movzx  edx,BYTE PTR [eax+0x1149c8]
  106f1c:	8b 45 0c             	mov    eax,DWORD PTR [ebp+0xc]
  106f1f:	88 10                	mov    BYTE PTR [eax],dl
  106f21:	83 45 0c 01          	add    DWORD PTR [ebp+0xc],0x1
  106f25:	8b 45 08             	mov    eax,DWORD PTR [ebp+0x8]
  106f28:	c1 e8 08             	shr    eax,0x8
  106f2b:	0f b6 c0             	movzx  eax,al
  106f2e:	83 e0 0f             	and    eax,0xf
  106f31:	0f b6 90 c8 49 11 00 	movzx  edx,BYTE PTR [eax+0x1149c8]
  106f38:	8b 45 0c             	mov    eax,DWORD PTR [ebp+0xc]
  106f3b:	88 10                	mov    BYTE PTR [eax],dl
  106f3d:	83 45 0c 01          	add    DWORD PTR [ebp+0xc],0x1
  106f41:	8b 45 08             	mov    eax,DWORD PTR [ebp+0x8]
  106f44:	c1 e8 04             	shr    eax,0x4
  106f47:	0f b6 c0             	movzx  eax,al
  106f4a:	83 e0 0f             	and    eax,0xf
  106f4d:	0f b6 90 c8 49 11 00 	movzx  edx,BYTE PTR [eax+0x1149c8]
  106f54:	8b 45 0c             	mov    eax,DWORD PTR [ebp+0xc]
  106f57:	88 10                	mov    BYTE PTR [eax],dl
  106f59:	83 45 0c 01          	add    DWORD PTR [ebp+0xc],0x1
  106f5d:	8b 45 08             	mov    eax,DWORD PTR [ebp+0x8]
  106f60:	0f b6 c0             	movzx  eax,al
  106f63:	83 e0 0f             	and    eax,0xf
  106f66:	0f b6 90 c8 49 11 00 	movzx  edx,BYTE PTR [eax+0x1149c8]
  106f6d:	8b 45 0c             	mov    eax,DWORD PTR [ebp+0xc]
  106f70:	88 10                	mov    BYTE PTR [eax],dl
  106f72:	8b 45 fc             	mov    eax,DWORD PTR [ebp-0x4]
  106f75:	c9                   	leave  
  106f76:	c3                   	ret    

00106f77 <streql>:
  106f77:	55                   	push   ebp
  106f78:	89 e5                	mov    ebp,esp
  106f7a:	ff 75 0c             	push   DWORD PTR [ebp+0xc]
  106f7d:	ff 75 08             	push   DWORD PTR [ebp+0x8]
  106f80:	e8 63 fb ff ff       	call   106ae8 <strcmp>
  106f85:	83 c4 08             	add    esp,0x8
  106f88:	85 c0                	test   eax,eax
  106f8a:	75 07                	jne    106f93 <streql+0x1c>
  106f8c:	b8 01 00 00 00       	mov    eax,0x1
  106f91:	eb 05                	jmp    106f98 <streql+0x21>
  106f93:	b8 00 00 00 00       	mov    eax,0x0
  106f98:	c9                   	leave  
  106f99:	c3                   	ret    

00106f9a <stradd>:
  106f9a:	55                   	push   ebp
  106f9b:	89 e5                	mov    ebp,esp
  106f9d:	83 ec 10             	sub    esp,0x10
  106fa0:	83 7d 08 00          	cmp    DWORD PTR [ebp+0x8],0x0
  106fa4:	75 07                	jne    106fad <stradd+0x13>
  106fa6:	b8 00 00 00 00       	mov    eax,0x0
  106fab:	eb 2c                	jmp    106fd9 <stradd+0x3f>
  106fad:	ff 75 08             	push   DWORD PTR [ebp+0x8]
  106fb0:	e8 3b fc ff ff       	call   106bf0 <strlen>
  106fb5:	83 c4 04             	add    esp,0x4
  106fb8:	89 45 fc             	mov    DWORD PTR [ebp-0x4],eax
  106fbb:	8b 55 08             	mov    edx,DWORD PTR [ebp+0x8]
  106fbe:	8b 45 fc             	mov    eax,DWORD PTR [ebp-0x4]
  106fc1:	01 d0                	add    eax,edx
  106fc3:	8b 55 0c             	mov    edx,DWORD PTR [ebp+0xc]
  106fc6:	88 10                	mov    BYTE PTR [eax],dl
  106fc8:	8b 45 fc             	mov    eax,DWORD PTR [ebp-0x4]
  106fcb:	8d 50 01             	lea    edx,[eax+0x1]
  106fce:	8b 45 08             	mov    eax,DWORD PTR [ebp+0x8]
  106fd1:	01 d0                	add    eax,edx
  106fd3:	c6 00 00             	mov    BYTE PTR [eax],0x0
  106fd6:	8b 45 08             	mov    eax,DWORD PTR [ebp+0x8]
  106fd9:	c9                   	leave  
  106fda:	c3                   	ret    

00106fdb <strsplit>:
  106fdb:	55                   	push   ebp
  106fdc:	89 e5                	mov    ebp,esp
  106fde:	83 ec 48             	sub    esp,0x48
  106fe1:	8b 45 0c             	mov    eax,DWORD PTR [ebp+0xc]
  106fe4:	88 45 c4             	mov    BYTE PTR [ebp-0x3c],al
  106fe7:	83 7d 08 00          	cmp    DWORD PTR [ebp+0x8],0x0
  106feb:	75 0a                	jne    106ff7 <strsplit+0x1c>
  106fed:	b8 00 00 00 00       	mov    eax,0x0
  106ff2:	e9 1e 01 00 00       	jmp    107115 <strsplit+0x13a>
  106ff7:	ff 75 08             	push   DWORD PTR [ebp+0x8]
  106ffa:	e8 f1 fb ff ff       	call   106bf0 <strlen>
  106fff:	83 c4 04             	add    esp,0x4
  107002:	85 c0                	test   eax,eax
  107004:	75 0a                	jne    107010 <strsplit+0x35>
  107006:	b8 00 00 00 00       	mov    eax,0x0
  10700b:	e9 05 01 00 00       	jmp    107115 <strsplit+0x13a>
  107010:	ff 75 08             	push   DWORD PTR [ebp+0x8]
  107013:	e8 d8 fb ff ff       	call   106bf0 <strlen>
  107018:	83 c4 04             	add    esp,0x4
  10701b:	89 45 e0             	mov    DWORD PTR [ebp-0x20],eax
  10701e:	c7 45 f4 00 00 00 00 	mov    DWORD PTR [ebp-0xc],0x0
  107025:	c7 45 f0 00 00 00 00 	mov    DWORD PTR [ebp-0x10],0x0
  10702c:	eb 18                	jmp    107046 <strsplit+0x6b>
  10702e:	8b 55 f0             	mov    edx,DWORD PTR [ebp-0x10]
  107031:	8b 45 08             	mov    eax,DWORD PTR [ebp+0x8]
  107034:	01 d0                	add    eax,edx
  107036:	0f b6 00             	movzx  eax,BYTE PTR [eax]
  107039:	38 45 c4             	cmp    BYTE PTR [ebp-0x3c],al
  10703c:	75 04                	jne    107042 <strsplit+0x67>
  10703e:	83 45 f4 01          	add    DWORD PTR [ebp-0xc],0x1
  107042:	83 45 f0 01          	add    DWORD PTR [ebp-0x10],0x1
  107046:	8b 45 e0             	mov    eax,DWORD PTR [ebp-0x20]
  107049:	83 e8 01             	sub    eax,0x1
  10704c:	39 45 f0             	cmp    DWORD PTR [ebp-0x10],eax
  10704f:	7c dd                	jl     10702e <strsplit+0x53>
  107051:	8b 45 f4             	mov    eax,DWORD PTR [ebp-0xc]
  107054:	83 c0 01             	add    eax,0x1
  107057:	c1 e0 02             	shl    eax,0x2
  10705a:	89 45 dc             	mov    DWORD PTR [ebp-0x24],eax
  10705d:	83 ec 08             	sub    esp,0x8
  107060:	6a 08                	push   0x8
  107062:	ff 75 dc             	push   DWORD PTR [ebp-0x24]
  107065:	e8 74 db ff ff       	call   104bde <tcalloc>
  10706a:	83 c4 10             	add    esp,0x10
  10706d:	89 45 d8             	mov    DWORD PTR [ebp-0x28],eax
  107070:	c7 45 ec 00 00 00 00 	mov    DWORD PTR [ebp-0x14],0x0
  107077:	c7 45 e8 00 00 00 00 	mov    DWORD PTR [ebp-0x18],0x0
  10707e:	c7 45 e4 00 00 00 00 	mov    DWORD PTR [ebp-0x1c],0x0
  107085:	eb 7b                	jmp    107102 <strsplit+0x127>
  107087:	83 45 e4 01          	add    DWORD PTR [ebp-0x1c],0x1
  10708b:	8b 55 e4             	mov    edx,DWORD PTR [ebp-0x1c]
  10708e:	8b 45 08             	mov    eax,DWORD PTR [ebp+0x8]
  107091:	01 d0                	add    eax,edx
  107093:	0f b6 00             	movzx  eax,BYTE PTR [eax]
  107096:	38 45 c4             	cmp    BYTE PTR [ebp-0x3c],al
  107099:	74 08                	je     1070a3 <strsplit+0xc8>
  10709b:	8b 45 e4             	mov    eax,DWORD PTR [ebp-0x1c]
  10709e:	3b 45 e0             	cmp    eax,DWORD PTR [ebp-0x20]
  1070a1:	7c e4                	jl     107087 <strsplit+0xac>
  1070a3:	8b 45 e4             	mov    eax,DWORD PTR [ebp-0x1c]
  1070a6:	2b 45 e8             	sub    eax,DWORD PTR [ebp-0x18]
  1070a9:	83 c0 01             	add    eax,0x1
  1070ac:	83 ec 08             	sub    esp,0x8
  1070af:	6a 08                	push   0x8
  1070b1:	50                   	push   eax
  1070b2:	e8 27 db ff ff       	call   104bde <tcalloc>
  1070b7:	83 c4 10             	add    esp,0x10
  1070ba:	89 45 d4             	mov    DWORD PTR [ebp-0x2c],eax
  1070bd:	8b 45 e4             	mov    eax,DWORD PTR [ebp-0x1c]
  1070c0:	2b 45 e8             	sub    eax,DWORD PTR [ebp-0x18]
  1070c3:	89 c1                	mov    ecx,eax
  1070c5:	8b 55 e8             	mov    edx,DWORD PTR [ebp-0x18]
  1070c8:	8b 45 08             	mov    eax,DWORD PTR [ebp+0x8]
  1070cb:	01 d0                	add    eax,edx
  1070cd:	83 ec 04             	sub    esp,0x4
  1070d0:	51                   	push   ecx
  1070d1:	50                   	push   eax
  1070d2:	ff 75 d4             	push   DWORD PTR [ebp-0x2c]
  1070d5:	e8 9c d9 ff ff       	call   104a76 <memcpy>
  1070da:	83 c4 10             	add    esp,0x10
  1070dd:	8b 45 e4             	mov    eax,DWORD PTR [ebp-0x1c]
  1070e0:	83 c0 01             	add    eax,0x1
  1070e3:	89 45 e8             	mov    DWORD PTR [ebp-0x18],eax
  1070e6:	83 45 e4 01          	add    DWORD PTR [ebp-0x1c],0x1
  1070ea:	8b 45 ec             	mov    eax,DWORD PTR [ebp-0x14]
  1070ed:	8d 14 85 00 00 00 00 	lea    edx,[eax*4+0x0]
  1070f4:	8b 45 d8             	mov    eax,DWORD PTR [ebp-0x28]
  1070f7:	01 c2                	add    edx,eax
  1070f9:	8b 45 d4             	mov    eax,DWORD PTR [ebp-0x2c]
  1070fc:	89 02                	mov    DWORD PTR [edx],eax
  1070fe:	83 45 ec 01          	add    DWORD PTR [ebp-0x14],0x1
  107102:	8b 45 e4             	mov    eax,DWORD PTR [ebp-0x1c]
  107105:	3b 45 e0             	cmp    eax,DWORD PTR [ebp-0x20]
  107108:	7c 81                	jl     10708b <strsplit+0xb0>
  10710a:	8b 45 10             	mov    eax,DWORD PTR [ebp+0x10]
  10710d:	8b 55 ec             	mov    edx,DWORD PTR [ebp-0x14]
  107110:	89 10                	mov    DWORD PTR [eax],edx
  107112:	8b 45 d8             	mov    eax,DWORD PTR [ebp-0x28]
  107115:	c9                   	leave  
  107116:	c3                   	ret    

00107117 <string_create>:
  107117:	55                   	push   ebp
  107118:	89 e5                	mov    ebp,esp
  10711a:	83 ec 18             	sub    esp,0x18
  10711d:	e8 57 08 00 00       	call   107979 <tlock>
  107122:	c7 45 f0 00 00 00 00 	mov    DWORD PTR [ebp-0x10],0x0
  107129:	c7 45 f4 00 00 00 00 	mov    DWORD PTR [ebp-0xc],0x0
  107130:	83 7d 0c 00          	cmp    DWORD PTR [ebp+0xc],0x0
  107134:	74 45                	je     10717b <string_create+0x64>
  107136:	83 ec 0c             	sub    esp,0xc
  107139:	ff 75 0c             	push   DWORD PTR [ebp+0xc]
  10713c:	e8 af fa ff ff       	call   106bf0 <strlen>
  107141:	83 c4 10             	add    esp,0x10
  107144:	89 45 f4             	mov    DWORD PTR [ebp-0xc],eax
  107147:	8b 45 f4             	mov    eax,DWORD PTR [ebp-0xc]
  10714a:	85 c0                	test   eax,eax
  10714c:	74 2d                	je     10717b <string_create+0x64>
  10714e:	8b 45 f4             	mov    eax,DWORD PTR [ebp-0xc]
  107151:	83 c0 01             	add    eax,0x1
  107154:	83 ec 08             	sub    esp,0x8
  107157:	6a 08                	push   0x8
  107159:	50                   	push   eax
  10715a:	e8 7f da ff ff       	call   104bde <tcalloc>
  10715f:	83 c4 10             	add    esp,0x10
  107162:	89 45 f0             	mov    DWORD PTR [ebp-0x10],eax
  107165:	8b 55 f4             	mov    edx,DWORD PTR [ebp-0xc]
  107168:	8b 45 f0             	mov    eax,DWORD PTR [ebp-0x10]
  10716b:	83 ec 04             	sub    esp,0x4
  10716e:	52                   	push   edx
  10716f:	ff 75 0c             	push   DWORD PTR [ebp+0xc]
  107172:	50                   	push   eax
  107173:	e8 fe d8 ff ff       	call   104a76 <memcpy>
  107178:	83 c4 10             	add    esp,0x10
  10717b:	e8 08 08 00 00       	call   107988 <tunlock>
  107180:	8b 4d 08             	mov    ecx,DWORD PTR [ebp+0x8]
  107183:	8b 45 f0             	mov    eax,DWORD PTR [ebp-0x10]
  107186:	8b 55 f4             	mov    edx,DWORD PTR [ebp-0xc]
  107189:	89 01                	mov    DWORD PTR [ecx],eax
  10718b:	89 51 04             	mov    DWORD PTR [ecx+0x4],edx
  10718e:	8b 45 08             	mov    eax,DWORD PTR [ebp+0x8]
  107191:	c9                   	leave  
  107192:	c2 04 00             	ret    0x4

00107195 <string_validate>:
  107195:	55                   	push   ebp
  107196:	89 e5                	mov    ebp,esp
  107198:	83 ec 08             	sub    esp,0x8
  10719b:	83 7d 08 00          	cmp    DWORD PTR [ebp+0x8],0x0
  10719f:	75 1b                	jne    1071bc <string_validate+0x27>
  1071a1:	83 ec 04             	sub    esp,0x4
  1071a4:	68 d9 49 11 00       	push   0x1149d9
  1071a9:	6a 00                	push   0x0
  1071ab:	6a 02                	push   0x2
  1071ad:	e8 77 b1 ff ff       	call   102329 <panicf>
  1071b2:	83 c4 10             	add    esp,0x10
  1071b5:	b8 00 00 00 00       	mov    eax,0x0
  1071ba:	eb 05                	jmp    1071c1 <string_validate+0x2c>
  1071bc:	b8 01 00 00 00       	mov    eax,0x1
  1071c1:	c9                   	leave  
  1071c2:	c3                   	ret    

001071c3 <string_clear>:
  1071c3:	55                   	push   ebp
  1071c4:	89 e5                	mov    ebp,esp
  1071c6:	83 ec 08             	sub    esp,0x8
  1071c9:	83 ec 0c             	sub    esp,0xc
  1071cc:	ff 75 08             	push   DWORD PTR [ebp+0x8]
  1071cf:	e8 c1 ff ff ff       	call   107195 <string_validate>
  1071d4:	83 c4 10             	add    esp,0x10
  1071d7:	84 c0                	test   al,al
  1071d9:	75 07                	jne    1071e2 <string_clear+0x1f>
  1071db:	b8 00 00 00 00       	mov    eax,0x0
  1071e0:	eb 43                	jmp    107225 <string_clear+0x62>
  1071e2:	8b 45 08             	mov    eax,DWORD PTR [ebp+0x8]
  1071e5:	8b 00                	mov    eax,DWORD PTR [eax]
  1071e7:	85 c0                	test   eax,eax
  1071e9:	75 11                	jne    1071fc <string_clear+0x39>
  1071eb:	8b 45 08             	mov    eax,DWORD PTR [ebp+0x8]
  1071ee:	c7 40 04 00 00 00 00 	mov    DWORD PTR [eax+0x4],0x0
  1071f5:	b8 01 00 00 00       	mov    eax,0x1
  1071fa:	eb 29                	jmp    107225 <string_clear+0x62>
  1071fc:	8b 45 08             	mov    eax,DWORD PTR [ebp+0x8]
  1071ff:	8b 00                	mov    eax,DWORD PTR [eax]
  107201:	83 ec 0c             	sub    esp,0xc
  107204:	50                   	push   eax
  107205:	e8 01 da ff ff       	call   104c0b <free>
  10720a:	83 c4 10             	add    esp,0x10
  10720d:	8b 45 08             	mov    eax,DWORD PTR [ebp+0x8]
  107210:	c7 00 00 00 00 00    	mov    DWORD PTR [eax],0x0
  107216:	8b 45 08             	mov    eax,DWORD PTR [ebp+0x8]
  107219:	c7 40 04 00 00 00 00 	mov    DWORD PTR [eax+0x4],0x0
  107220:	b8 01 00 00 00       	mov    eax,0x1
  107225:	c9                   	leave  
  107226:	c3                   	ret    

00107227 <string_append_char>:
  107227:	55                   	push   ebp
  107228:	89 e5                	mov    ebp,esp
  10722a:	83 ec 28             	sub    esp,0x28
  10722d:	8b 45 0c             	mov    eax,DWORD PTR [ebp+0xc]
  107230:	88 45 e4             	mov    BYTE PTR [ebp-0x1c],al
  107233:	83 ec 0c             	sub    esp,0xc
  107236:	ff 75 08             	push   DWORD PTR [ebp+0x8]
  107239:	e8 57 ff ff ff       	call   107195 <string_validate>
  10723e:	83 c4 10             	add    esp,0x10
  107241:	84 c0                	test   al,al
  107243:	75 0a                	jne    10724f <string_append_char+0x28>
  107245:	b8 00 00 00 00       	mov    eax,0x0
  10724a:	e9 c3 00 00 00       	jmp    107312 <string_append_char+0xeb>
  10724f:	e8 25 07 00 00       	call   107979 <tlock>
  107254:	8b 45 08             	mov    eax,DWORD PTR [ebp+0x8]
  107257:	8b 40 04             	mov    eax,DWORD PTR [eax+0x4]
  10725a:	83 c0 02             	add    eax,0x2
  10725d:	83 ec 08             	sub    esp,0x8
  107260:	6a 08                	push   0x8
  107262:	50                   	push   eax
  107263:	e8 76 d9 ff ff       	call   104bde <tcalloc>
  107268:	83 c4 10             	add    esp,0x10
  10726b:	89 45 f4             	mov    DWORD PTR [ebp-0xc],eax
  10726e:	8b 45 08             	mov    eax,DWORD PTR [ebp+0x8]
  107271:	8b 40 04             	mov    eax,DWORD PTR [eax+0x4]
  107274:	83 c0 02             	add    eax,0x2
  107277:	83 ec 04             	sub    esp,0x4
  10727a:	50                   	push   eax
  10727b:	6a 00                	push   0x0
  10727d:	ff 75 f4             	push   DWORD PTR [ebp-0xc]
  107280:	e8 30 d8 ff ff       	call   104ab5 <memset>
  107285:	83 c4 10             	add    esp,0x10
  107288:	8b 45 08             	mov    eax,DWORD PTR [ebp+0x8]
  10728b:	8b 00                	mov    eax,DWORD PTR [eax]
  10728d:	85 c0                	test   eax,eax
  10728f:	74 3e                	je     1072cf <string_append_char+0xa8>
  107291:	8b 45 08             	mov    eax,DWORD PTR [ebp+0x8]
  107294:	8b 50 04             	mov    edx,DWORD PTR [eax+0x4]
  107297:	8b 45 08             	mov    eax,DWORD PTR [ebp+0x8]
  10729a:	8b 00                	mov    eax,DWORD PTR [eax]
  10729c:	83 ec 04             	sub    esp,0x4
  10729f:	52                   	push   edx
  1072a0:	50                   	push   eax
  1072a1:	ff 75 f4             	push   DWORD PTR [ebp-0xc]
  1072a4:	e8 cd d7 ff ff       	call   104a76 <memcpy>
  1072a9:	83 c4 10             	add    esp,0x10
  1072ac:	8b 45 08             	mov    eax,DWORD PTR [ebp+0x8]
  1072af:	8b 40 04             	mov    eax,DWORD PTR [eax+0x4]
  1072b2:	89 45 f0             	mov    DWORD PTR [ebp-0x10],eax
  1072b5:	8b 45 08             	mov    eax,DWORD PTR [ebp+0x8]
  1072b8:	8b 00                	mov    eax,DWORD PTR [eax]
  1072ba:	83 ec 0c             	sub    esp,0xc
  1072bd:	50                   	push   eax
  1072be:	e8 48 d9 ff ff       	call   104c0b <free>
  1072c3:	83 c4 10             	add    esp,0x10
  1072c6:	8b 45 08             	mov    eax,DWORD PTR [ebp+0x8]
  1072c9:	8b 55 f0             	mov    edx,DWORD PTR [ebp-0x10]
  1072cc:	89 50 04             	mov    DWORD PTR [eax+0x4],edx
  1072cf:	8b 45 08             	mov    eax,DWORD PTR [ebp+0x8]
  1072d2:	8b 50 04             	mov    edx,DWORD PTR [eax+0x4]
  1072d5:	8b 45 f4             	mov    eax,DWORD PTR [ebp-0xc]
  1072d8:	01 c2                	add    edx,eax
  1072da:	0f b6 45 e4          	movzx  eax,BYTE PTR [ebp-0x1c]
  1072de:	88 02                	mov    BYTE PTR [edx],al
  1072e0:	8b 45 08             	mov    eax,DWORD PTR [ebp+0x8]
  1072e3:	8b 40 04             	mov    eax,DWORD PTR [eax+0x4]
  1072e6:	8d 50 01             	lea    edx,[eax+0x1]
  1072e9:	8b 45 f4             	mov    eax,DWORD PTR [ebp-0xc]
  1072ec:	01 d0                	add    eax,edx
  1072ee:	c6 00 00             	mov    BYTE PTR [eax],0x0
  1072f1:	8b 45 08             	mov    eax,DWORD PTR [ebp+0x8]
  1072f4:	8b 55 f4             	mov    edx,DWORD PTR [ebp-0xc]
  1072f7:	89 10                	mov    DWORD PTR [eax],edx
  1072f9:	8b 45 08             	mov    eax,DWORD PTR [ebp+0x8]
  1072fc:	8b 40 04             	mov    eax,DWORD PTR [eax+0x4]
  1072ff:	8d 50 01             	lea    edx,[eax+0x1]
  107302:	8b 45 08             	mov    eax,DWORD PTR [ebp+0x8]
  107305:	89 50 04             	mov    DWORD PTR [eax+0x4],edx
  107308:	e8 7b 06 00 00       	call   107988 <tunlock>
  10730d:	8b 45 08             	mov    eax,DWORD PTR [ebp+0x8]
  107310:	8b 00                	mov    eax,DWORD PTR [eax]
  107312:	c9                   	leave  
  107313:	c3                   	ret    

00107314 <string_append_int>:
  107314:	55                   	push   ebp
  107315:	89 e5                	mov    ebp,esp
  107317:	83 ec 58             	sub    esp,0x58
  10731a:	8b 45 10             	mov    eax,DWORD PTR [ebp+0x10]
  10731d:	88 45 b4             	mov    BYTE PTR [ebp-0x4c],al
  107320:	e8 54 06 00 00       	call   107979 <tlock>
  107325:	83 ec 0c             	sub    esp,0xc
  107328:	ff 75 08             	push   DWORD PTR [ebp+0x8]
  10732b:	e8 65 fe ff ff       	call   107195 <string_validate>
  107330:	83 c4 10             	add    esp,0x10
  107333:	84 c0                	test   al,al
  107335:	75 07                	jne    10733e <string_append_int+0x2a>
  107337:	b8 00 00 00 00       	mov    eax,0x0
  10733c:	eb 33                	jmp    107371 <string_append_int+0x5d>
  10733e:	0f b6 45 b4          	movzx  eax,BYTE PTR [ebp-0x4c]
  107342:	83 ec 04             	sub    esp,0x4
  107345:	50                   	push   eax
  107346:	8d 45 b8             	lea    eax,[ebp-0x48]
  107349:	50                   	push   eax
  10734a:	ff 75 0c             	push   DWORD PTR [ebp+0xc]
  10734d:	e8 49 9c ff ff       	call   100f9b <ltoa>
  107352:	83 c4 10             	add    esp,0x10
  107355:	83 ec 08             	sub    esp,0x8
  107358:	8d 45 b8             	lea    eax,[ebp-0x48]
  10735b:	50                   	push   eax
  10735c:	ff 75 08             	push   DWORD PTR [ebp+0x8]
  10735f:	e8 0f 00 00 00       	call   107373 <string_append>
  107364:	83 c4 10             	add    esp,0x10
  107367:	e8 1c 06 00 00       	call   107988 <tunlock>
  10736c:	8b 45 08             	mov    eax,DWORD PTR [ebp+0x8]
  10736f:	8b 00                	mov    eax,DWORD PTR [eax]
  107371:	c9                   	leave  
  107372:	c3                   	ret    

00107373 <string_append>:
  107373:	55                   	push   ebp
  107374:	89 e5                	mov    ebp,esp
  107376:	53                   	push   ebx
  107377:	83 ec 14             	sub    esp,0x14
  10737a:	e8 fa 05 00 00       	call   107979 <tlock>
  10737f:	83 ec 0c             	sub    esp,0xc
  107382:	ff 75 08             	push   DWORD PTR [ebp+0x8]
  107385:	e8 0b fe ff ff       	call   107195 <string_validate>
  10738a:	83 c4 10             	add    esp,0x10
  10738d:	84 c0                	test   al,al
  10738f:	75 0a                	jne    10739b <string_append+0x28>
  107391:	b8 00 00 00 00       	mov    eax,0x0
  107396:	e9 f9 00 00 00       	jmp    107494 <string_append+0x121>
  10739b:	8b 45 08             	mov    eax,DWORD PTR [ebp+0x8]
  10739e:	8b 58 04             	mov    ebx,DWORD PTR [eax+0x4]
  1073a1:	83 ec 0c             	sub    esp,0xc
  1073a4:	ff 75 0c             	push   DWORD PTR [ebp+0xc]
  1073a7:	e8 44 f8 ff ff       	call   106bf0 <strlen>
  1073ac:	83 c4 10             	add    esp,0x10
  1073af:	01 d8                	add    eax,ebx
  1073b1:	83 c0 01             	add    eax,0x1
  1073b4:	89 45 f4             	mov    DWORD PTR [ebp-0xc],eax
  1073b7:	83 ec 08             	sub    esp,0x8
  1073ba:	6a 08                	push   0x8
  1073bc:	ff 75 f4             	push   DWORD PTR [ebp-0xc]
  1073bf:	e8 1a d8 ff ff       	call   104bde <tcalloc>
  1073c4:	83 c4 10             	add    esp,0x10
  1073c7:	89 45 f0             	mov    DWORD PTR [ebp-0x10],eax
  1073ca:	8b 45 08             	mov    eax,DWORD PTR [ebp+0x8]
  1073cd:	8b 40 04             	mov    eax,DWORD PTR [eax+0x4]
  1073d0:	83 c0 02             	add    eax,0x2
  1073d3:	83 ec 04             	sub    esp,0x4
  1073d6:	50                   	push   eax
  1073d7:	6a 00                	push   0x0
  1073d9:	ff 75 f0             	push   DWORD PTR [ebp-0x10]
  1073dc:	e8 d4 d6 ff ff       	call   104ab5 <memset>
  1073e1:	83 c4 10             	add    esp,0x10
  1073e4:	8b 45 08             	mov    eax,DWORD PTR [ebp+0x8]
  1073e7:	8b 00                	mov    eax,DWORD PTR [eax]
  1073e9:	85 c0                	test   eax,eax
  1073eb:	74 3e                	je     10742b <string_append+0xb8>
  1073ed:	8b 45 08             	mov    eax,DWORD PTR [ebp+0x8]
  1073f0:	8b 50 04             	mov    edx,DWORD PTR [eax+0x4]
  1073f3:	8b 45 08             	mov    eax,DWORD PTR [ebp+0x8]
  1073f6:	8b 00                	mov    eax,DWORD PTR [eax]
  1073f8:	83 ec 04             	sub    esp,0x4
  1073fb:	52                   	push   edx
  1073fc:	50                   	push   eax
  1073fd:	ff 75 f0             	push   DWORD PTR [ebp-0x10]
  107400:	e8 71 d6 ff ff       	call   104a76 <memcpy>
  107405:	83 c4 10             	add    esp,0x10
  107408:	8b 45 08             	mov    eax,DWORD PTR [ebp+0x8]
  10740b:	8b 40 04             	mov    eax,DWORD PTR [eax+0x4]
  10740e:	89 45 ec             	mov    DWORD PTR [ebp-0x14],eax
  107411:	8b 45 08             	mov    eax,DWORD PTR [ebp+0x8]
  107414:	8b 00                	mov    eax,DWORD PTR [eax]
  107416:	83 ec 0c             	sub    esp,0xc
  107419:	50                   	push   eax
  10741a:	e8 ec d7 ff ff       	call   104c0b <free>
  10741f:	83 c4 10             	add    esp,0x10
  107422:	8b 45 08             	mov    eax,DWORD PTR [ebp+0x8]
  107425:	8b 55 ec             	mov    edx,DWORD PTR [ebp-0x14]
  107428:	89 50 04             	mov    DWORD PTR [eax+0x4],edx
  10742b:	83 ec 0c             	sub    esp,0xc
  10742e:	ff 75 0c             	push   DWORD PTR [ebp+0xc]
  107431:	e8 ba f7 ff ff       	call   106bf0 <strlen>
  107436:	83 c4 10             	add    esp,0x10
  107439:	89 c1                	mov    ecx,eax
  10743b:	8b 45 08             	mov    eax,DWORD PTR [ebp+0x8]
  10743e:	8b 50 04             	mov    edx,DWORD PTR [eax+0x4]
  107441:	8b 45 f0             	mov    eax,DWORD PTR [ebp-0x10]
  107444:	01 d0                	add    eax,edx
  107446:	83 ec 04             	sub    esp,0x4
  107449:	51                   	push   ecx
  10744a:	ff 75 0c             	push   DWORD PTR [ebp+0xc]
  10744d:	50                   	push   eax
  10744e:	e8 23 d6 ff ff       	call   104a76 <memcpy>
  107453:	83 c4 10             	add    esp,0x10
  107456:	8b 45 08             	mov    eax,DWORD PTR [ebp+0x8]
  107459:	8b 55 f0             	mov    edx,DWORD PTR [ebp-0x10]
  10745c:	89 10                	mov    DWORD PTR [eax],edx
  10745e:	83 ec 0c             	sub    esp,0xc
  107461:	ff 75 0c             	push   DWORD PTR [ebp+0xc]
  107464:	e8 87 f7 ff ff       	call   106bf0 <strlen>
  107469:	83 c4 10             	add    esp,0x10
  10746c:	89 c2                	mov    edx,eax
  10746e:	8b 45 08             	mov    eax,DWORD PTR [ebp+0x8]
  107471:	8b 40 04             	mov    eax,DWORD PTR [eax+0x4]
  107474:	01 c2                	add    edx,eax
  107476:	8b 45 08             	mov    eax,DWORD PTR [ebp+0x8]
  107479:	89 50 04             	mov    DWORD PTR [eax+0x4],edx
  10747c:	8b 45 08             	mov    eax,DWORD PTR [ebp+0x8]
  10747f:	8b 50 04             	mov    edx,DWORD PTR [eax+0x4]
  107482:	8b 45 f0             	mov    eax,DWORD PTR [ebp-0x10]
  107485:	01 d0                	add    eax,edx
  107487:	c6 00 00             	mov    BYTE PTR [eax],0x0
  10748a:	e8 f9 04 00 00       	call   107988 <tunlock>
  10748f:	8b 45 08             	mov    eax,DWORD PTR [ebp+0x8]
  107492:	8b 00                	mov    eax,DWORD PTR [eax]
  107494:	8b 5d fc             	mov    ebx,DWORD PTR [ebp-0x4]
  107497:	c9                   	leave  
  107498:	c3                   	ret    

00107499 <sysinfo_get_name>:
  107499:	55                   	push   ebp
  10749a:	89 e5                	mov    ebp,esp
  10749c:	a1 80 de 10 00       	mov    eax,ds:0x10de80
  1074a1:	5d                   	pop    ebp
  1074a2:	c3                   	ret    

001074a3 <sysinfo_get_version>:
  1074a3:	55                   	push   ebp
  1074a4:	89 e5                	mov    ebp,esp
  1074a6:	a1 84 de 10 00       	mov    eax,ds:0x10de84
  1074ab:	5d                   	pop    ebp
  1074ac:	c3                   	ret    

001074ad <sysinfo_get_dev_status>:
  1074ad:	55                   	push   ebp
  1074ae:	89 e5                	mov    ebp,esp
  1074b0:	a1 88 de 10 00       	mov    eax,ds:0x10de88
  1074b5:	5d                   	pop    ebp
  1074b6:	c3                   	ret    

001074b7 <sysinfo_print_info>:
  1074b7:	55                   	push   ebp
  1074b8:	89 e5                	mov    ebp,esp
  1074ba:	53                   	push   ebx
  1074bb:	83 ec 64             	sub    esp,0x64
  1074be:	83 ec 08             	sub    esp,0x8
  1074c1:	6a 00                	push   0x0
  1074c3:	6a 00                	push   0x0
  1074c5:	e8 77 1d 00 00       	call   109241 <vga_set_cursor>
  1074ca:	83 c4 10             	add    esp,0x10
  1074cd:	83 ec 08             	sub    esp,0x8
  1074d0:	6a 0d                	push   0xd
  1074d2:	68 48 4e 11 00       	push   0x114e48
  1074d7:	e8 ad 18 00 00       	call   108d89 <vga_writeln_fg>
  1074dc:	83 c4 10             	add    esp,0x10
  1074df:	83 ec 08             	sub    esp,0x8
  1074e2:	6a 08                	push   0x8
  1074e4:	68 64 4e 11 00       	push   0x114e64
  1074e9:	e8 9b 18 00 00       	call   108d89 <vga_writeln_fg>
  1074ee:	83 c4 10             	add    esp,0x10
  1074f1:	83 ec 08             	sub    esp,0x8
  1074f4:	6a 0e                	push   0xe
  1074f6:	68 70 4e 11 00       	push   0x114e70
  1074fb:	e8 ab 17 00 00       	call   108cab <vga_write_fg>
  107500:	83 c4 10             	add    esp,0x10
  107503:	8d 45 98             	lea    eax,[ebp-0x68]
  107506:	83 ec 0c             	sub    esp,0xc
  107509:	50                   	push   eax
  10750a:	e8 b5 d7 ff ff       	call   104cc4 <mboot_get>
  10750f:	83 c4 0c             	add    esp,0xc
  107512:	8b 45 d8             	mov    eax,DWORD PTR [ebp-0x28]
  107515:	83 ec 0c             	sub    esp,0xc
  107518:	50                   	push   eax
  107519:	e8 3e 18 00 00       	call   108d5c <vga_writeln>
  10751e:	83 c4 10             	add    esp,0x10
  107521:	83 ec 08             	sub    esp,0x8
  107524:	6a 0e                	push   0xe
  107526:	68 8a 4e 11 00       	push   0x114e8a
  10752b:	e8 7b 17 00 00       	call   108cab <vga_write_fg>
  107530:	83 c4 10             	add    esp,0x10
  107533:	e8 5b bc ff ff       	call   103193 <kernel_address_end>
  107538:	89 c3                	mov    ebx,eax
  10753a:	e8 4a bc ff ff       	call   103189 <kernel_address_start>
  10753f:	83 ec 04             	sub    esp,0x4
  107542:	53                   	push   ebx
  107543:	50                   	push   eax
  107544:	68 a4 4e 11 00       	push   0x114ea4
  107549:	e8 4e 1c 00 00       	call   10919c <vga_printf>
  10754e:	83 c4 10             	add    esp,0x10
  107551:	83 ec 08             	sub    esp,0x8
  107554:	6a 0e                	push   0xe
  107556:	68 b3 4e 11 00       	push   0x114eb3
  10755b:	e8 4b 17 00 00       	call   108cab <vga_write_fg>
  107560:	83 c4 10             	add    esp,0x10
  107563:	a1 d0 8c 51 00       	mov    eax,ds:0x518cd0
  107568:	c1 e8 14             	shr    eax,0x14
  10756b:	83 ec 08             	sub    esp,0x8
  10756e:	50                   	push   eax
  10756f:	68 cd 4e 11 00       	push   0x114ecd
  107574:	e8 23 1c 00 00       	call   10919c <vga_printf>
  107579:	83 c4 10             	add    esp,0x10
  10757c:	83 ec 0c             	sub    esp,0xc
  10757f:	6a 22                	push   0x22
  107581:	e8 1a 1d 00 00       	call   1092a0 <vga_set_cursor_x>
  107586:	83 c4 10             	add    esp,0x10
  107589:	83 ec 0c             	sub    esp,0xc
  10758c:	6a 07                	push   0x7
  10758e:	e8 6a 1e 00 00       	call   1093fd <vga_set_fg>
  107593:	83 c4 10             	add    esp,0x10
  107596:	a1 d0 8c 51 00       	mov    eax,ds:0x518cd0
  10759b:	83 ec 08             	sub    esp,0x8
  10759e:	50                   	push   eax
  10759f:	68 d4 4e 11 00       	push   0x114ed4
  1075a4:	e8 f3 1b 00 00       	call   10919c <vga_printf>
  1075a9:	83 c4 10             	add    esp,0x10
  1075ac:	83 ec 0c             	sub    esp,0xc
  1075af:	6a 0f                	push   0xf
  1075b1:	e8 47 1e 00 00       	call   1093fd <vga_set_fg>
  1075b6:	83 c4 10             	add    esp,0x10
  1075b9:	83 ec 08             	sub    esp,0x8
  1075bc:	6a 0e                	push   0xe
  1075be:	68 e9 4e 11 00       	push   0x114ee9
  1075c3:	e8 e3 16 00 00       	call   108cab <vga_write_fg>
  1075c8:	83 c4 10             	add    esp,0x10
  1075cb:	e8 3b d2 ff ff       	call   10480b <mm_amount_installed>
  1075d0:	c1 e8 14             	shr    eax,0x14
  1075d3:	83 ec 08             	sub    esp,0x8
  1075d6:	50                   	push   eax
  1075d7:	68 cd 4e 11 00       	push   0x114ecd
  1075dc:	e8 bb 1b 00 00       	call   10919c <vga_printf>
  1075e1:	83 c4 10             	add    esp,0x10
  1075e4:	83 ec 0c             	sub    esp,0xc
  1075e7:	6a 22                	push   0x22
  1075e9:	e8 b2 1c 00 00       	call   1092a0 <vga_set_cursor_x>
  1075ee:	83 c4 10             	add    esp,0x10
  1075f1:	83 ec 0c             	sub    esp,0xc
  1075f4:	6a 07                	push   0x7
  1075f6:	e8 02 1e 00 00       	call   1093fd <vga_set_fg>
  1075fb:	83 c4 10             	add    esp,0x10
  1075fe:	e8 08 d2 ff ff       	call   10480b <mm_amount_installed>
  107603:	83 ec 08             	sub    esp,0x8
  107606:	50                   	push   eax
  107607:	68 d4 4e 11 00       	push   0x114ed4
  10760c:	e8 8b 1b 00 00       	call   10919c <vga_printf>
  107611:	83 c4 10             	add    esp,0x10
  107614:	83 ec 0c             	sub    esp,0xc
  107617:	6a 0f                	push   0xf
  107619:	e8 df 1d 00 00       	call   1093fd <vga_set_fg>
  10761e:	83 c4 10             	add    esp,0x10
  107621:	83 ec 08             	sub    esp,0x8
  107624:	6a 0e                	push   0xe
  107626:	68 03 4f 11 00       	push   0x114f03
  10762b:	e8 7b 16 00 00       	call   108cab <vga_write_fg>
  107630:	83 c4 10             	add    esp,0x10
  107633:	e8 4a d3 ff ff       	call   104982 <mm_amount_reserved>
  107638:	c1 e8 14             	shr    eax,0x14
  10763b:	83 ec 08             	sub    esp,0x8
  10763e:	50                   	push   eax
  10763f:	68 cd 4e 11 00       	push   0x114ecd
  107644:	e8 53 1b 00 00       	call   10919c <vga_printf>
  107649:	83 c4 10             	add    esp,0x10
  10764c:	83 ec 0c             	sub    esp,0xc
  10764f:	6a 22                	push   0x22
  107651:	e8 4a 1c 00 00       	call   1092a0 <vga_set_cursor_x>
  107656:	83 c4 10             	add    esp,0x10
  107659:	83 ec 0c             	sub    esp,0xc
  10765c:	6a 07                	push   0x7
  10765e:	e8 9a 1d 00 00       	call   1093fd <vga_set_fg>
  107663:	83 c4 10             	add    esp,0x10
  107666:	e8 a0 d1 ff ff       	call   10480b <mm_amount_installed>
  10766b:	83 ec 08             	sub    esp,0x8
  10766e:	50                   	push   eax
  10766f:	68 1d 4f 11 00       	push   0x114f1d
  107674:	e8 23 1b 00 00       	call   10919c <vga_printf>
  107679:	83 c4 10             	add    esp,0x10
  10767c:	83 ec 0c             	sub    esp,0xc
  10767f:	6a 0f                	push   0xf
  107681:	e8 77 1d 00 00       	call   1093fd <vga_set_fg>
  107686:	83 c4 10             	add    esp,0x10
  107689:	83 ec 08             	sub    esp,0x8
  10768c:	6a 0e                	push   0xe
  10768e:	68 31 4f 11 00       	push   0x114f31
  107693:	e8 13 16 00 00       	call   108cab <vga_write_fg>
  107698:	83 c4 10             	add    esp,0x10
  10769b:	e8 ec d2 ff ff       	call   10498c <mm_amount_used>
  1076a0:	c1 e8 14             	shr    eax,0x14
  1076a3:	83 ec 08             	sub    esp,0x8
  1076a6:	50                   	push   eax
  1076a7:	68 cd 4e 11 00       	push   0x114ecd
  1076ac:	e8 eb 1a 00 00       	call   10919c <vga_printf>
  1076b1:	83 c4 10             	add    esp,0x10
  1076b4:	83 ec 0c             	sub    esp,0xc
  1076b7:	6a 22                	push   0x22
  1076b9:	e8 e2 1b 00 00       	call   1092a0 <vga_set_cursor_x>
  1076be:	83 c4 10             	add    esp,0x10
  1076c1:	83 ec 0c             	sub    esp,0xc
  1076c4:	6a 07                	push   0x7
  1076c6:	e8 32 1d 00 00       	call   1093fd <vga_set_fg>
  1076cb:	83 c4 10             	add    esp,0x10
  1076ce:	e8 b9 d2 ff ff       	call   10498c <mm_amount_used>
  1076d3:	83 ec 08             	sub    esp,0x8
  1076d6:	50                   	push   eax
  1076d7:	68 1d 4f 11 00       	push   0x114f1d
  1076dc:	e8 bb 1a 00 00       	call   10919c <vga_printf>
  1076e1:	83 c4 10             	add    esp,0x10
  1076e4:	83 ec 0c             	sub    esp,0xc
  1076e7:	6a 0f                	push   0xf
  1076e9:	e8 0f 1d 00 00       	call   1093fd <vga_set_fg>
  1076ee:	83 c4 10             	add    esp,0x10
  1076f1:	83 ec 08             	sub    esp,0x8
  1076f4:	6a 0e                	push   0xe
  1076f6:	68 4b 4f 11 00       	push   0x114f4b
  1076fb:	e8 ab 15 00 00       	call   108cab <vga_write_fg>
  107700:	83 c4 10             	add    esp,0x10
  107703:	e8 8e d2 ff ff       	call   104996 <mm_amount_free>
  107708:	c1 e8 14             	shr    eax,0x14
  10770b:	83 ec 08             	sub    esp,0x8
  10770e:	50                   	push   eax
  10770f:	68 cd 4e 11 00       	push   0x114ecd
  107714:	e8 83 1a 00 00       	call   10919c <vga_printf>
  107719:	83 c4 10             	add    esp,0x10
  10771c:	83 ec 0c             	sub    esp,0xc
  10771f:	6a 22                	push   0x22
  107721:	e8 7a 1b 00 00       	call   1092a0 <vga_set_cursor_x>
  107726:	83 c4 10             	add    esp,0x10
  107729:	83 ec 0c             	sub    esp,0xc
  10772c:	6a 07                	push   0x7
  10772e:	e8 ca 1c 00 00       	call   1093fd <vga_set_fg>
  107733:	83 c4 10             	add    esp,0x10
  107736:	e8 5b d2 ff ff       	call   104996 <mm_amount_free>
  10773b:	83 ec 08             	sub    esp,0x8
  10773e:	50                   	push   eax
  10773f:	68 d4 4e 11 00       	push   0x114ed4
  107744:	e8 53 1a 00 00       	call   10919c <vga_printf>
  107749:	83 c4 10             	add    esp,0x10
  10774c:	83 ec 0c             	sub    esp,0xc
  10774f:	6a 0f                	push   0xf
  107751:	e8 a7 1c 00 00       	call   1093fd <vga_set_fg>
  107756:	83 c4 10             	add    esp,0x10
  107759:	83 ec 08             	sub    esp,0x8
  10775c:	6a 0e                	push   0xe
  10775e:	68 65 4f 11 00       	push   0x114f65
  107763:	e8 43 15 00 00       	call   108cab <vga_write_fg>
  107768:	83 c4 10             	add    esp,0x10
  10776b:	e8 e9 05 00 00       	call   107d59 <taskmgr_get_cpu_usage>
  107770:	83 ec 04             	sub    esp,0x4
  107773:	8d 64 24 f8          	lea    esp,[esp-0x8]
  107777:	dd 1c 24             	fstp   QWORD PTR [esp]
  10777a:	68 7f 4f 11 00       	push   0x114f7f
  10777f:	e8 18 1a 00 00       	call   10919c <vga_printf>
  107784:	83 c4 10             	add    esp,0x10
  107787:	83 ec 0c             	sub    esp,0xc
  10778a:	68 82 4f 11 00       	push   0x114f82
  10778f:	e8 c8 15 00 00       	call   108d5c <vga_writeln>
  107794:	83 c4 10             	add    esp,0x10
  107797:	90                   	nop
  107798:	8b 5d fc             	mov    ebx,DWORD PTR [ebp-0x4]
  10779b:	c9                   	leave  
  10779c:	c3                   	ret    

0010779d <cli>:
  10779d:	55                   	push   ebp
  10779e:	89 e5                	mov    ebp,esp
  1077a0:	fa                   	cli    
  1077a1:	90                   	nop
  1077a2:	5d                   	pop    ebp
  1077a3:	c3                   	ret    

001077a4 <sti>:
  1077a4:	55                   	push   ebp
  1077a5:	89 e5                	mov    ebp,esp
  1077a7:	fb                   	sti    
  1077a8:	90                   	nop
  1077a9:	5d                   	pop    ebp
  1077aa:	c3                   	ret    

001077ab <taskmgr_init>:
  1077ab:	55                   	push   ebp
  1077ac:	89 e5                	mov    ebp,esp
  1077ae:	83 ec 08             	sub    esp,0x8
  1077b1:	83 ec 08             	sub    esp,0x8
  1077b4:	6a 04                	push   0x4
  1077b6:	68 00 40 00 00       	push   0x4000
  1077bb:	e8 1e d4 ff ff       	call   104bde <tcalloc>
  1077c0:	83 c4 10             	add    esp,0x10
  1077c3:	a3 34 8e 51 00       	mov    ds:0x518e34,eax
  1077c8:	a1 34 8e 51 00       	mov    eax,ds:0x518e34
  1077cd:	8b 55 08             	mov    edx,DWORD PTR [ebp+0x8]
  1077d0:	89 10                	mov    DWORD PTR [eax],edx
  1077d2:	a1 18 8e 51 00       	mov    eax,ds:0x518e18
  1077d7:	83 c0 01             	add    eax,0x1
  1077da:	a3 18 8e 51 00       	mov    ds:0x518e18,eax
  1077df:	8b 45 08             	mov    eax,DWORD PTR [ebp+0x8]
  1077e2:	a3 30 8e 51 00       	mov    ds:0x518e30,eax
  1077e7:	c6 05 1c 8e 51 00 00 	mov    BYTE PTR ds:0x518e1c,0x0
  1077ee:	c7 05 20 8e 51 00 00 00 00 00 	mov    DWORD PTR ds:0x518e20,0x0
  1077f8:	c7 05 18 8e 51 00 01 00 00 00 	mov    DWORD PTR ds:0x518e18,0x1
  107802:	c7 05 24 8e 51 00 00 00 00 00 	mov    DWORD PTR ds:0x518e24,0x0
  10780c:	90                   	nop
  10780d:	c9                   	leave  
  10780e:	c3                   	ret    

0010780f <taskmgr_start>:
  10780f:	55                   	push   ebp
  107810:	89 e5                	mov    ebp,esp
  107812:	c6 05 1c 8e 51 00 01 	mov    BYTE PTR ds:0x518e1c,0x1
  107819:	90                   	nop
  10781a:	5d                   	pop    ebp
  10781b:	c3                   	ret    

0010781c <taskmgr_ready_thread>:
  10781c:	55                   	push   ebp
  10781d:	89 e5                	mov    ebp,esp
  10781f:	83 ec 08             	sub    esp,0x8
  107822:	e8 52 01 00 00       	call   107979 <tlock>
  107827:	a1 18 8e 51 00       	mov    eax,ds:0x518e18
  10782c:	3d ff 0f 00 00       	cmp    eax,0xfff
  107831:	77 40                	ja     107873 <taskmgr_ready_thread+0x57>
  107833:	a1 34 8e 51 00       	mov    eax,ds:0x518e34
  107838:	8b 15 18 8e 51 00    	mov    edx,DWORD PTR ds:0x518e18
  10783e:	c1 e2 02             	shl    edx,0x2
  107841:	01 c2                	add    edx,eax
  107843:	8b 45 08             	mov    eax,DWORD PTR [ebp+0x8]
  107846:	89 02                	mov    DWORD PTR [edx],eax
  107848:	a1 18 8e 51 00       	mov    eax,ds:0x518e18
  10784d:	83 c0 01             	add    eax,0x1
  107850:	a3 18 8e 51 00       	mov    ds:0x518e18,eax
  107855:	8b 45 08             	mov    eax,DWORD PTR [ebp+0x8]
  107858:	8b 40 24             	mov    eax,DWORD PTR [eax+0x24]
  10785b:	83 ec 08             	sub    esp,0x8
  10785e:	50                   	push   eax
  10785f:	68 e8 53 11 00       	push   0x1153e8
  107864:	e8 14 9f ff ff       	call   10177d <debug_info>
  107869:	83 c4 10             	add    esp,0x10
  10786c:	e8 17 01 00 00       	call   107988 <tunlock>
  107871:	eb 01                	jmp    107874 <taskmgr_ready_thread+0x58>
  107873:	90                   	nop
  107874:	c9                   	leave  
  107875:	c3                   	ret    

00107876 <taskmgr_unready_thread>:
  107876:	55                   	push   ebp
  107877:	89 e5                	mov    ebp,esp
  107879:	83 ec 18             	sub    esp,0x18
  10787c:	c7 45 f4 00 00 00 00 	mov    DWORD PTR [ebp-0xc],0x0
  107883:	eb 73                	jmp    1078f8 <taskmgr_unready_thread+0x82>
  107885:	a1 34 8e 51 00       	mov    eax,ds:0x518e34
  10788a:	8b 55 f4             	mov    edx,DWORD PTR [ebp-0xc]
  10788d:	c1 e2 02             	shl    edx,0x2
  107890:	01 d0                	add    eax,edx
  107892:	8b 00                	mov    eax,DWORD PTR [eax]
  107894:	85 c0                	test   eax,eax
  107896:	74 5b                	je     1078f3 <taskmgr_unready_thread+0x7d>
  107898:	a1 34 8e 51 00       	mov    eax,ds:0x518e34
  10789d:	8b 55 f4             	mov    edx,DWORD PTR [ebp-0xc]
  1078a0:	c1 e2 02             	shl    edx,0x2
  1078a3:	01 d0                	add    eax,edx
  1078a5:	8b 00                	mov    eax,DWORD PTR [eax]
  1078a7:	39 45 08             	cmp    DWORD PTR [ebp+0x8],eax
  1078aa:	75 48                	jne    1078f4 <taskmgr_unready_thread+0x7e>
  1078ac:	e8 c8 00 00 00       	call   107979 <tlock>
  1078b1:	83 ec 0c             	sub    esp,0xc
  1078b4:	68 f9 53 11 00       	push   0x1153f9
  1078b9:	e8 bf 9e ff ff       	call   10177d <debug_info>
  1078be:	83 c4 10             	add    esp,0x10
  1078c1:	a1 18 8e 51 00       	mov    eax,ds:0x518e18
  1078c6:	83 e8 01             	sub    eax,0x1
  1078c9:	a3 18 8e 51 00       	mov    ds:0x518e18,eax
  1078ce:	c7 05 30 8e 51 00 00 00 00 00 	mov    DWORD PTR ds:0x518e30,0x0
  1078d8:	c7 05 20 8e 51 00 00 00 00 00 	mov    DWORD PTR ds:0x518e20,0x0
  1078e2:	c7 05 24 8e 51 00 00 00 00 00 	mov    DWORD PTR ds:0x518e24,0x0
  1078ec:	e8 97 00 00 00       	call   107988 <tunlock>
  1078f1:	eb 0f                	jmp    107902 <taskmgr_unready_thread+0x8c>
  1078f3:	90                   	nop
  1078f4:	83 45 f4 01          	add    DWORD PTR [ebp-0xc],0x1
  1078f8:	a1 18 8e 51 00       	mov    eax,ds:0x518e18
  1078fd:	39 45 f4             	cmp    DWORD PTR [ebp-0xc],eax
  107900:	72 83                	jb     107885 <taskmgr_unready_thread+0xf>
  107902:	c9                   	leave  
  107903:	c3                   	ret    

00107904 <taskmgr_terminate>:
  107904:	55                   	push   ebp
  107905:	89 e5                	mov    ebp,esp
  107907:	83 ec 10             	sub    esp,0x10
  10790a:	e8 8e fe ff ff       	call   10779d <cli>
  10790f:	c7 45 fc 00 00 00 00 	mov    DWORD PTR [ebp-0x4],0x0
  107916:	eb 4b                	jmp    107963 <taskmgr_terminate+0x5f>
  107918:	a1 34 8e 51 00       	mov    eax,ds:0x518e34
  10791d:	8b 55 fc             	mov    edx,DWORD PTR [ebp-0x4]
  107920:	c1 e2 02             	shl    edx,0x2
  107923:	01 d0                	add    eax,edx
  107925:	8b 00                	mov    eax,DWORD PTR [eax]
  107927:	85 c0                	test   eax,eax
  107929:	74 33                	je     10795e <taskmgr_terminate+0x5a>
  10792b:	a1 34 8e 51 00       	mov    eax,ds:0x518e34
  107930:	8b 55 fc             	mov    edx,DWORD PTR [ebp-0x4]
  107933:	c1 e2 02             	shl    edx,0x2
  107936:	01 d0                	add    eax,edx
  107938:	8b 00                	mov    eax,DWORD PTR [eax]
  10793a:	39 45 08             	cmp    DWORD PTR [ebp+0x8],eax
  10793d:	75 20                	jne    10795f <taskmgr_terminate+0x5b>
  10793f:	a1 34 8e 51 00       	mov    eax,ds:0x518e34
  107944:	8b 55 fc             	mov    edx,DWORD PTR [ebp-0x4]
  107947:	c1 e2 02             	shl    edx,0x2
  10794a:	01 d0                	add    eax,edx
  10794c:	8b 00                	mov    eax,DWORD PTR [eax]
  10794e:	c6 40 31 01          	mov    BYTE PTR [eax+0x31],0x1
  107952:	e8 4d fe ff ff       	call   1077a4 <sti>
  107957:	b8 01 00 00 00       	mov    eax,0x1
  10795c:	eb 19                	jmp    107977 <taskmgr_terminate+0x73>
  10795e:	90                   	nop
  10795f:	83 45 fc 01          	add    DWORD PTR [ebp-0x4],0x1
  107963:	a1 18 8e 51 00       	mov    eax,ds:0x518e18
  107968:	39 45 fc             	cmp    DWORD PTR [ebp-0x4],eax
  10796b:	72 ab                	jb     107918 <taskmgr_terminate+0x14>
  10796d:	e8 32 fe ff ff       	call   1077a4 <sti>
  107972:	b8 00 00 00 00       	mov    eax,0x0
  107977:	c9                   	leave  
  107978:	c3                   	ret    

00107979 <tlock>:
  107979:	55                   	push   ebp
  10797a:	89 e5                	mov    ebp,esp
  10797c:	a1 30 8e 51 00       	mov    eax,ds:0x518e30
  107981:	c6 40 30 01          	mov    BYTE PTR [eax+0x30],0x1
  107985:	90                   	nop
  107986:	5d                   	pop    ebp
  107987:	c3                   	ret    

00107988 <tunlock>:
  107988:	55                   	push   ebp
  107989:	89 e5                	mov    ebp,esp
  10798b:	a1 30 8e 51 00       	mov    eax,ds:0x518e30
  107990:	c6 40 30 00          	mov    BYTE PTR [eax+0x30],0x0
  107994:	90                   	nop
  107995:	5d                   	pop    ebp
  107996:	c3                   	ret    

00107997 <taskmgr_calculate_cpu_usage>:
  107997:	55                   	push   ebp
  107998:	89 e5                	mov    ebp,esp
  10799a:	53                   	push   ebx
  10799b:	83 ec 34             	sub    esp,0x34
  10799e:	c7 05 00 70 51 00 00 00 00 00 	mov    DWORD PTR ds:0x517000,0x0
  1079a8:	c7 05 04 70 51 00 00 00 00 00 	mov    DWORD PTR ds:0x517004,0x0
  1079b2:	c7 45 f4 00 00 00 00 	mov    DWORD PTR [ebp-0xc],0x0
  1079b9:	eb 71                	jmp    107a2c <taskmgr_calculate_cpu_usage+0x95>
  1079bb:	a1 34 8e 51 00       	mov    eax,ds:0x518e34
  1079c0:	8b 55 f4             	mov    edx,DWORD PTR [ebp-0xc]
  1079c3:	c1 e2 02             	shl    edx,0x2
  1079c6:	01 d0                	add    eax,edx
  1079c8:	8b 00                	mov    eax,DWORD PTR [eax]
  1079ca:	85 c0                	test   eax,eax
  1079cc:	74 56                	je     107a24 <taskmgr_calculate_cpu_usage+0x8d>
  1079ce:	a1 34 8e 51 00       	mov    eax,ds:0x518e34
  1079d3:	8b 55 f4             	mov    edx,DWORD PTR [ebp-0xc]
  1079d6:	c1 e2 02             	shl    edx,0x2
  1079d9:	01 d0                	add    eax,edx
  1079db:	8b 18                	mov    ebx,DWORD PTR [eax]
  1079dd:	e8 9d b7 ff ff       	call   10317f <idle_get_thread>
  1079e2:	39 c3                	cmp    ebx,eax
  1079e4:	74 41                	je     107a27 <taskmgr_calculate_cpu_usage+0x90>
  1079e6:	a1 34 8e 51 00       	mov    eax,ds:0x518e34
  1079eb:	8b 55 f4             	mov    edx,DWORD PTR [ebp-0xc]
  1079ee:	c1 e2 02             	shl    edx,0x2
  1079f1:	01 d0                	add    eax,edx
  1079f3:	8b 00                	mov    eax,DWORD PTR [eax]
  1079f5:	8b 50 3a             	mov    edx,DWORD PTR [eax+0x3a]
  1079f8:	a1 04 70 51 00       	mov    eax,ds:0x517004
  1079fd:	01 d0                	add    eax,edx
  1079ff:	a3 04 70 51 00       	mov    ds:0x517004,eax
  107a04:	a1 34 8e 51 00       	mov    eax,ds:0x518e34
  107a09:	8b 55 f4             	mov    edx,DWORD PTR [ebp-0xc]
  107a0c:	c1 e2 02             	shl    edx,0x2
  107a0f:	01 d0                	add    eax,edx
  107a11:	8b 00                	mov    eax,DWORD PTR [eax]
  107a13:	8b 50 36             	mov    edx,DWORD PTR [eax+0x36]
  107a16:	a1 00 70 51 00       	mov    eax,ds:0x517000
  107a1b:	01 d0                	add    eax,edx
  107a1d:	a3 00 70 51 00       	mov    ds:0x517000,eax
  107a22:	eb 04                	jmp    107a28 <taskmgr_calculate_cpu_usage+0x91>
  107a24:	90                   	nop
  107a25:	eb 01                	jmp    107a28 <taskmgr_calculate_cpu_usage+0x91>
  107a27:	90                   	nop
  107a28:	83 45 f4 01          	add    DWORD PTR [ebp-0xc],0x1
  107a2c:	a1 18 8e 51 00       	mov    eax,ds:0x518e18
  107a31:	39 45 f4             	cmp    DWORD PTR [ebp-0xc],eax
  107a34:	72 85                	jb     1079bb <taskmgr_calculate_cpu_usage+0x24>
  107a36:	a1 00 70 51 00       	mov    eax,ds:0x517000
  107a3b:	85 c0                	test   eax,eax
  107a3d:	0f 84 d2 00 00 00    	je     107b15 <taskmgr_calculate_cpu_usage+0x17e>
  107a43:	e8 37 b7 ff ff       	call   10317f <idle_get_thread>
  107a48:	8b 40 36             	mov    eax,DWORD PTR [eax+0x36]
  107a4b:	85 c0                	test   eax,eax
  107a4d:	0f 84 c5 00 00 00    	je     107b18 <taskmgr_calculate_cpu_usage+0x181>
  107a53:	a1 00 70 51 00       	mov    eax,ds:0x517000
  107a58:	85 c0                	test   eax,eax
  107a5a:	75 0d                	jne    107a69 <taskmgr_calculate_cpu_usage+0xd2>
  107a5c:	d9 ee                	fldz   
  107a5e:	dd 1d 28 8e 51 00    	fstp   QWORD PTR ds:0x518e28
  107a64:	e9 b0 00 00 00       	jmp    107b19 <taskmgr_calculate_cpu_usage+0x182>
  107a69:	e8 11 b7 ff ff       	call   10317f <idle_get_thread>
  107a6e:	8b 40 36             	mov    eax,DWORD PTR [eax+0x36]
  107a71:	85 c0                	test   eax,eax
  107a73:	75 0d                	jne    107a82 <taskmgr_calculate_cpu_usage+0xeb>
  107a75:	d9 ee                	fldz   
  107a77:	dd 1d 28 8e 51 00    	fstp   QWORD PTR ds:0x518e28
  107a7d:	e9 97 00 00 00       	jmp    107b19 <taskmgr_calculate_cpu_usage+0x182>
  107a82:	a1 00 70 51 00       	mov    eax,ds:0x517000
  107a87:	ba d3 4d 62 10       	mov    edx,0x10624dd3
  107a8c:	f7 e2                	mul    edx
  107a8e:	89 d0                	mov    eax,edx
  107a90:	c1 e8 06             	shr    eax,0x6
  107a93:	89 45 d8             	mov    DWORD PTR [ebp-0x28],eax
  107a96:	c7 45 dc 00 00 00 00 	mov    DWORD PTR [ebp-0x24],0x0
  107a9d:	df 6d d8             	fild   QWORD PTR [ebp-0x28]
  107aa0:	dd 5d d8             	fstp   QWORD PTR [ebp-0x28]
  107aa3:	e8 d7 b6 ff ff       	call   10317f <idle_get_thread>
  107aa8:	8b 40 36             	mov    eax,DWORD PTR [eax+0x36]
  107aab:	ba d3 4d 62 10       	mov    edx,0x10624dd3
  107ab0:	f7 e2                	mul    edx
  107ab2:	89 d0                	mov    eax,edx
  107ab4:	c1 e8 06             	shr    eax,0x6
  107ab7:	89 45 d0             	mov    DWORD PTR [ebp-0x30],eax
  107aba:	c7 45 d4 00 00 00 00 	mov    DWORD PTR [ebp-0x2c],0x0
  107ac1:	df 6d d0             	fild   QWORD PTR [ebp-0x30]
  107ac4:	dd 5d e0             	fstp   QWORD PTR [ebp-0x20]
  107ac7:	dd 45 e0             	fld    QWORD PTR [ebp-0x20]
  107aca:	dd 45 d8             	fld    QWORD PTR [ebp-0x28]
  107acd:	de f1                	fdivrp st(1),st
  107acf:	dd 05 38 54 11 00    	fld    QWORD PTR ds:0x115438
  107ad5:	de c9                	fmulp  st(1),st
  107ad7:	dd 05 38 54 11 00    	fld    QWORD PTR ds:0x115438
  107add:	de e1                	fsubrp st(1),st
  107adf:	dd 5d e8             	fstp   QWORD PTR [ebp-0x18]
  107ae2:	dd 45 e8             	fld    QWORD PTR [ebp-0x18]
  107ae5:	d9 ee                	fldz   
  107ae7:	df e9                	fucomip st,st(1)
  107ae9:	dd d8                	fstp   st(0)
  107aeb:	76 05                	jbe    107af2 <taskmgr_calculate_cpu_usage+0x15b>
  107aed:	d9 ee                	fldz   
  107aef:	dd 5d e8             	fstp   QWORD PTR [ebp-0x18]
  107af2:	dd 05 38 54 11 00    	fld    QWORD PTR ds:0x115438
  107af8:	dd 45 e8             	fld    QWORD PTR [ebp-0x18]
  107afb:	df e9                	fucomip st,st(1)
  107afd:	dd d8                	fstp   st(0)
  107aff:	76 09                	jbe    107b0a <taskmgr_calculate_cpu_usage+0x173>
  107b01:	dd 05 38 54 11 00    	fld    QWORD PTR ds:0x115438
  107b07:	dd 5d e8             	fstp   QWORD PTR [ebp-0x18]
  107b0a:	dd 45 e8             	fld    QWORD PTR [ebp-0x18]
  107b0d:	dd 1d 28 8e 51 00    	fstp   QWORD PTR ds:0x518e28
  107b13:	eb 04                	jmp    107b19 <taskmgr_calculate_cpu_usage+0x182>
  107b15:	90                   	nop
  107b16:	eb 01                	jmp    107b19 <taskmgr_calculate_cpu_usage+0x182>
  107b18:	90                   	nop
  107b19:	83 c4 34             	add    esp,0x34
  107b1c:	5b                   	pop    ebx
  107b1d:	5d                   	pop    ebp
  107b1e:	c3                   	ret    

00107b1f <taskmgr_schedule>:
  107b1f:	55                   	push   ebp
  107b20:	89 e5                	mov    ebp,esp
  107b22:	83 ec 18             	sub    esp,0x18
  107b25:	0f b6 05 1c 8e 51 00 	movzx  eax,BYTE PTR ds:0x518e1c
  107b2c:	84 c0                	test   al,al
  107b2e:	0f 84 66 01 00 00    	je     107c9a <taskmgr_schedule+0x17b>
  107b34:	a1 34 8e 51 00       	mov    eax,ds:0x518e34
  107b39:	8b 15 24 8e 51 00    	mov    edx,DWORD PTR ds:0x518e24
  107b3f:	c1 e2 02             	shl    edx,0x2
  107b42:	01 d0                	add    eax,edx
  107b44:	8b 00                	mov    eax,DWORD PTR [eax]
  107b46:	a3 30 8e 51 00       	mov    ds:0x518e30,eax
  107b4b:	a1 30 8e 51 00       	mov    eax,ds:0x518e30
  107b50:	0f b6 40 30          	movzx  eax,BYTE PTR [eax+0x30]
  107b54:	84 c0                	test   al,al
  107b56:	0f 85 41 01 00 00    	jne    107c9d <taskmgr_schedule+0x17e>
  107b5c:	a1 24 8e 51 00       	mov    eax,ds:0x518e24
  107b61:	83 c0 01             	add    eax,0x1
  107b64:	a3 24 8e 51 00       	mov    ds:0x518e24,eax
  107b69:	8b 15 24 8e 51 00    	mov    edx,DWORD PTR ds:0x518e24
  107b6f:	a1 18 8e 51 00       	mov    eax,ds:0x518e18
  107b74:	39 c2                	cmp    edx,eax
  107b76:	72 0a                	jb     107b82 <taskmgr_schedule+0x63>
  107b78:	c7 05 24 8e 51 00 00 00 00 00 	mov    DWORD PTR ds:0x518e24,0x0
  107b82:	a1 34 8e 51 00       	mov    eax,ds:0x518e34
  107b87:	8b 15 24 8e 51 00    	mov    edx,DWORD PTR ds:0x518e24
  107b8d:	c1 e2 02             	shl    edx,0x2
  107b90:	01 d0                	add    eax,edx
  107b92:	8b 00                	mov    eax,DWORD PTR [eax]
  107b94:	a3 20 8e 51 00       	mov    ds:0x518e20,eax
  107b99:	a1 20 8e 51 00       	mov    eax,ds:0x518e20
  107b9e:	85 c0                	test   eax,eax
  107ba0:	0f 84 fa 00 00 00    	je     107ca0 <taskmgr_schedule+0x181>
  107ba6:	a1 30 8e 51 00       	mov    eax,ds:0x518e30
  107bab:	0f b6 40 31          	movzx  eax,BYTE PTR [eax+0x31]
  107baf:	84 c0                	test   al,al
  107bb1:	0f 85 ec 00 00 00    	jne    107ca3 <taskmgr_schedule+0x184>
  107bb7:	a1 20 8e 51 00       	mov    eax,ds:0x518e20
  107bbc:	85 c0                	test   eax,eax
  107bbe:	75 2f                	jne    107bef <taskmgr_schedule+0xd0>
  107bc0:	a1 24 8e 51 00       	mov    eax,ds:0x518e24
  107bc5:	83 c0 01             	add    eax,0x1
  107bc8:	a3 24 8e 51 00       	mov    ds:0x518e24,eax
  107bcd:	8b 15 24 8e 51 00    	mov    edx,DWORD PTR ds:0x518e24
  107bd3:	a1 18 8e 51 00       	mov    eax,ds:0x518e18
  107bd8:	39 c2                	cmp    edx,eax
  107bda:	0f 82 c6 00 00 00    	jb     107ca6 <taskmgr_schedule+0x187>
  107be0:	c7 05 24 8e 51 00 00 00 00 00 	mov    DWORD PTR ds:0x518e24,0x0
  107bea:	e9 b7 00 00 00       	jmp    107ca6 <taskmgr_schedule+0x187>
  107bef:	a1 20 8e 51 00       	mov    eax,ds:0x518e20
  107bf4:	0f b6 40 31          	movzx  eax,BYTE PTR [eax+0x31]
  107bf8:	84 c0                	test   al,al
  107bfa:	0f 84 91 00 00 00    	je     107c91 <taskmgr_schedule+0x172>
  107c00:	e8 98 fb ff ff       	call   10779d <cli>
  107c05:	8b 15 30 8e 51 00    	mov    edx,DWORD PTR ds:0x518e30
  107c0b:	a1 20 8e 51 00       	mov    eax,ds:0x518e20
  107c10:	39 c2                	cmp    edx,eax
  107c12:	75 15                	jne    107c29 <taskmgr_schedule+0x10a>
  107c14:	83 ec 0c             	sub    esp,0xc
  107c17:	68 09 54 11 00       	push   0x115409
  107c1c:	e8 a6 9b ff ff       	call   1017c7 <debug_error>
  107c21:	83 c4 10             	add    esp,0x10
  107c24:	e8 c9 94 ff ff       	call   1010f2 <debug_halt>
  107c29:	a1 20 8e 51 00       	mov    eax,ds:0x518e20
  107c2e:	8b 40 24             	mov    eax,DWORD PTR [eax+0x24]
  107c31:	89 45 f4             	mov    DWORD PTR [ebp-0xc],eax
  107c34:	a1 20 8e 51 00       	mov    eax,ds:0x518e20
  107c39:	8b 40 28             	mov    eax,DWORD PTR [eax+0x28]
  107c3c:	83 ec 0c             	sub    esp,0xc
  107c3f:	50                   	push   eax
  107c40:	e8 c6 cf ff ff       	call   104c0b <free>
  107c45:	83 c4 10             	add    esp,0x10
  107c48:	a1 30 8e 51 00       	mov    eax,ds:0x518e30
  107c4d:	a3 20 8e 51 00       	mov    ds:0x518e20,eax
  107c52:	a1 34 8e 51 00       	mov    eax,ds:0x518e34
  107c57:	8b 15 24 8e 51 00    	mov    edx,DWORD PTR ds:0x518e24
  107c5d:	c1 e2 02             	shl    edx,0x2
  107c60:	01 d0                	add    eax,edx
  107c62:	c7 00 00 00 00 00    	mov    DWORD PTR [eax],0x0
  107c68:	a1 18 8e 51 00       	mov    eax,ds:0x518e18
  107c6d:	83 e8 01             	sub    eax,0x1
  107c70:	a3 18 8e 51 00       	mov    ds:0x518e18,eax
  107c75:	a1 20 8e 51 00       	mov    eax,ds:0x518e20
  107c7a:	8b 40 24             	mov    eax,DWORD PTR [eax+0x24]
  107c7d:	83 ec 04             	sub    esp,0x4
  107c80:	50                   	push   eax
  107c81:	ff 75 f4             	push   DWORD PTR [ebp-0xc]
  107c84:	68 10 54 11 00       	push   0x115410
  107c89:	e8 ef 9a ff ff       	call   10177d <debug_info>
  107c8e:	83 c4 10             	add    esp,0x10
  107c91:	e8 1a 0a 00 00       	call   1086b0 <switch_thread>
  107c96:	c9                   	leave  
  107c97:	c3                   	ret    
  107c98:	eb 0d                	jmp    107ca7 <taskmgr_schedule+0x188>
  107c9a:	90                   	nop
  107c9b:	eb 0a                	jmp    107ca7 <taskmgr_schedule+0x188>
  107c9d:	90                   	nop
  107c9e:	eb 07                	jmp    107ca7 <taskmgr_schedule+0x188>
  107ca0:	90                   	nop
  107ca1:	eb 04                	jmp    107ca7 <taskmgr_schedule+0x188>
  107ca3:	90                   	nop
  107ca4:	eb 01                	jmp    107ca7 <taskmgr_schedule+0x188>
  107ca6:	90                   	nop
  107ca7:	c9                   	leave  
  107ca8:	c3                   	ret    

00107ca9 <taskmgr_get_threads>:
  107ca9:	55                   	push   ebp
  107caa:	89 e5                	mov    ebp,esp
  107cac:	83 ec 18             	sub    esp,0x18
  107caf:	a1 18 8e 51 00       	mov    eax,ds:0x518e18
  107cb4:	c1 e0 02             	shl    eax,0x2
  107cb7:	83 ec 08             	sub    esp,0x8
  107cba:	6a 04                	push   0x4
  107cbc:	50                   	push   eax
  107cbd:	e8 1c cf ff ff       	call   104bde <tcalloc>
  107cc2:	83 c4 10             	add    esp,0x10
  107cc5:	89 45 f4             	mov    DWORD PTR [ebp-0xc],eax
  107cc8:	a1 18 8e 51 00       	mov    eax,ds:0x518e18
  107ccd:	8d 14 85 00 00 00 00 	lea    edx,[eax*4+0x0]
  107cd4:	a1 34 8e 51 00       	mov    eax,ds:0x518e34
  107cd9:	83 ec 04             	sub    esp,0x4
  107cdc:	52                   	push   edx
  107cdd:	50                   	push   eax
  107cde:	ff 75 f4             	push   DWORD PTR [ebp-0xc]
  107ce1:	e8 90 cd ff ff       	call   104a76 <memcpy>
  107ce6:	83 c4 10             	add    esp,0x10
  107ce9:	8b 15 18 8e 51 00    	mov    edx,DWORD PTR ds:0x518e18
  107cef:	8b 45 08             	mov    eax,DWORD PTR [ebp+0x8]
  107cf2:	89 10                	mov    DWORD PTR [eax],edx
  107cf4:	8b 45 f4             	mov    eax,DWORD PTR [ebp-0xc]
  107cf7:	c9                   	leave  
  107cf8:	c3                   	ret    

00107cf9 <taskmgr_get_thread_byid>:
  107cf9:	55                   	push   ebp
  107cfa:	89 e5                	mov    ebp,esp
  107cfc:	83 ec 10             	sub    esp,0x10
  107cff:	c7 45 fc 00 00 00 00 	mov    DWORD PTR [ebp-0x4],0x0
  107d06:	eb 40                	jmp    107d48 <taskmgr_get_thread_byid+0x4f>
  107d08:	a1 34 8e 51 00       	mov    eax,ds:0x518e34
  107d0d:	8b 55 fc             	mov    edx,DWORD PTR [ebp-0x4]
  107d10:	c1 e2 02             	shl    edx,0x2
  107d13:	01 d0                	add    eax,edx
  107d15:	8b 00                	mov    eax,DWORD PTR [eax]
  107d17:	85 c0                	test   eax,eax
  107d19:	74 28                	je     107d43 <taskmgr_get_thread_byid+0x4a>
  107d1b:	a1 34 8e 51 00       	mov    eax,ds:0x518e34
  107d20:	8b 55 fc             	mov    edx,DWORD PTR [ebp-0x4]
  107d23:	c1 e2 02             	shl    edx,0x2
  107d26:	01 d0                	add    eax,edx
  107d28:	8b 00                	mov    eax,DWORD PTR [eax]
  107d2a:	8b 40 24             	mov    eax,DWORD PTR [eax+0x24]
  107d2d:	39 45 08             	cmp    DWORD PTR [ebp+0x8],eax
  107d30:	75 12                	jne    107d44 <taskmgr_get_thread_byid+0x4b>
  107d32:	a1 34 8e 51 00       	mov    eax,ds:0x518e34
  107d37:	8b 55 fc             	mov    edx,DWORD PTR [ebp-0x4]
  107d3a:	c1 e2 02             	shl    edx,0x2
  107d3d:	01 d0                	add    eax,edx
  107d3f:	8b 00                	mov    eax,DWORD PTR [eax]
  107d41:	eb 14                	jmp    107d57 <taskmgr_get_thread_byid+0x5e>
  107d43:	90                   	nop
  107d44:	83 45 fc 01          	add    DWORD PTR [ebp-0x4],0x1
  107d48:	a1 18 8e 51 00       	mov    eax,ds:0x518e18
  107d4d:	39 45 fc             	cmp    DWORD PTR [ebp-0x4],eax
  107d50:	72 b6                	jb     107d08 <taskmgr_get_thread_byid+0xf>
  107d52:	b8 00 00 00 00       	mov    eax,0x0
  107d57:	c9                   	leave  
  107d58:	c3                   	ret    

00107d59 <taskmgr_get_cpu_usage>:
  107d59:	55                   	push   ebp
  107d5a:	89 e5                	mov    ebp,esp
  107d5c:	dd 05 28 8e 51 00    	fld    QWORD PTR ds:0x518e28
  107d62:	5d                   	pop    ebp
  107d63:	c3                   	ret    

00107d64 <atomic_test_and_set>:
  107d64:	55                   	push   ebp
  107d65:	89 e5                	mov    ebp,esp
  107d67:	83 ec 10             	sub    esp,0x10
  107d6a:	c7 45 fc 01 00 00 00 	mov    DWORD PTR [ebp-0x4],0x1
  107d71:	8b 45 fc             	mov    eax,DWORD PTR [ebp-0x4]
  107d74:	8b 55 08             	mov    edx,DWORD PTR [ebp+0x8]
  107d77:	f0 87 02             	lock xchg DWORD PTR [edx],eax
  107d7a:	89 45 fc             	mov    DWORD PTR [ebp-0x4],eax
  107d7d:	8b 45 fc             	mov    eax,DWORD PTR [ebp-0x4]
  107d80:	c9                   	leave  
  107d81:	c3                   	ret    

00107d82 <spinlock_lock>:
  107d82:	55                   	push   ebp
  107d83:	89 e5                	mov    ebp,esp
  107d85:	90                   	nop
  107d86:	ff 75 08             	push   DWORD PTR [ebp+0x8]
  107d89:	e8 d6 ff ff ff       	call   107d64 <atomic_test_and_set>
  107d8e:	83 c4 04             	add    esp,0x4
  107d91:	85 c0                	test   eax,eax
  107d93:	74 f1                	je     107d86 <spinlock_lock+0x4>
  107d95:	90                   	nop
  107d96:	c9                   	leave  
  107d97:	c3                   	ret    

00107d98 <spinlock_unlock>:
  107d98:	55                   	push   ebp
  107d99:	89 e5                	mov    ebp,esp
  107d9b:	8b 45 08             	mov    eax,DWORD PTR [ebp+0x8]
  107d9e:	c7 00 00 00 00 00    	mov    DWORD PTR [eax],0x0
  107da4:	90                   	nop
  107da5:	5d                   	pop    ebp
  107da6:	c3                   	ret    

00107da7 <thread_initial>:
  107da7:	55                   	push   ebp
  107da8:	89 e5                	mov    ebp,esp
  107daa:	83 ec 18             	sub    esp,0x18
  107dad:	83 ec 0c             	sub    esp,0xc
  107db0:	6a 5c                	push   0x5c
  107db2:	e8 0d ce ff ff       	call   104bc4 <calloc>
  107db7:	83 c4 10             	add    esp,0x10
  107dba:	89 45 f4             	mov    DWORD PTR [ebp-0xc],eax
  107dbd:	a1 08 70 51 00       	mov    eax,ds:0x517008
  107dc2:	8d 50 01             	lea    edx,[eax+0x1]
  107dc5:	89 15 08 70 51 00    	mov    DWORD PTR ds:0x517008,edx
  107dcb:	8b 55 f4             	mov    edx,DWORD PTR [ebp-0xc]
  107dce:	89 42 24             	mov    DWORD PTR [edx+0x24],eax
  107dd1:	8b 45 f4             	mov    eax,DWORD PTR [ebp-0xc]
  107dd4:	c7 40 28 00 70 51 00 	mov    DWORD PTR [eax+0x28],0x517000
  107ddb:	ba 00 70 51 00       	mov    edx,0x517000
  107de0:	b8 00 70 11 00       	mov    eax,0x117000
  107de5:	29 c2                	sub    edx,eax
  107de7:	89 d0                	mov    eax,edx
  107de9:	c1 f8 02             	sar    eax,0x2
  107dec:	89 c2                	mov    edx,eax
  107dee:	8b 45 f4             	mov    eax,DWORD PTR [ebp-0xc]
  107df1:	89 50 2c             	mov    DWORD PTR [eax+0x2c],edx
  107df4:	8b 45 f4             	mov    eax,DWORD PTR [ebp-0xc]
  107df7:	c7 40 20 00 02 00 00 	mov    DWORD PTR [eax+0x20],0x200
  107dfe:	8b 45 f4             	mov    eax,DWORD PTR [ebp-0xc]
  107e01:	c9                   	leave  
  107e02:	c3                   	ret    

00107e03 <thread_create>:
  107e03:	55                   	push   ebp
  107e04:	89 e5                	mov    ebp,esp
  107e06:	83 ec 18             	sub    esp,0x18
  107e09:	83 ec 0c             	sub    esp,0xc
  107e0c:	6a 5c                	push   0x5c
  107e0e:	e8 b1 cd ff ff       	call   104bc4 <calloc>
  107e13:	83 c4 10             	add    esp,0x10
  107e16:	89 45 f4             	mov    DWORD PTR [ebp-0xc],eax
  107e19:	83 ec 04             	sub    esp,0x4
  107e1c:	6a 5c                	push   0x5c
  107e1e:	6a 00                	push   0x0
  107e20:	ff 75 f4             	push   DWORD PTR [ebp-0xc]
  107e23:	e8 8d cc ff ff       	call   104ab5 <memset>
  107e28:	83 c4 10             	add    esp,0x10
  107e2b:	a1 08 70 51 00       	mov    eax,ds:0x517008
  107e30:	8d 50 01             	lea    edx,[eax+0x1]
  107e33:	89 15 08 70 51 00    	mov    DWORD PTR ds:0x517008,edx
  107e39:	8b 55 f4             	mov    edx,DWORD PTR [ebp-0xc]
  107e3c:	89 42 24             	mov    DWORD PTR [edx+0x24],eax
  107e3f:	83 ec 0c             	sub    esp,0xc
  107e42:	ff 75 0c             	push   DWORD PTR [ebp+0xc]
  107e45:	e8 7a cd ff ff       	call   104bc4 <calloc>
  107e4a:	83 c4 10             	add    esp,0x10
  107e4d:	89 c2                	mov    edx,eax
  107e4f:	8b 45 f4             	mov    eax,DWORD PTR [ebp-0xc]
  107e52:	89 50 28             	mov    DWORD PTR [eax+0x28],edx
  107e55:	8b 45 f4             	mov    eax,DWORD PTR [ebp-0xc]
  107e58:	8b 55 0c             	mov    edx,DWORD PTR [ebp+0xc]
  107e5b:	89 50 2c             	mov    DWORD PTR [eax+0x2c],edx
  107e5e:	8b 45 f4             	mov    eax,DWORD PTR [ebp-0xc]
  107e61:	8b 40 28             	mov    eax,DWORD PTR [eax+0x28]
  107e64:	89 c2                	mov    edx,eax
  107e66:	8b 45 0c             	mov    eax,DWORD PTR [ebp+0xc]
  107e69:	01 d0                	add    eax,edx
  107e6b:	83 e8 10             	sub    eax,0x10
  107e6e:	89 45 f0             	mov    DWORD PTR [ebp-0x10],eax
  107e71:	83 6d f0 04          	sub    DWORD PTR [ebp-0x10],0x4
  107e75:	8b 55 f4             	mov    edx,DWORD PTR [ebp-0xc]
  107e78:	8b 45 f0             	mov    eax,DWORD PTR [ebp-0x10]
  107e7b:	89 10                	mov    DWORD PTR [eax],edx
  107e7d:	83 6d f0 04          	sub    DWORD PTR [ebp-0x10],0x4
  107e81:	ba e4 7e 10 00       	mov    edx,0x107ee4
  107e86:	8b 45 f0             	mov    eax,DWORD PTR [ebp-0x10]
  107e89:	89 10                	mov    DWORD PTR [eax],edx
  107e8b:	83 6d f0 04          	sub    DWORD PTR [ebp-0x10],0x4
  107e8f:	8b 55 08             	mov    edx,DWORD PTR [ebp+0x8]
  107e92:	8b 45 f0             	mov    eax,DWORD PTR [ebp-0x10]
  107e95:	89 10                	mov    DWORD PTR [eax],edx
  107e97:	8b 55 f0             	mov    edx,DWORD PTR [ebp-0x10]
  107e9a:	8b 45 f4             	mov    eax,DWORD PTR [ebp-0xc]
  107e9d:	89 10                	mov    DWORD PTR [eax],edx
  107e9f:	8b 45 f4             	mov    eax,DWORD PTR [ebp-0xc]
  107ea2:	c7 40 04 00 00 00 00 	mov    DWORD PTR [eax+0x4],0x0
  107ea9:	8b 45 f4             	mov    eax,DWORD PTR [ebp-0xc]
  107eac:	c7 40 20 00 02 00 00 	mov    DWORD PTR [eax+0x20],0x200
  107eb3:	83 ec 0c             	sub    esp,0xc
  107eb6:	ff 75 f4             	push   DWORD PTR [ebp-0xc]
  107eb9:	e8 5e f9 ff ff       	call   10781c <taskmgr_ready_thread>
  107ebe:	83 c4 10             	add    esp,0x10
  107ec1:	8b 4d 08             	mov    ecx,DWORD PTR [ebp+0x8]
  107ec4:	8b 45 f4             	mov    eax,DWORD PTR [ebp-0xc]
  107ec7:	8b 10                	mov    edx,DWORD PTR [eax]
  107ec9:	8b 45 f4             	mov    eax,DWORD PTR [ebp-0xc]
  107ecc:	8b 40 24             	mov    eax,DWORD PTR [eax+0x24]
  107ecf:	51                   	push   ecx
  107ed0:	52                   	push   edx
  107ed1:	50                   	push   eax
  107ed2:	68 88 58 11 00       	push   0x115888
  107ed7:	e8 a1 98 ff ff       	call   10177d <debug_info>
  107edc:	83 c4 10             	add    esp,0x10
  107edf:	8b 45 f4             	mov    eax,DWORD PTR [ebp-0xc]
  107ee2:	c9                   	leave  
  107ee3:	c3                   	ret    

00107ee4 <thread_exit>:
  107ee4:	55                   	push   ebp
  107ee5:	89 e5                	mov    ebp,esp
  107ee7:	83 ec 08             	sub    esp,0x8
  107eea:	83 ec 0c             	sub    esp,0xc
  107eed:	68 ba 58 11 00       	push   0x1158ba
  107ef2:	e8 86 98 ff ff       	call   10177d <debug_info>
  107ef7:	83 c4 10             	add    esp,0x10
  107efa:	eb fe                	jmp    107efa <thread_exit+0x16>

00107efc <thread_monitor>:
  107efc:	55                   	push   ebp
  107efd:	89 e5                	mov    ebp,esp
  107eff:	83 ec 08             	sub    esp,0x8
  107f02:	83 7d 08 00          	cmp    DWORD PTR [ebp+0x8],0x0
  107f06:	75 19                	jne    107f21 <thread_monitor+0x25>
  107f08:	83 ec 04             	sub    esp,0x4
  107f0b:	68 c8 58 11 00       	push   0x1158c8
  107f10:	6a 00                	push   0x0
  107f12:	6a 07                	push   0x7
  107f14:	e8 10 a4 ff ff       	call   102329 <panicf>
  107f19:	83 c4 10             	add    esp,0x10
  107f1c:	e9 81 00 00 00       	jmp    107fa2 <thread_monitor+0xa6>
  107f21:	8b 45 08             	mov    eax,DWORD PTR [ebp+0x8]
  107f24:	8b 40 32             	mov    eax,DWORD PTR [eax+0x32]
  107f27:	8d 50 01             	lea    edx,[eax+0x1]
  107f2a:	8b 45 08             	mov    eax,DWORD PTR [ebp+0x8]
  107f2d:	89 50 32             	mov    DWORD PTR [eax+0x32],edx
  107f30:	8b 45 08             	mov    eax,DWORD PTR [ebp+0x8]
  107f33:	8b 50 42             	mov    edx,DWORD PTR [eax+0x42]
  107f36:	8b 40 3e             	mov    eax,DWORD PTR [eax+0x3e]
  107f39:	83 c0 01             	add    eax,0x1
  107f3c:	83 d2 00             	adc    edx,0x0
  107f3f:	8b 4d 08             	mov    ecx,DWORD PTR [ebp+0x8]
  107f42:	89 41 3e             	mov    DWORD PTR [ecx+0x3e],eax
  107f45:	89 51 42             	mov    DWORD PTR [ecx+0x42],edx
  107f48:	e8 fa cf ff ff       	call   104f47 <pit_get_seconds_total>
  107f4d:	89 c2                	mov    edx,eax
  107f4f:	8b 45 08             	mov    eax,DWORD PTR [ebp+0x8]
  107f52:	89 50 4a             	mov    DWORD PTR [eax+0x4a],edx
  107f55:	8b 45 08             	mov    eax,DWORD PTR [ebp+0x8]
  107f58:	8b 50 4a             	mov    edx,DWORD PTR [eax+0x4a]
  107f5b:	8b 45 08             	mov    eax,DWORD PTR [ebp+0x8]
  107f5e:	8b 40 4e             	mov    eax,DWORD PTR [eax+0x4e]
  107f61:	39 c2                	cmp    edx,eax
  107f63:	74 3d                	je     107fa2 <thread_monitor+0xa6>
  107f65:	8b 45 08             	mov    eax,DWORD PTR [ebp+0x8]
  107f68:	8b 50 36             	mov    edx,DWORD PTR [eax+0x36]
  107f6b:	8b 45 08             	mov    eax,DWORD PTR [ebp+0x8]
  107f6e:	89 50 3a             	mov    DWORD PTR [eax+0x3a],edx
  107f71:	8b 45 08             	mov    eax,DWORD PTR [ebp+0x8]
  107f74:	8b 40 46             	mov    eax,DWORD PTR [eax+0x46]
  107f77:	8d 50 01             	lea    edx,[eax+0x1]
  107f7a:	8b 45 08             	mov    eax,DWORD PTR [ebp+0x8]
  107f7d:	89 50 46             	mov    DWORD PTR [eax+0x46],edx
  107f80:	8b 45 08             	mov    eax,DWORD PTR [ebp+0x8]
  107f83:	8b 50 32             	mov    edx,DWORD PTR [eax+0x32]
  107f86:	8b 45 08             	mov    eax,DWORD PTR [ebp+0x8]
  107f89:	89 50 36             	mov    DWORD PTR [eax+0x36],edx
  107f8c:	8b 45 08             	mov    eax,DWORD PTR [ebp+0x8]
  107f8f:	c7 40 32 00 00 00 00 	mov    DWORD PTR [eax+0x32],0x0
  107f96:	8b 45 08             	mov    eax,DWORD PTR [ebp+0x8]
  107f99:	8b 50 4a             	mov    edx,DWORD PTR [eax+0x4a]
  107f9c:	8b 45 08             	mov    eax,DWORD PTR [ebp+0x8]
  107f9f:	89 50 4e             	mov    DWORD PTR [eax+0x4e],edx
  107fa2:	c9                   	leave  
  107fa3:	c3                   	ret    

00107fa4 <time_create>:
  107fa4:	55                   	push   ebp
  107fa5:	89 e5                	mov    ebp,esp
  107fa7:	57                   	push   edi
  107fa8:	56                   	push   esi
  107fa9:	53                   	push   ebx
  107faa:	83 ec 2c             	sub    esp,0x2c
  107fad:	8b 7d 0c             	mov    edi,DWORD PTR [ebp+0xc]
  107fb0:	8b 75 10             	mov    esi,DWORD PTR [ebp+0x10]
  107fb3:	8b 5d 14             	mov    ebx,DWORD PTR [ebp+0x14]
  107fb6:	8b 4d 18             	mov    ecx,DWORD PTR [ebp+0x18]
  107fb9:	8b 55 1c             	mov    edx,DWORD PTR [ebp+0x1c]
  107fbc:	8b 45 20             	mov    eax,DWORD PTR [ebp+0x20]
  107fbf:	89 45 c8             	mov    DWORD PTR [ebp-0x38],eax
  107fc2:	89 f8                	mov    eax,edi
  107fc4:	88 45 e0             	mov    BYTE PTR [ebp-0x20],al
  107fc7:	89 f0                	mov    eax,esi
  107fc9:	88 45 dc             	mov    BYTE PTR [ebp-0x24],al
  107fcc:	88 5d d8             	mov    BYTE PTR [ebp-0x28],bl
  107fcf:	88 4d d4             	mov    BYTE PTR [ebp-0x2c],cl
  107fd2:	88 55 d0             	mov    BYTE PTR [ebp-0x30],dl
  107fd5:	0f b7 45 c8          	movzx  eax,WORD PTR [ebp-0x38]
  107fd9:	66 89 45 cc          	mov    WORD PTR [ebp-0x34],ax
  107fdd:	0f b6 45 e0          	movzx  eax,BYTE PTR [ebp-0x20]
  107fe1:	88 45 ed             	mov    BYTE PTR [ebp-0x13],al
  107fe4:	0f b6 45 dc          	movzx  eax,BYTE PTR [ebp-0x24]
  107fe8:	88 45 ee             	mov    BYTE PTR [ebp-0x12],al
  107feb:	0f b6 45 d8          	movzx  eax,BYTE PTR [ebp-0x28]
  107fef:	88 45 ef             	mov    BYTE PTR [ebp-0x11],al
  107ff2:	0f b6 45 d4          	movzx  eax,BYTE PTR [ebp-0x2c]
  107ff6:	88 45 f0             	mov    BYTE PTR [ebp-0x10],al
  107ff9:	0f b6 45 d0          	movzx  eax,BYTE PTR [ebp-0x30]
  107ffd:	88 45 f1             	mov    BYTE PTR [ebp-0xf],al
  108000:	0f b7 45 cc          	movzx  eax,WORD PTR [ebp-0x34]
  108004:	66 89 45 f2          	mov    WORD PTR [ebp-0xe],ax
  108008:	8b 4d 08             	mov    ecx,DWORD PTR [ebp+0x8]
  10800b:	8b 45 ec             	mov    eax,DWORD PTR [ebp-0x14]
  10800e:	8b 55 f0             	mov    edx,DWORD PTR [ebp-0x10]
  108011:	89 01                	mov    DWORD PTR [ecx],eax
  108013:	89 51 04             	mov    DWORD PTR [ecx+0x4],edx
  108016:	8b 45 08             	mov    eax,DWORD PTR [ebp+0x8]
  108019:	83 c4 2c             	add    esp,0x2c
  10801c:	5b                   	pop    ebx
  10801d:	5e                   	pop    esi
  10801e:	5f                   	pop    edi
  10801f:	5d                   	pop    ebp
  108020:	c2 04 00             	ret    0x4

00108023 <time_create_ext>:
  108023:	55                   	push   ebp
  108024:	89 e5                	mov    ebp,esp
  108026:	57                   	push   edi
  108027:	56                   	push   esi
  108028:	53                   	push   ebx
  108029:	83 ec 38             	sub    esp,0x38
  10802c:	8b 45 0c             	mov    eax,DWORD PTR [ebp+0xc]
  10802f:	8b 4d 10             	mov    ecx,DWORD PTR [ebp+0x10]
  108032:	8b 5d 14             	mov    ebx,DWORD PTR [ebp+0x14]
  108035:	89 5d c0             	mov    DWORD PTR [ebp-0x40],ebx
  108038:	8b 75 18             	mov    esi,DWORD PTR [ebp+0x18]
  10803b:	89 75 bc             	mov    DWORD PTR [ebp-0x44],esi
  10803e:	8b 7d 1c             	mov    edi,DWORD PTR [ebp+0x1c]
  108041:	8b 75 20             	mov    esi,DWORD PTR [ebp+0x20]
  108044:	8b 5d 24             	mov    ebx,DWORD PTR [ebp+0x24]
  108047:	8b 55 28             	mov    edx,DWORD PTR [ebp+0x28]
  10804a:	66 89 45 e0          	mov    WORD PTR [ebp-0x20],ax
  10804e:	89 c8                	mov    eax,ecx
  108050:	88 45 dc             	mov    BYTE PTR [ebp-0x24],al
  108053:	0f b6 45 c0          	movzx  eax,BYTE PTR [ebp-0x40]
  108057:	88 45 d8             	mov    BYTE PTR [ebp-0x28],al
  10805a:	0f b6 45 bc          	movzx  eax,BYTE PTR [ebp-0x44]
  10805e:	88 45 d4             	mov    BYTE PTR [ebp-0x2c],al
  108061:	89 f8                	mov    eax,edi
  108063:	88 45 d0             	mov    BYTE PTR [ebp-0x30],al
  108066:	89 f0                	mov    eax,esi
  108068:	88 45 cc             	mov    BYTE PTR [ebp-0x34],al
  10806b:	89 d8                	mov    eax,ebx
  10806d:	88 45 c8             	mov    BYTE PTR [ebp-0x38],al
  108070:	89 d0                	mov    eax,edx
  108072:	66 89 45 c4          	mov    WORD PTR [ebp-0x3c],ax
  108076:	0f b7 45 e0          	movzx  eax,WORD PTR [ebp-0x20]
  10807a:	66 89 45 ea          	mov    WORD PTR [ebp-0x16],ax
  10807e:	0f b6 45 dc          	movzx  eax,BYTE PTR [ebp-0x24]
  108082:	88 45 ec             	mov    BYTE PTR [ebp-0x14],al
  108085:	0f b6 45 d8          	movzx  eax,BYTE PTR [ebp-0x28]
  108089:	88 45 ed             	mov    BYTE PTR [ebp-0x13],al
  10808c:	0f b6 45 d4          	movzx  eax,BYTE PTR [ebp-0x2c]
  108090:	88 45 ee             	mov    BYTE PTR [ebp-0x12],al
  108093:	0f b6 45 cc          	movzx  eax,BYTE PTR [ebp-0x34]
  108097:	88 45 f0             	mov    BYTE PTR [ebp-0x10],al
  10809a:	0f b6 45 c8          	movzx  eax,BYTE PTR [ebp-0x38]
  10809e:	88 45 f1             	mov    BYTE PTR [ebp-0xf],al
  1080a1:	0f b7 45 c4          	movzx  eax,WORD PTR [ebp-0x3c]
  1080a5:	66 89 45 f2          	mov    WORD PTR [ebp-0xe],ax
  1080a9:	8b 45 08             	mov    eax,DWORD PTR [ebp+0x8]
  1080ac:	8b 55 ea             	mov    edx,DWORD PTR [ebp-0x16]
  1080af:	89 10                	mov    DWORD PTR [eax],edx
  1080b1:	8b 55 ee             	mov    edx,DWORD PTR [ebp-0x12]
  1080b4:	89 50 04             	mov    DWORD PTR [eax+0x4],edx
  1080b7:	0f b7 55 f2          	movzx  edx,WORD PTR [ebp-0xe]
  1080bb:	66 89 50 08          	mov    WORD PTR [eax+0x8],dx
  1080bf:	8b 45 08             	mov    eax,DWORD PTR [ebp+0x8]
  1080c2:	83 c4 38             	add    esp,0x38
  1080c5:	5b                   	pop    ebx
  1080c6:	5e                   	pop    esi
  1080c7:	5f                   	pop    edi
  1080c8:	5d                   	pop    ebp
  1080c9:	c2 04 00             	ret    0x4

001080cc <time_pack>:
  1080cc:	55                   	push   ebp
  1080cd:	89 e5                	mov    ebp,esp
  1080cf:	57                   	push   edi
  1080d0:	56                   	push   esi
  1080d1:	53                   	push   ebx
  1080d2:	83 ec 24             	sub    esp,0x24
  1080d5:	0f b7 45 0e          	movzx  eax,WORD PTR [ebp+0xe]
  1080d9:	66 c1 e8 08          	shr    ax,0x8
  1080dd:	88 45 ef             	mov    BYTE PTR [ebp-0x11],al
  1080e0:	0f b7 45 0e          	movzx  eax,WORD PTR [ebp+0xe]
  1080e4:	88 45 ee             	mov    BYTE PTR [ebp-0x12],al
  1080e7:	0f b6 45 08          	movzx  eax,BYTE PTR [ebp+0x8]
  1080eb:	0f b6 c0             	movzx  eax,al
  1080ee:	c1 e0 18             	shl    eax,0x18
  1080f1:	89 c2                	mov    edx,eax
  1080f3:	0f b6 45 09          	movzx  eax,BYTE PTR [ebp+0x9]
  1080f7:	0f b6 c0             	movzx  eax,al
  1080fa:	c1 e0 10             	shl    eax,0x10
  1080fd:	09 c2                	or     edx,eax
  1080ff:	0f b6 45 0a          	movzx  eax,BYTE PTR [ebp+0xa]
  108103:	0f b6 c0             	movzx  eax,al
  108106:	c1 e0 08             	shl    eax,0x8
  108109:	09 c2                	or     edx,eax
  10810b:	0f b6 45 0b          	movzx  eax,BYTE PTR [ebp+0xb]
  10810f:	0f b6 c0             	movzx  eax,al
  108112:	09 d0                	or     eax,edx
  108114:	99                   	cdq    
  108115:	89 45 e0             	mov    DWORD PTR [ebp-0x20],eax
  108118:	89 55 e4             	mov    DWORD PTR [ebp-0x1c],edx
  10811b:	0f b6 45 0c          	movzx  eax,BYTE PTR [ebp+0xc]
  10811f:	0f b6 c0             	movzx  eax,al
  108122:	c1 e0 18             	shl    eax,0x18
  108125:	89 c2                	mov    edx,eax
  108127:	0f b6 45 0d          	movzx  eax,BYTE PTR [ebp+0xd]
  10812b:	0f b6 c0             	movzx  eax,al
  10812e:	c1 e0 10             	shl    eax,0x10
  108131:	09 c2                	or     edx,eax
  108133:	0f b6 45 ef          	movzx  eax,BYTE PTR [ebp-0x11]
  108137:	c1 e0 08             	shl    eax,0x8
  10813a:	09 c2                	or     edx,eax
  10813c:	0f b6 45 ee          	movzx  eax,BYTE PTR [ebp-0x12]
  108140:	09 d0                	or     eax,edx
  108142:	99                   	cdq    
  108143:	89 45 d8             	mov    DWORD PTR [ebp-0x28],eax
  108146:	89 55 dc             	mov    DWORD PTR [ebp-0x24],edx
  108149:	8b 45 e0             	mov    eax,DWORD PTR [ebp-0x20]
  10814c:	8b 55 e4             	mov    edx,DWORD PTR [ebp-0x1c]
  10814f:	89 c2                	mov    edx,eax
  108151:	b8 00 00 00 00       	mov    eax,0x0
  108156:	89 c6                	mov    esi,eax
  108158:	89 d7                	mov    edi,edx
  10815a:	89 f0                	mov    eax,esi
  10815c:	0b 45 d8             	or     eax,DWORD PTR [ebp-0x28]
  10815f:	89 c1                	mov    ecx,eax
  108161:	89 f8                	mov    eax,edi
  108163:	0b 45 dc             	or     eax,DWORD PTR [ebp-0x24]
  108166:	89 c3                	mov    ebx,eax
  108168:	89 c8                	mov    eax,ecx
  10816a:	89 da                	mov    edx,ebx
  10816c:	83 c4 24             	add    esp,0x24
  10816f:	5b                   	pop    ebx
  108170:	5e                   	pop    esi
  108171:	5f                   	pop    edi
  108172:	5d                   	pop    ebp
  108173:	c3                   	ret    

00108174 <time_unpack>:
  108174:	55                   	push   ebp
  108175:	89 e5                	mov    ebp,esp
  108177:	53                   	push   ebx
  108178:	83 ec 1c             	sub    esp,0x1c
  10817b:	8b 45 0c             	mov    eax,DWORD PTR [ebp+0xc]
  10817e:	89 45 e0             	mov    DWORD PTR [ebp-0x20],eax
  108181:	8b 45 10             	mov    eax,DWORD PTR [ebp+0x10]
  108184:	89 45 e4             	mov    DWORD PTR [ebp-0x1c],eax
  108187:	c6 45 f0 00          	mov    BYTE PTR [ebp-0x10],0x0
  10818b:	8b 45 e0             	mov    eax,DWORD PTR [ebp-0x20]
  10818e:	8b 55 e4             	mov    edx,DWORD PTR [ebp-0x1c]
  108191:	89 d0                	mov    eax,edx
  108193:	31 d2                	xor    edx,edx
  108195:	c1 e8 10             	shr    eax,0x10
  108198:	89 c1                	mov    ecx,eax
  10819a:	89 d3                	mov    ebx,edx
  10819c:	89 c8                	mov    eax,ecx
  10819e:	88 45 f1             	mov    BYTE PTR [ebp-0xf],al
  1081a1:	8b 45 e0             	mov    eax,DWORD PTR [ebp-0x20]
  1081a4:	8b 55 e4             	mov    edx,DWORD PTR [ebp-0x1c]
  1081a7:	89 d0                	mov    eax,edx
  1081a9:	31 d2                	xor    edx,edx
  1081ab:	c1 e8 08             	shr    eax,0x8
  1081ae:	89 c1                	mov    ecx,eax
  1081b0:	89 d3                	mov    ebx,edx
  1081b2:	89 c8                	mov    eax,ecx
  1081b4:	88 45 f2             	mov    BYTE PTR [ebp-0xe],al
  1081b7:	8b 45 e0             	mov    eax,DWORD PTR [ebp-0x20]
  1081ba:	8b 55 e4             	mov    edx,DWORD PTR [ebp-0x1c]
  1081bd:	89 d0                	mov    eax,edx
  1081bf:	31 d2                	xor    edx,edx
  1081c1:	89 c1                	mov    ecx,eax
  1081c3:	89 d3                	mov    ebx,edx
  1081c5:	89 c8                	mov    eax,ecx
  1081c7:	88 45 f3             	mov    BYTE PTR [ebp-0xd],al
  1081ca:	8b 45 e0             	mov    eax,DWORD PTR [ebp-0x20]
  1081cd:	8b 55 e4             	mov    edx,DWORD PTR [ebp-0x1c]
  1081d0:	0f ac d0 18          	shrd   eax,edx,0x18
  1081d4:	c1 ea 18             	shr    edx,0x18
  1081d7:	89 c1                	mov    ecx,eax
  1081d9:	89 d3                	mov    ebx,edx
  1081db:	89 c8                	mov    eax,ecx
  1081dd:	88 45 f4             	mov    BYTE PTR [ebp-0xc],al
  1081e0:	8b 45 e0             	mov    eax,DWORD PTR [ebp-0x20]
  1081e3:	8b 55 e4             	mov    edx,DWORD PTR [ebp-0x1c]
  1081e6:	0f ac d0 10          	shrd   eax,edx,0x10
  1081ea:	c1 ea 10             	shr    edx,0x10
  1081ed:	89 c1                	mov    ecx,eax
  1081ef:	89 d3                	mov    ebx,edx
  1081f1:	89 c8                	mov    eax,ecx
  1081f3:	88 45 f5             	mov    BYTE PTR [ebp-0xb],al
  1081f6:	8b 45 e0             	mov    eax,DWORD PTR [ebp-0x20]
  1081f9:	8b 55 e4             	mov    edx,DWORD PTR [ebp-0x1c]
  1081fc:	0f ac d0 08          	shrd   eax,edx,0x8
  108200:	c1 ea 08             	shr    edx,0x8
  108203:	89 c1                	mov    ecx,eax
  108205:	89 d3                	mov    ebx,edx
  108207:	89 c8                	mov    eax,ecx
  108209:	0f b6 c0             	movzx  eax,al
  10820c:	c1 e0 08             	shl    eax,0x8
  10820f:	89 c2                	mov    edx,eax
  108211:	8b 45 e0             	mov    eax,DWORD PTR [ebp-0x20]
  108214:	0f b6 c0             	movzx  eax,al
  108217:	09 d0                	or     eax,edx
  108219:	66 89 45 f6          	mov    WORD PTR [ebp-0xa],ax
  10821d:	8b 4d 08             	mov    ecx,DWORD PTR [ebp+0x8]
  108220:	8b 45 f0             	mov    eax,DWORD PTR [ebp-0x10]
  108223:	8b 55 f4             	mov    edx,DWORD PTR [ebp-0xc]
  108226:	89 01                	mov    DWORD PTR [ecx],eax
  108228:	89 51 04             	mov    DWORD PTR [ecx+0x4],edx
  10822b:	8b 45 08             	mov    eax,DWORD PTR [ebp+0x8]
  10822e:	83 c4 1c             	add    esp,0x1c
  108231:	5b                   	pop    ebx
  108232:	5d                   	pop    ebp
  108233:	c2 04 00             	ret    0x4

00108236 <time_string>:
  108236:	55                   	push   ebp
  108237:	89 e5                	mov    ebp,esp
  108239:	83 ec 68             	sub    esp,0x68
  10823c:	8b 55 10             	mov    edx,DWORD PTR [ebp+0x10]
  10823f:	8b 45 14             	mov    eax,DWORD PTR [ebp+0x14]
  108242:	88 55 a4             	mov    BYTE PTR [ebp-0x5c],dl
  108245:	88 45 a0             	mov    BYTE PTR [ebp-0x60],al
  108248:	83 ec 08             	sub    esp,0x8
  10824b:	6a 08                	push   0x8
  10824d:	68 80 00 00 00       	push   0x80
  108252:	e8 87 c9 ff ff       	call   104bde <tcalloc>
  108257:	83 c4 10             	add    esp,0x10
  10825a:	89 45 f0             	mov    DWORD PTR [ebp-0x10],eax
  10825d:	83 ec 04             	sub    esp,0x4
  108260:	6a 40                	push   0x40
  108262:	6a 00                	push   0x0
  108264:	8d 45 b0             	lea    eax,[ebp-0x50]
  108267:	50                   	push   eax
  108268:	e8 48 c8 ff ff       	call   104ab5 <memset>
  10826d:	83 c4 10             	add    esp,0x10
  108270:	80 7d a4 00          	cmp    BYTE PTR [ebp-0x5c],0x0
  108274:	74 45                	je     1082bb <time_string+0x85>
  108276:	0f b6 45 0b          	movzx  eax,BYTE PTR [ebp+0xb]
  10827a:	3c 09                	cmp    al,0x9
  10827c:	77 13                	ja     108291 <time_string+0x5b>
  10827e:	83 ec 08             	sub    esp,0x8
  108281:	68 28 5d 11 00       	push   0x115d28
  108286:	ff 75 f0             	push   DWORD PTR [ebp-0x10]
  108289:	e8 47 e7 ff ff       	call   1069d5 <strcat>
  10828e:	83 c4 10             	add    esp,0x10
  108291:	0f b6 45 0b          	movzx  eax,BYTE PTR [ebp+0xb]
  108295:	0f b6 c0             	movzx  eax,al
  108298:	83 ec 04             	sub    esp,0x4
  10829b:	6a 0a                	push   0xa
  10829d:	8d 55 b0             	lea    edx,[ebp-0x50]
  1082a0:	52                   	push   edx
  1082a1:	50                   	push   eax
  1082a2:	e8 f4 8c ff ff       	call   100f9b <ltoa>
  1082a7:	83 c4 10             	add    esp,0x10
  1082aa:	83 ec 08             	sub    esp,0x8
  1082ad:	50                   	push   eax
  1082ae:	ff 75 f0             	push   DWORD PTR [ebp-0x10]
  1082b1:	e8 1f e7 ff ff       	call   1069d5 <strcat>
  1082b6:	83 c4 10             	add    esp,0x10
  1082b9:	eb 53                	jmp    10830e <time_string+0xd8>
  1082bb:	0f b6 45 0b          	movzx  eax,BYTE PTR [ebp+0xb]
  1082bf:	0f b6 c0             	movzx  eax,al
  1082c2:	89 45 f4             	mov    DWORD PTR [ebp-0xc],eax
  1082c5:	83 7d f4 0c          	cmp    DWORD PTR [ebp-0xc],0xc
  1082c9:	7e 04                	jle    1082cf <time_string+0x99>
  1082cb:	83 6d f4 0c          	sub    DWORD PTR [ebp-0xc],0xc
  1082cf:	0f b6 45 0b          	movzx  eax,BYTE PTR [ebp+0xb]
  1082d3:	3c 09                	cmp    al,0x9
  1082d5:	77 13                	ja     1082ea <time_string+0xb4>
  1082d7:	83 ec 08             	sub    esp,0x8
  1082da:	68 28 5d 11 00       	push   0x115d28
  1082df:	ff 75 f0             	push   DWORD PTR [ebp-0x10]
  1082e2:	e8 ee e6 ff ff       	call   1069d5 <strcat>
  1082e7:	83 c4 10             	add    esp,0x10
  1082ea:	8b 45 f4             	mov    eax,DWORD PTR [ebp-0xc]
  1082ed:	83 ec 04             	sub    esp,0x4
  1082f0:	6a 0a                	push   0xa
  1082f2:	8d 55 b0             	lea    edx,[ebp-0x50]
  1082f5:	52                   	push   edx
  1082f6:	50                   	push   eax
  1082f7:	e8 9f 8c ff ff       	call   100f9b <ltoa>
  1082fc:	83 c4 10             	add    esp,0x10
  1082ff:	83 ec 08             	sub    esp,0x8
  108302:	50                   	push   eax
  108303:	ff 75 f0             	push   DWORD PTR [ebp-0x10]
  108306:	e8 ca e6 ff ff       	call   1069d5 <strcat>
  10830b:	83 c4 10             	add    esp,0x10
  10830e:	83 ec 04             	sub    esp,0x4
  108311:	6a 40                	push   0x40
  108313:	6a 00                	push   0x0
  108315:	8d 45 b0             	lea    eax,[ebp-0x50]
  108318:	50                   	push   eax
  108319:	e8 97 c7 ff ff       	call   104ab5 <memset>
  10831e:	83 c4 10             	add    esp,0x10
  108321:	83 ec 08             	sub    esp,0x8
  108324:	6a 3a                	push   0x3a
  108326:	ff 75 f0             	push   DWORD PTR [ebp-0x10]
  108329:	e8 6c ec ff ff       	call   106f9a <stradd>
  10832e:	83 c4 10             	add    esp,0x10
  108331:	0f b6 45 0a          	movzx  eax,BYTE PTR [ebp+0xa]
  108335:	3c 09                	cmp    al,0x9
  108337:	77 13                	ja     10834c <time_string+0x116>
  108339:	83 ec 08             	sub    esp,0x8
  10833c:	68 28 5d 11 00       	push   0x115d28
  108341:	ff 75 f0             	push   DWORD PTR [ebp-0x10]
  108344:	e8 8c e6 ff ff       	call   1069d5 <strcat>
  108349:	83 c4 10             	add    esp,0x10
  10834c:	0f b6 45 0a          	movzx  eax,BYTE PTR [ebp+0xa]
  108350:	0f b6 c0             	movzx  eax,al
  108353:	83 ec 04             	sub    esp,0x4
  108356:	6a 0a                	push   0xa
  108358:	8d 55 b0             	lea    edx,[ebp-0x50]
  10835b:	52                   	push   edx
  10835c:	50                   	push   eax
  10835d:	e8 39 8c ff ff       	call   100f9b <ltoa>
  108362:	83 c4 10             	add    esp,0x10
  108365:	83 ec 08             	sub    esp,0x8
  108368:	50                   	push   eax
  108369:	ff 75 f0             	push   DWORD PTR [ebp-0x10]
  10836c:	e8 64 e6 ff ff       	call   1069d5 <strcat>
  108371:	83 c4 10             	add    esp,0x10
  108374:	83 ec 04             	sub    esp,0x4
  108377:	6a 40                	push   0x40
  108379:	6a 00                	push   0x0
  10837b:	8d 45 b0             	lea    eax,[ebp-0x50]
  10837e:	50                   	push   eax
  10837f:	e8 31 c7 ff ff       	call   104ab5 <memset>
  108384:	83 c4 10             	add    esp,0x10
  108387:	80 7d a0 00          	cmp    BYTE PTR [ebp-0x60],0x0
  10838b:	74 38                	je     1083c5 <time_string+0x18f>
  10838d:	83 ec 08             	sub    esp,0x8
  108390:	6a 3a                	push   0x3a
  108392:	ff 75 f0             	push   DWORD PTR [ebp-0x10]
  108395:	e8 00 ec ff ff       	call   106f9a <stradd>
  10839a:	83 c4 10             	add    esp,0x10
  10839d:	0f b6 45 09          	movzx  eax,BYTE PTR [ebp+0x9]
  1083a1:	0f b6 c0             	movzx  eax,al
  1083a4:	83 ec 04             	sub    esp,0x4
  1083a7:	6a 0a                	push   0xa
  1083a9:	8d 55 b0             	lea    edx,[ebp-0x50]
  1083ac:	52                   	push   edx
  1083ad:	50                   	push   eax
  1083ae:	e8 e8 8b ff ff       	call   100f9b <ltoa>
  1083b3:	83 c4 10             	add    esp,0x10
  1083b6:	83 ec 08             	sub    esp,0x8
  1083b9:	50                   	push   eax
  1083ba:	ff 75 f0             	push   DWORD PTR [ebp-0x10]
  1083bd:	e8 13 e6 ff ff       	call   1069d5 <strcat>
  1083c2:	83 c4 10             	add    esp,0x10
  1083c5:	80 7d a4 00          	cmp    BYTE PTR [ebp-0x5c],0x0
  1083c9:	75 30                	jne    1083fb <time_string+0x1c5>
  1083cb:	0f b6 45 0b          	movzx  eax,BYTE PTR [ebp+0xb]
  1083cf:	3c 0b                	cmp    al,0xb
  1083d1:	76 15                	jbe    1083e8 <time_string+0x1b2>
  1083d3:	83 ec 08             	sub    esp,0x8
  1083d6:	68 2a 5d 11 00       	push   0x115d2a
  1083db:	ff 75 f0             	push   DWORD PTR [ebp-0x10]
  1083de:	e8 f2 e5 ff ff       	call   1069d5 <strcat>
  1083e3:	83 c4 10             	add    esp,0x10
  1083e6:	eb 13                	jmp    1083fb <time_string+0x1c5>
  1083e8:	83 ec 08             	sub    esp,0x8
  1083eb:	68 2e 5d 11 00       	push   0x115d2e
  1083f0:	ff 75 f0             	push   DWORD PTR [ebp-0x10]
  1083f3:	e8 dd e5 ff ff       	call   1069d5 <strcat>
  1083f8:	83 c4 10             	add    esp,0x10
  1083fb:	8b 45 f0             	mov    eax,DWORD PTR [ebp-0x10]
  1083fe:	c9                   	leave  
  1083ff:	c3                   	ret    

00108400 <time_string_date>:
  108400:	55                   	push   ebp
  108401:	89 e5                	mov    ebp,esp
  108403:	83 ec 68             	sub    esp,0x68
  108406:	8b 45 10             	mov    eax,DWORD PTR [ebp+0x10]
  108409:	88 45 a4             	mov    BYTE PTR [ebp-0x5c],al
  10840c:	83 ec 08             	sub    esp,0x8
  10840f:	6a 08                	push   0x8
  108411:	68 00 01 00 00       	push   0x100
  108416:	e8 c3 c7 ff ff       	call   104bde <tcalloc>
  10841b:	83 c4 10             	add    esp,0x10
  10841e:	89 45 f4             	mov    DWORD PTR [ebp-0xc],eax
  108421:	83 ec 04             	sub    esp,0x4
  108424:	6a 40                	push   0x40
  108426:	6a 00                	push   0x0
  108428:	8d 45 b4             	lea    eax,[ebp-0x4c]
  10842b:	50                   	push   eax
  10842c:	e8 84 c6 ff ff       	call   104ab5 <memset>
  108431:	83 c4 10             	add    esp,0x10
  108434:	80 7d a4 00          	cmp    BYTE PTR [ebp-0x5c],0x0
  108438:	74 24                	je     10845e <time_string_date+0x5e>
  10843a:	0f b6 45 0d          	movzx  eax,BYTE PTR [ebp+0xd]
  10843e:	0f b6 c0             	movzx  eax,al
  108441:	83 ec 0c             	sub    esp,0xc
  108444:	50                   	push   eax
  108445:	e8 de 01 00 00       	call   108628 <time_string_month_short>
  10844a:	83 c4 10             	add    esp,0x10
  10844d:	83 ec 08             	sub    esp,0x8
  108450:	50                   	push   eax
  108451:	ff 75 f4             	push   DWORD PTR [ebp-0xc]
  108454:	e8 7c e5 ff ff       	call   1069d5 <strcat>
  108459:	83 c4 10             	add    esp,0x10
  10845c:	eb 22                	jmp    108480 <time_string_date+0x80>
  10845e:	0f b6 45 0d          	movzx  eax,BYTE PTR [ebp+0xd]
  108462:	0f b6 c0             	movzx  eax,al
  108465:	83 ec 0c             	sub    esp,0xc
  108468:	50                   	push   eax
  108469:	e8 41 01 00 00       	call   1085af <time_string_month>
  10846e:	83 c4 10             	add    esp,0x10
  108471:	83 ec 08             	sub    esp,0x8
  108474:	50                   	push   eax
  108475:	ff 75 f4             	push   DWORD PTR [ebp-0xc]
  108478:	e8 58 e5 ff ff       	call   1069d5 <strcat>
  10847d:	83 c4 10             	add    esp,0x10
  108480:	83 ec 08             	sub    esp,0x8
  108483:	6a 20                	push   0x20
  108485:	ff 75 f4             	push   DWORD PTR [ebp-0xc]
  108488:	e8 0d eb ff ff       	call   106f9a <stradd>
  10848d:	83 c4 10             	add    esp,0x10
  108490:	0f b6 45 0c          	movzx  eax,BYTE PTR [ebp+0xc]
  108494:	0f b6 c0             	movzx  eax,al
  108497:	83 ec 04             	sub    esp,0x4
  10849a:	6a 0a                	push   0xa
  10849c:	8d 55 b4             	lea    edx,[ebp-0x4c]
  10849f:	52                   	push   edx
  1084a0:	50                   	push   eax
  1084a1:	e8 f5 8a ff ff       	call   100f9b <ltoa>
  1084a6:	83 c4 10             	add    esp,0x10
  1084a9:	83 ec 08             	sub    esp,0x8
  1084ac:	50                   	push   eax
  1084ad:	ff 75 f4             	push   DWORD PTR [ebp-0xc]
  1084b0:	e8 20 e5 ff ff       	call   1069d5 <strcat>
  1084b5:	83 c4 10             	add    esp,0x10
  1084b8:	83 ec 08             	sub    esp,0x8
  1084bb:	68 32 5d 11 00       	push   0x115d32
  1084c0:	ff 75 f4             	push   DWORD PTR [ebp-0xc]
  1084c3:	e8 0d e5 ff ff       	call   1069d5 <strcat>
  1084c8:	83 c4 10             	add    esp,0x10
  1084cb:	0f b7 45 0e          	movzx  eax,WORD PTR [ebp+0xe]
  1084cf:	0f b7 c0             	movzx  eax,ax
  1084d2:	83 ec 04             	sub    esp,0x4
  1084d5:	6a 0a                	push   0xa
  1084d7:	8d 55 b4             	lea    edx,[ebp-0x4c]
  1084da:	52                   	push   edx
  1084db:	50                   	push   eax
  1084dc:	e8 ba 8a ff ff       	call   100f9b <ltoa>
  1084e1:	83 c4 10             	add    esp,0x10
  1084e4:	83 ec 08             	sub    esp,0x8
  1084e7:	50                   	push   eax
  1084e8:	ff 75 f4             	push   DWORD PTR [ebp-0xc]
  1084eb:	e8 e5 e4 ff ff       	call   1069d5 <strcat>
  1084f0:	83 c4 10             	add    esp,0x10
  1084f3:	8b 45 f4             	mov    eax,DWORD PTR [ebp-0xc]
  1084f6:	c9                   	leave  
  1084f7:	c3                   	ret    

001084f8 <time_string_timedate>:
  1084f8:	55                   	push   ebp
  1084f9:	89 e5                	mov    ebp,esp
  1084fb:	83 ec 28             	sub    esp,0x28
  1084fe:	8b 4d 10             	mov    ecx,DWORD PTR [ebp+0x10]
  108501:	8b 55 14             	mov    edx,DWORD PTR [ebp+0x14]
  108504:	8b 45 18             	mov    eax,DWORD PTR [ebp+0x18]
  108507:	88 4d e4             	mov    BYTE PTR [ebp-0x1c],cl
  10850a:	88 55 e0             	mov    BYTE PTR [ebp-0x20],dl
  10850d:	88 45 dc             	mov    BYTE PTR [ebp-0x24],al
  108510:	0f b6 55 e0          	movzx  edx,BYTE PTR [ebp-0x20]
  108514:	0f b6 45 e4          	movzx  eax,BYTE PTR [ebp-0x1c]
  108518:	52                   	push   edx
  108519:	50                   	push   eax
  10851a:	ff 75 0c             	push   DWORD PTR [ebp+0xc]
  10851d:	ff 75 08             	push   DWORD PTR [ebp+0x8]
  108520:	e8 11 fd ff ff       	call   108236 <time_string>
  108525:	83 c4 10             	add    esp,0x10
  108528:	89 45 f4             	mov    DWORD PTR [ebp-0xc],eax
  10852b:	0f b6 45 dc          	movzx  eax,BYTE PTR [ebp-0x24]
  10852f:	83 ec 04             	sub    esp,0x4
  108532:	50                   	push   eax
  108533:	ff 75 0c             	push   DWORD PTR [ebp+0xc]
  108536:	ff 75 08             	push   DWORD PTR [ebp+0x8]
  108539:	e8 c2 fe ff ff       	call   108400 <time_string_date>
  10853e:	83 c4 10             	add    esp,0x10
  108541:	89 45 f0             	mov    DWORD PTR [ebp-0x10],eax
  108544:	83 ec 08             	sub    esp,0x8
  108547:	6a 08                	push   0x8
  108549:	68 00 02 00 00       	push   0x200
  10854e:	e8 8b c6 ff ff       	call   104bde <tcalloc>
  108553:	83 c4 10             	add    esp,0x10
  108556:	89 45 ec             	mov    DWORD PTR [ebp-0x14],eax
  108559:	83 ec 08             	sub    esp,0x8
  10855c:	ff 75 f4             	push   DWORD PTR [ebp-0xc]
  10855f:	ff 75 ec             	push   DWORD PTR [ebp-0x14]
  108562:	e8 6e e4 ff ff       	call   1069d5 <strcat>
  108567:	83 c4 10             	add    esp,0x10
  10856a:	83 ec 08             	sub    esp,0x8
  10856d:	68 35 5d 11 00       	push   0x115d35
  108572:	ff 75 ec             	push   DWORD PTR [ebp-0x14]
  108575:	e8 5b e4 ff ff       	call   1069d5 <strcat>
  10857a:	83 c4 10             	add    esp,0x10
  10857d:	83 ec 08             	sub    esp,0x8
  108580:	ff 75 f0             	push   DWORD PTR [ebp-0x10]
  108583:	ff 75 ec             	push   DWORD PTR [ebp-0x14]
  108586:	e8 4a e4 ff ff       	call   1069d5 <strcat>
  10858b:	83 c4 10             	add    esp,0x10
  10858e:	83 ec 0c             	sub    esp,0xc
  108591:	ff 75 f4             	push   DWORD PTR [ebp-0xc]
  108594:	e8 72 c6 ff ff       	call   104c0b <free>
  108599:	83 c4 10             	add    esp,0x10
  10859c:	83 ec 0c             	sub    esp,0xc
  10859f:	ff 75 f0             	push   DWORD PTR [ebp-0x10]
  1085a2:	e8 64 c6 ff ff       	call   104c0b <free>
  1085a7:	83 c4 10             	add    esp,0x10
  1085aa:	8b 45 ec             	mov    eax,DWORD PTR [ebp-0x14]
  1085ad:	c9                   	leave  
  1085ae:	c3                   	ret    

001085af <time_string_month>:
  1085af:	55                   	push   ebp
  1085b0:	89 e5                	mov    ebp,esp
  1085b2:	83 ec 04             	sub    esp,0x4
  1085b5:	8b 45 08             	mov    eax,DWORD PTR [ebp+0x8]
  1085b8:	88 45 fc             	mov    BYTE PTR [ebp-0x4],al
  1085bb:	0f b6 45 fc          	movzx  eax,BYTE PTR [ebp-0x4]
  1085bf:	83 f8 0c             	cmp    eax,0xc
  1085c2:	77 5d                	ja     108621 <time_string_month+0x72>
  1085c4:	8b 04 85 94 5d 11 00 	mov    eax,DWORD PTR [eax*4+0x115d94]
  1085cb:	ff e0                	jmp    eax
  1085cd:	b8 37 5d 11 00       	mov    eax,0x115d37
  1085d2:	eb 52                	jmp    108626 <time_string_month+0x77>
  1085d4:	b8 3f 5d 11 00       	mov    eax,0x115d3f
  1085d9:	eb 4b                	jmp    108626 <time_string_month+0x77>
  1085db:	b8 48 5d 11 00       	mov    eax,0x115d48
  1085e0:	eb 44                	jmp    108626 <time_string_month+0x77>
  1085e2:	b8 4e 5d 11 00       	mov    eax,0x115d4e
  1085e7:	eb 3d                	jmp    108626 <time_string_month+0x77>
  1085e9:	b8 54 5d 11 00       	mov    eax,0x115d54
  1085ee:	eb 36                	jmp    108626 <time_string_month+0x77>
  1085f0:	b8 58 5d 11 00       	mov    eax,0x115d58
  1085f5:	eb 2f                	jmp    108626 <time_string_month+0x77>
  1085f7:	b8 5d 5d 11 00       	mov    eax,0x115d5d
  1085fc:	eb 28                	jmp    108626 <time_string_month+0x77>
  1085fe:	b8 62 5d 11 00       	mov    eax,0x115d62
  108603:	eb 21                	jmp    108626 <time_string_month+0x77>
  108605:	b8 69 5d 11 00       	mov    eax,0x115d69
  10860a:	eb 1a                	jmp    108626 <time_string_month+0x77>
  10860c:	b8 73 5d 11 00       	mov    eax,0x115d73
  108611:	eb 13                	jmp    108626 <time_string_month+0x77>
  108613:	b8 7b 5d 11 00       	mov    eax,0x115d7b
  108618:	eb 0c                	jmp    108626 <time_string_month+0x77>
  10861a:	b8 84 5d 11 00       	mov    eax,0x115d84
  10861f:	eb 05                	jmp    108626 <time_string_month+0x77>
  108621:	b8 8d 5d 11 00       	mov    eax,0x115d8d
  108626:	c9                   	leave  
  108627:	c3                   	ret    

00108628 <time_string_month_short>:
  108628:	55                   	push   ebp
  108629:	89 e5                	mov    ebp,esp
  10862b:	83 ec 04             	sub    esp,0x4
  10862e:	8b 45 08             	mov    eax,DWORD PTR [ebp+0x8]
  108631:	88 45 fc             	mov    BYTE PTR [ebp-0x4],al
  108634:	0f b6 45 fc          	movzx  eax,BYTE PTR [ebp-0x4]
  108638:	83 f8 0c             	cmp    eax,0xc
  10863b:	77 5d                	ja     10869a <time_string_month_short+0x72>
  10863d:	8b 04 85 f8 5d 11 00 	mov    eax,DWORD PTR [eax*4+0x115df8]
  108644:	ff e0                	jmp    eax
  108646:	b8 c8 5d 11 00       	mov    eax,0x115dc8
  10864b:	eb 52                	jmp    10869f <time_string_month_short+0x77>
  10864d:	b8 cc 5d 11 00       	mov    eax,0x115dcc
  108652:	eb 4b                	jmp    10869f <time_string_month_short+0x77>
  108654:	b8 d0 5d 11 00       	mov    eax,0x115dd0
  108659:	eb 44                	jmp    10869f <time_string_month_short+0x77>
  10865b:	b8 d4 5d 11 00       	mov    eax,0x115dd4
  108660:	eb 3d                	jmp    10869f <time_string_month_short+0x77>
  108662:	b8 54 5d 11 00       	mov    eax,0x115d54
  108667:	eb 36                	jmp    10869f <time_string_month_short+0x77>
  108669:	b8 d8 5d 11 00       	mov    eax,0x115dd8
  10866e:	eb 2f                	jmp    10869f <time_string_month_short+0x77>
  108670:	b8 dc 5d 11 00       	mov    eax,0x115ddc
  108675:	eb 28                	jmp    10869f <time_string_month_short+0x77>
  108677:	b8 e0 5d 11 00       	mov    eax,0x115de0
  10867c:	eb 21                	jmp    10869f <time_string_month_short+0x77>
  10867e:	b8 e4 5d 11 00       	mov    eax,0x115de4
  108683:	eb 1a                	jmp    10869f <time_string_month_short+0x77>
  108685:	b8 e8 5d 11 00       	mov    eax,0x115de8
  10868a:	eb 13                	jmp    10869f <time_string_month_short+0x77>
  10868c:	b8 ec 5d 11 00       	mov    eax,0x115dec
  108691:	eb 0c                	jmp    10869f <time_string_month_short+0x77>
  108693:	b8 f0 5d 11 00       	mov    eax,0x115df0
  108698:	eb 05                	jmp    10869f <time_string_month_short+0x77>
  10869a:	b8 f4 5d 11 00       	mov    eax,0x115df4
  10869f:	c9                   	leave  
  1086a0:	c3                   	ret    
  1086a1:	66 90                	xchg   ax,ax
  1086a3:	66 90                	xchg   ax,ax
  1086a5:	66 90                	xchg   ax,ax
  1086a7:	66 90                	xchg   ax,ax
  1086a9:	66 90                	xchg   ax,ax
  1086ab:	66 90                	xchg   ax,ax
  1086ad:	66 90                	xchg   ax,ax
  1086af:	90                   	nop

001086b0 <switch_thread>:
  1086b0:	fa                   	cli    
  1086b1:	a1 30 8e 51 00       	mov    eax,ds:0x518e30
  1086b6:	89 20                	mov    DWORD PTR [eax],esp
  1086b8:	89 68 04             	mov    DWORD PTR [eax+0x4],ebp
  1086bb:	89 40 08             	mov    DWORD PTR [eax+0x8],eax
  1086be:	89 58 0c             	mov    DWORD PTR [eax+0xc],ebx
  1086c1:	89 48 10             	mov    DWORD PTR [eax+0x10],ecx
  1086c4:	89 50 14             	mov    DWORD PTR [eax+0x14],edx
  1086c7:	89 70 18             	mov    DWORD PTR [eax+0x18],esi
  1086ca:	89 78 1c             	mov    DWORD PTR [eax+0x1c],edi
  1086cd:	9c                   	pushf  
  1086ce:	59                   	pop    ecx
  1086cf:	89 48 20             	mov    DWORD PTR [eax+0x20],ecx
  1086d2:	a1 20 8e 51 00       	mov    eax,ds:0x518e20
  1086d7:	8b 20                	mov    esp,DWORD PTR [eax]
  1086d9:	8b 68 04             	mov    ebp,DWORD PTR [eax+0x4]
  1086dc:	8b 40 08             	mov    eax,DWORD PTR [eax+0x8]
  1086df:	8b 58 0c             	mov    ebx,DWORD PTR [eax+0xc]
  1086e2:	8b 48 10             	mov    ecx,DWORD PTR [eax+0x10]
  1086e5:	8b 50 14             	mov    edx,DWORD PTR [eax+0x14]
  1086e8:	8b 70 18             	mov    esi,DWORD PTR [eax+0x18]
  1086eb:	8b 78 1c             	mov    edi,DWORD PTR [eax+0x1c]
  1086ee:	8b 40 20             	mov    eax,DWORD PTR [eax+0x20]
  1086f1:	50                   	push   eax
  1086f2:	9d                   	popf   
  1086f3:	fb                   	sti    
  1086f4:	c3                   	ret    

001086f5 <vga_init>:
  1086f5:	55                   	push   ebp
  1086f6:	89 e5                	mov    ebp,esp
  1086f8:	83 ec 08             	sub    esp,0x8
  1086fb:	0f b6 05 0c 70 51 00 	movzx  eax,BYTE PTR ds:0x51700c
  108702:	84 c0                	test   al,al
  108704:	75 5d                	jne    108763 <vga_init+0x6e>
  108706:	66 c7 05 12 70 51 00 50 00 	mov    WORD PTR ds:0x517012,0x50
  10870f:	66 c7 05 14 70 51 00 19 00 	mov    WORD PTR ds:0x517014,0x19
  108718:	c7 05 18 70 51 00 00 80 0b 00 	mov    DWORD PTR ds:0x517018,0xb8000
  108722:	c6 05 0c 70 51 00 01 	mov    BYTE PTR ds:0x51700c,0x1
  108729:	83 ec 08             	sub    esp,0x8
  10872c:	6a 0f                	push   0xf
  10872e:	6a 00                	push   0x0
  108730:	e8 c1 0b 00 00       	call   1092f6 <vga_cursor_enable>
  108735:	83 c4 10             	add    esp,0x10
  108738:	83 ec 08             	sub    esp,0x8
  10873b:	6a 00                	push   0x0
  10873d:	6a 00                	push   0x0
  10873f:	e8 fd 0a 00 00       	call   109241 <vga_set_cursor>
  108744:	83 c4 10             	add    esp,0x10
  108747:	83 ec 0c             	sub    esp,0xc
  10874a:	6a 0f                	push   0xf
  10874c:	e8 ac 0c 00 00       	call   1093fd <vga_set_fg>
  108751:	83 c4 10             	add    esp,0x10
  108754:	83 ec 0c             	sub    esp,0xc
  108757:	6a 00                	push   0x0
  108759:	e8 08 00 00 00       	call   108766 <vga_clear>
  10875e:	83 c4 10             	add    esp,0x10
  108761:	eb 01                	jmp    108764 <vga_init+0x6f>
  108763:	90                   	nop
  108764:	c9                   	leave  
  108765:	c3                   	ret    

00108766 <vga_clear>:
  108766:	55                   	push   ebp
  108767:	89 e5                	mov    ebp,esp
  108769:	53                   	push   ebx
  10876a:	83 ec 24             	sub    esp,0x24
  10876d:	8b 45 08             	mov    eax,DWORD PTR [ebp+0x8]
  108770:	88 45 e4             	mov    BYTE PTR [ebp-0x1c],al
  108773:	0f b6 05 0c 70 51 00 	movzx  eax,BYTE PTR ds:0x51700c
  10877a:	84 c0                	test   al,al
  10877c:	0f 84 84 00 00 00    	je     108806 <vga_clear+0xa0>
  108782:	0f b6 45 e4          	movzx  eax,BYTE PTR [ebp-0x1c]
  108786:	a2 17 70 51 00       	mov    ds:0x517017,al
  10878b:	c7 45 f4 00 00 00 00 	mov    DWORD PTR [ebp-0xc],0x0
  108792:	eb 43                	jmp    1087d7 <vga_clear+0x71>
  108794:	8b 15 18 70 51 00    	mov    edx,DWORD PTR ds:0x517018
  10879a:	8b 45 f4             	mov    eax,DWORD PTR [ebp-0xc]
  10879d:	01 d0                	add    eax,edx
  10879f:	c6 00 20             	mov    BYTE PTR [eax],0x20
  1087a2:	0f b6 05 17 70 51 00 	movzx  eax,BYTE PTR ds:0x517017
  1087a9:	0f b6 d0             	movzx  edx,al
  1087ac:	0f b6 05 16 70 51 00 	movzx  eax,BYTE PTR ds:0x517016
  1087b3:	0f b6 c0             	movzx  eax,al
  1087b6:	8b 0d 18 70 51 00    	mov    ecx,DWORD PTR ds:0x517018
  1087bc:	8b 5d f4             	mov    ebx,DWORD PTR [ebp-0xc]
  1087bf:	83 c3 01             	add    ebx,0x1
  1087c2:	01 cb                	add    ebx,ecx
  1087c4:	83 ec 08             	sub    esp,0x8
  1087c7:	52                   	push   edx
  1087c8:	50                   	push   eax
  1087c9:	e8 8f 0c 00 00       	call   10945d <vga_attribute>
  1087ce:	83 c4 10             	add    esp,0x10
  1087d1:	88 03                	mov    BYTE PTR [ebx],al
  1087d3:	83 45 f4 02          	add    DWORD PTR [ebp-0xc],0x2
  1087d7:	0f b7 05 12 70 51 00 	movzx  eax,WORD PTR ds:0x517012
  1087de:	0f b7 d0             	movzx  edx,ax
  1087e1:	0f b7 05 14 70 51 00 	movzx  eax,WORD PTR ds:0x517014
  1087e8:	0f b7 c0             	movzx  eax,ax
  1087eb:	0f af c2             	imul   eax,edx
  1087ee:	01 c0                	add    eax,eax
  1087f0:	39 45 f4             	cmp    DWORD PTR [ebp-0xc],eax
  1087f3:	72 9f                	jb     108794 <vga_clear+0x2e>
  1087f5:	83 ec 08             	sub    esp,0x8
  1087f8:	6a 00                	push   0x0
  1087fa:	6a 00                	push   0x0
  1087fc:	e8 40 0a 00 00       	call   109241 <vga_set_cursor>
  108801:	83 c4 10             	add    esp,0x10
  108804:	eb 01                	jmp    108807 <vga_clear+0xa1>
  108806:	90                   	nop
  108807:	8b 5d fc             	mov    ebx,DWORD PTR [ebp-0x4]
  10880a:	c9                   	leave  
  10880b:	c3                   	ret    

0010880c <vga_newline>:
  10880c:	55                   	push   ebp
  10880d:	89 e5                	mov    ebp,esp
  10880f:	83 ec 08             	sub    esp,0x8
  108812:	0f b6 05 0c 70 51 00 	movzx  eax,BYTE PTR ds:0x51700c
  108819:	84 c0                	test   al,al
  10881b:	74 38                	je     108855 <vga_newline+0x49>
  10881d:	66 c7 05 0e 70 51 00 00 00 	mov    WORD PTR ds:0x51700e,0x0
  108826:	0f b7 05 10 70 51 00 	movzx  eax,WORD PTR ds:0x517010
  10882d:	83 c0 01             	add    eax,0x1
  108830:	66 a3 10 70 51 00    	mov    ds:0x517010,ax
  108836:	0f b7 15 10 70 51 00 	movzx  edx,WORD PTR ds:0x517010
  10883d:	0f b7 05 14 70 51 00 	movzx  eax,WORD PTR ds:0x517014
  108844:	66 39 c2             	cmp    dx,ax
  108847:	72 05                	jb     10884e <vga_newline+0x42>
  108849:	e8 e9 00 00 00       	call   108937 <vga_scroll>
  10884e:	e8 6f 09 00 00       	call   1091c2 <vga_update_cursor>
  108853:	eb 01                	jmp    108856 <vga_newline+0x4a>
  108855:	90                   	nop
  108856:	c9                   	leave  
  108857:	c3                   	ret    

00108858 <vga_delete>:
  108858:	55                   	push   ebp
  108859:	89 e5                	mov    ebp,esp
  10885b:	53                   	push   ebx
  10885c:	83 ec 04             	sub    esp,0x4
  10885f:	0f b6 05 0c 70 51 00 	movzx  eax,BYTE PTR ds:0x51700c
  108866:	84 c0                	test   al,al
  108868:	0f 84 c3 00 00 00    	je     108931 <vga_delete+0xd9>
  10886e:	0f b7 05 0e 70 51 00 	movzx  eax,WORD PTR ds:0x51700e
  108875:	66 85 c0             	test   ax,ax
  108878:	74 4b                	je     1088c5 <vga_delete+0x6d>
  10887a:	0f b7 05 0e 70 51 00 	movzx  eax,WORD PTR ds:0x51700e
  108881:	83 e8 01             	sub    eax,0x1
  108884:	66 a3 0e 70 51 00    	mov    ds:0x51700e,ax
  10888a:	0f b6 05 17 70 51 00 	movzx  eax,BYTE PTR ds:0x517017
  108891:	0f b6 d8             	movzx  ebx,al
  108894:	0f b6 05 16 70 51 00 	movzx  eax,BYTE PTR ds:0x517016
  10889b:	0f b6 c8             	movzx  ecx,al
  10889e:	0f b7 05 10 70 51 00 	movzx  eax,WORD PTR ds:0x517010
  1088a5:	0f b7 d0             	movzx  edx,ax
  1088a8:	0f b7 05 0e 70 51 00 	movzx  eax,WORD PTR ds:0x51700e
  1088af:	0f b7 c0             	movzx  eax,ax
  1088b2:	83 ec 0c             	sub    esp,0xc
  1088b5:	53                   	push   ebx
  1088b6:	51                   	push   ecx
  1088b7:	6a 20                	push   0x20
  1088b9:	52                   	push   edx
  1088ba:	50                   	push   eax
  1088bb:	e8 4f 01 00 00       	call   108a0f <vga_putchar>
  1088c0:	83 c4 20             	add    esp,0x20
  1088c3:	eb 65                	jmp    10892a <vga_delete+0xd2>
  1088c5:	0f b7 05 10 70 51 00 	movzx  eax,WORD PTR ds:0x517010
  1088cc:	66 85 c0             	test   ax,ax
  1088cf:	74 59                	je     10892a <vga_delete+0xd2>
  1088d1:	0f b7 05 12 70 51 00 	movzx  eax,WORD PTR ds:0x517012
  1088d8:	83 e8 01             	sub    eax,0x1
  1088db:	66 a3 0e 70 51 00    	mov    ds:0x51700e,ax
  1088e1:	0f b7 05 10 70 51 00 	movzx  eax,WORD PTR ds:0x517010
  1088e8:	83 e8 01             	sub    eax,0x1
  1088eb:	66 a3 10 70 51 00    	mov    ds:0x517010,ax
  1088f1:	0f b6 05 17 70 51 00 	movzx  eax,BYTE PTR ds:0x517017
  1088f8:	0f b6 d8             	movzx  ebx,al
  1088fb:	0f b6 05 16 70 51 00 	movzx  eax,BYTE PTR ds:0x517016
  108902:	0f b6 c8             	movzx  ecx,al
  108905:	0f b7 05 10 70 51 00 	movzx  eax,WORD PTR ds:0x517010
  10890c:	0f b7 d0             	movzx  edx,ax
  10890f:	0f b7 05 0e 70 51 00 	movzx  eax,WORD PTR ds:0x51700e
  108916:	0f b7 c0             	movzx  eax,ax
  108919:	83 ec 0c             	sub    esp,0xc
  10891c:	53                   	push   ebx
  10891d:	51                   	push   ecx
  10891e:	6a 20                	push   0x20
  108920:	52                   	push   edx
  108921:	50                   	push   eax
  108922:	e8 e8 00 00 00       	call   108a0f <vga_putchar>
  108927:	83 c4 20             	add    esp,0x20
  10892a:	e8 93 08 00 00       	call   1091c2 <vga_update_cursor>
  10892f:	eb 01                	jmp    108932 <vga_delete+0xda>
  108931:	90                   	nop
  108932:	8b 5d fc             	mov    ebx,DWORD PTR [ebp-0x4]
  108935:	c9                   	leave  
  108936:	c3                   	ret    

00108937 <vga_scroll>:
  108937:	55                   	push   ebp
  108938:	89 e5                	mov    ebp,esp
  10893a:	53                   	push   ebx
  10893b:	83 ec 24             	sub    esp,0x24
  10893e:	0f b7 05 12 70 51 00 	movzx  eax,WORD PTR ds:0x517012
  108945:	0f b7 c0             	movzx  eax,ax
  108948:	01 c0                	add    eax,eax
  10894a:	89 45 f0             	mov    DWORD PTR [ebp-0x10],eax
  10894d:	0f b7 05 12 70 51 00 	movzx  eax,WORD PTR ds:0x517012
  108954:	0f b7 d0             	movzx  edx,ax
  108957:	0f b7 05 14 70 51 00 	movzx  eax,WORD PTR ds:0x517014
  10895e:	0f b7 c0             	movzx  eax,ax
  108961:	0f af c2             	imul   eax,edx
  108964:	01 c0                	add    eax,eax
  108966:	89 45 ec             	mov    DWORD PTR [ebp-0x14],eax
  108969:	a1 18 70 51 00       	mov    eax,ds:0x517018
  10896e:	89 45 e8             	mov    DWORD PTR [ebp-0x18],eax
  108971:	a1 18 70 51 00       	mov    eax,ds:0x517018
  108976:	89 c2                	mov    edx,eax
  108978:	8b 45 f0             	mov    eax,DWORD PTR [ebp-0x10]
  10897b:	01 d0                	add    eax,edx
  10897d:	89 45 e4             	mov    DWORD PTR [ebp-0x1c],eax
  108980:	8b 45 ec             	mov    eax,DWORD PTR [ebp-0x14]
  108983:	2b 45 f0             	sub    eax,DWORD PTR [ebp-0x10]
  108986:	83 ec 04             	sub    esp,0x4
  108989:	50                   	push   eax
  10898a:	ff 75 e4             	push   DWORD PTR [ebp-0x1c]
  10898d:	ff 75 e8             	push   DWORD PTR [ebp-0x18]
  108990:	e8 e1 c0 ff ff       	call   104a76 <memcpy>
  108995:	83 c4 10             	add    esp,0x10
  108998:	66 c7 45 f6 00 00    	mov    WORD PTR [ebp-0xa],0x0
  10899e:	eb 41                	jmp    1089e1 <vga_scroll+0xaa>
  1089a0:	0f b6 05 17 70 51 00 	movzx  eax,BYTE PTR ds:0x517017
  1089a7:	0f b6 d8             	movzx  ebx,al
  1089aa:	0f b6 05 16 70 51 00 	movzx  eax,BYTE PTR ds:0x517016
  1089b1:	0f b6 c8             	movzx  ecx,al
  1089b4:	0f b7 05 14 70 51 00 	movzx  eax,WORD PTR ds:0x517014
  1089bb:	83 e8 01             	sub    eax,0x1
  1089be:	0f b7 d0             	movzx  edx,ax
  1089c1:	0f b7 45 f6          	movzx  eax,WORD PTR [ebp-0xa]
  1089c5:	83 ec 0c             	sub    esp,0xc
  1089c8:	53                   	push   ebx
  1089c9:	51                   	push   ecx
  1089ca:	6a 20                	push   0x20
  1089cc:	52                   	push   edx
  1089cd:	50                   	push   eax
  1089ce:	e8 3c 00 00 00       	call   108a0f <vga_putchar>
  1089d3:	83 c4 20             	add    esp,0x20
  1089d6:	0f b7 45 f6          	movzx  eax,WORD PTR [ebp-0xa]
  1089da:	83 c0 01             	add    eax,0x1
  1089dd:	66 89 45 f6          	mov    WORD PTR [ebp-0xa],ax
  1089e1:	0f b7 05 12 70 51 00 	movzx  eax,WORD PTR ds:0x517012
  1089e8:	66 39 45 f6          	cmp    WORD PTR [ebp-0xa],ax
  1089ec:	72 b2                	jb     1089a0 <vga_scroll+0x69>
  1089ee:	0f b7 05 14 70 51 00 	movzx  eax,WORD PTR ds:0x517014
  1089f5:	83 e8 01             	sub    eax,0x1
  1089f8:	0f b7 c0             	movzx  eax,ax
  1089fb:	83 ec 08             	sub    esp,0x8
  1089fe:	50                   	push   eax
  1089ff:	6a 00                	push   0x0
  108a01:	e8 3b 08 00 00       	call   109241 <vga_set_cursor>
  108a06:	83 c4 10             	add    esp,0x10
  108a09:	90                   	nop
  108a0a:	8b 5d fc             	mov    ebx,DWORD PTR [ebp-0x4]
  108a0d:	c9                   	leave  
  108a0e:	c3                   	ret    

00108a0f <vga_putchar>:
  108a0f:	55                   	push   ebp
  108a10:	89 e5                	mov    ebp,esp
  108a12:	56                   	push   esi
  108a13:	53                   	push   ebx
  108a14:	83 ec 20             	sub    esp,0x20
  108a17:	8b 75 08             	mov    esi,DWORD PTR [ebp+0x8]
  108a1a:	8b 5d 0c             	mov    ebx,DWORD PTR [ebp+0xc]
  108a1d:	8b 4d 10             	mov    ecx,DWORD PTR [ebp+0x10]
  108a20:	8b 55 14             	mov    edx,DWORD PTR [ebp+0x14]
  108a23:	8b 45 18             	mov    eax,DWORD PTR [ebp+0x18]
  108a26:	66 89 75 f4          	mov    WORD PTR [ebp-0xc],si
  108a2a:	66 89 5d f0          	mov    WORD PTR [ebp-0x10],bx
  108a2e:	88 4d ec             	mov    BYTE PTR [ebp-0x14],cl
  108a31:	88 55 e8             	mov    BYTE PTR [ebp-0x18],dl
  108a34:	88 45 e4             	mov    BYTE PTR [ebp-0x1c],al
  108a37:	0f b6 05 0c 70 51 00 	movzx  eax,BYTE PTR ds:0x51700c
  108a3e:	84 c0                	test   al,al
  108a40:	0f 84 93 00 00 00    	je     108ad9 <vga_putchar+0xca>
  108a46:	0f b7 05 12 70 51 00 	movzx  eax,WORD PTR ds:0x517012
  108a4d:	66 39 45 f4          	cmp    WORD PTR [ebp-0xc],ax
  108a51:	73 0d                	jae    108a60 <vga_putchar+0x51>
  108a53:	0f b7 05 14 70 51 00 	movzx  eax,WORD PTR ds:0x517014
  108a5a:	66 39 45 f0          	cmp    WORD PTR [ebp-0x10],ax
  108a5e:	72 16                	jb     108a76 <vga_putchar+0x67>
  108a60:	83 ec 04             	sub    esp,0x4
  108a63:	68 88 62 11 00       	push   0x116288
  108a68:	6a 00                	push   0x0
  108a6a:	6a 03                	push   0x3
  108a6c:	e8 b8 98 ff ff       	call   102329 <panicf>
  108a71:	83 c4 10             	add    esp,0x10
  108a74:	eb 64                	jmp    108ada <vga_putchar+0xcb>
  108a76:	a1 18 70 51 00       	mov    eax,ds:0x517018
  108a7b:	0f b7 4d f0          	movzx  ecx,WORD PTR [ebp-0x10]
  108a7f:	0f b7 15 12 70 51 00 	movzx  edx,WORD PTR ds:0x517012
  108a86:	0f b7 d2             	movzx  edx,dx
  108a89:	0f af ca             	imul   ecx,edx
  108a8c:	0f b7 55 f4          	movzx  edx,WORD PTR [ebp-0xc]
  108a90:	01 ca                	add    edx,ecx
  108a92:	01 d2                	add    edx,edx
  108a94:	01 c2                	add    edx,eax
  108a96:	0f b6 45 ec          	movzx  eax,BYTE PTR [ebp-0x14]
  108a9a:	88 02                	mov    BYTE PTR [edx],al
  108a9c:	0f b6 55 e4          	movzx  edx,BYTE PTR [ebp-0x1c]
  108aa0:	0f b6 45 e8          	movzx  eax,BYTE PTR [ebp-0x18]
  108aa4:	8b 0d 18 70 51 00    	mov    ecx,DWORD PTR ds:0x517018
  108aaa:	0f b7 75 f0          	movzx  esi,WORD PTR [ebp-0x10]
  108aae:	0f b7 1d 12 70 51 00 	movzx  ebx,WORD PTR ds:0x517012
  108ab5:	0f b7 db             	movzx  ebx,bx
  108ab8:	0f af f3             	imul   esi,ebx
  108abb:	0f b7 5d f4          	movzx  ebx,WORD PTR [ebp-0xc]
  108abf:	01 f3                	add    ebx,esi
  108ac1:	01 db                	add    ebx,ebx
  108ac3:	83 c3 01             	add    ebx,0x1
  108ac6:	01 cb                	add    ebx,ecx
  108ac8:	83 ec 08             	sub    esp,0x8
  108acb:	52                   	push   edx
  108acc:	50                   	push   eax
  108acd:	e8 8b 09 00 00       	call   10945d <vga_attribute>
  108ad2:	83 c4 10             	add    esp,0x10
  108ad5:	88 03                	mov    BYTE PTR [ebx],al
  108ad7:	eb 01                	jmp    108ada <vga_putchar+0xcb>
  108ad9:	90                   	nop
  108ada:	8d 65 f8             	lea    esp,[ebp-0x8]
  108add:	5b                   	pop    ebx
  108ade:	5e                   	pop    esi
  108adf:	5d                   	pop    ebp
  108ae0:	c3                   	ret    

00108ae1 <vga_putstr>:
  108ae1:	55                   	push   ebp
  108ae2:	89 e5                	mov    ebp,esp
  108ae4:	53                   	push   ebx
  108ae5:	83 ec 24             	sub    esp,0x24
  108ae8:	8b 5d 08             	mov    ebx,DWORD PTR [ebp+0x8]
  108aeb:	8b 4d 0c             	mov    ecx,DWORD PTR [ebp+0xc]
  108aee:	8b 55 14             	mov    edx,DWORD PTR [ebp+0x14]
  108af1:	8b 45 18             	mov    eax,DWORD PTR [ebp+0x18]
  108af4:	66 89 5d e4          	mov    WORD PTR [ebp-0x1c],bx
  108af8:	66 89 4d e0          	mov    WORD PTR [ebp-0x20],cx
  108afc:	88 55 dc             	mov    BYTE PTR [ebp-0x24],dl
  108aff:	88 45 d8             	mov    BYTE PTR [ebp-0x28],al
  108b02:	0f b7 05 0e 70 51 00 	movzx  eax,WORD PTR ds:0x51700e
  108b09:	66 89 45 f6          	mov    WORD PTR [ebp-0xa],ax
  108b0d:	0f b7 05 10 70 51 00 	movzx  eax,WORD PTR ds:0x517010
  108b14:	66 89 45 f4          	mov    WORD PTR [ebp-0xc],ax
  108b18:	0f b7 55 e0          	movzx  edx,WORD PTR [ebp-0x20]
  108b1c:	0f b7 45 e4          	movzx  eax,WORD PTR [ebp-0x1c]
  108b20:	83 ec 08             	sub    esp,0x8
  108b23:	52                   	push   edx
  108b24:	50                   	push   eax
  108b25:	e8 17 07 00 00       	call   109241 <vga_set_cursor>
  108b2a:	83 c4 10             	add    esp,0x10
  108b2d:	0f b6 55 d8          	movzx  edx,BYTE PTR [ebp-0x28]
  108b31:	0f b6 45 dc          	movzx  eax,BYTE PTR [ebp-0x24]
  108b35:	83 ec 04             	sub    esp,0x4
  108b38:	52                   	push   edx
  108b39:	50                   	push   eax
  108b3a:	ff 75 10             	push   DWORD PTR [ebp+0x10]
  108b3d:	e8 96 01 00 00       	call   108cd8 <vga_write_col>
  108b42:	83 c4 10             	add    esp,0x10
  108b45:	0f b7 55 f4          	movzx  edx,WORD PTR [ebp-0xc]
  108b49:	0f b7 45 f6          	movzx  eax,WORD PTR [ebp-0xa]
  108b4d:	83 ec 08             	sub    esp,0x8
  108b50:	52                   	push   edx
  108b51:	50                   	push   eax
  108b52:	e8 ea 06 00 00       	call   109241 <vga_set_cursor>
  108b57:	83 c4 10             	add    esp,0x10
  108b5a:	90                   	nop
  108b5b:	8b 5d fc             	mov    ebx,DWORD PTR [ebp-0x4]
  108b5e:	c9                   	leave  
  108b5f:	c3                   	ret    

00108b60 <vga_writechar>:
  108b60:	55                   	push   ebp
  108b61:	89 e5                	mov    ebp,esp
  108b63:	83 ec 18             	sub    esp,0x18
  108b66:	8b 45 08             	mov    eax,DWORD PTR [ebp+0x8]
  108b69:	88 45 f4             	mov    BYTE PTR [ebp-0xc],al
  108b6c:	0f b6 05 17 70 51 00 	movzx  eax,BYTE PTR ds:0x517017
  108b73:	0f b6 c8             	movzx  ecx,al
  108b76:	0f b6 05 16 70 51 00 	movzx  eax,BYTE PTR ds:0x517016
  108b7d:	0f b6 d0             	movzx  edx,al
  108b80:	0f be 45 f4          	movsx  eax,BYTE PTR [ebp-0xc]
  108b84:	83 ec 04             	sub    esp,0x4
  108b87:	51                   	push   ecx
  108b88:	52                   	push   edx
  108b89:	50                   	push   eax
  108b8a:	e8 3b 00 00 00       	call   108bca <vga_writechar_col>
  108b8f:	83 c4 10             	add    esp,0x10
  108b92:	90                   	nop
  108b93:	c9                   	leave  
  108b94:	c3                   	ret    

00108b95 <vga_writechar_fg>:
  108b95:	55                   	push   ebp
  108b96:	89 e5                	mov    ebp,esp
  108b98:	83 ec 18             	sub    esp,0x18
  108b9b:	8b 55 08             	mov    edx,DWORD PTR [ebp+0x8]
  108b9e:	8b 45 0c             	mov    eax,DWORD PTR [ebp+0xc]
  108ba1:	88 55 f4             	mov    BYTE PTR [ebp-0xc],dl
  108ba4:	88 45 f0             	mov    BYTE PTR [ebp-0x10],al
  108ba7:	0f b6 05 17 70 51 00 	movzx  eax,BYTE PTR ds:0x517017
  108bae:	0f b6 c8             	movzx  ecx,al
  108bb1:	0f b6 55 f0          	movzx  edx,BYTE PTR [ebp-0x10]
  108bb5:	0f be 45 f4          	movsx  eax,BYTE PTR [ebp-0xc]
  108bb9:	83 ec 04             	sub    esp,0x4
  108bbc:	51                   	push   ecx
  108bbd:	52                   	push   edx
  108bbe:	50                   	push   eax
  108bbf:	e8 06 00 00 00       	call   108bca <vga_writechar_col>
  108bc4:	83 c4 10             	add    esp,0x10
  108bc7:	90                   	nop
  108bc8:	c9                   	leave  
  108bc9:	c3                   	ret    

00108bca <vga_writechar_col>:
  108bca:	55                   	push   ebp
  108bcb:	89 e5                	mov    ebp,esp
  108bcd:	56                   	push   esi
  108bce:	53                   	push   ebx
  108bcf:	83 ec 10             	sub    esp,0x10
  108bd2:	8b 4d 08             	mov    ecx,DWORD PTR [ebp+0x8]
  108bd5:	8b 55 0c             	mov    edx,DWORD PTR [ebp+0xc]
  108bd8:	8b 45 10             	mov    eax,DWORD PTR [ebp+0x10]
  108bdb:	88 4d f4             	mov    BYTE PTR [ebp-0xc],cl
  108bde:	88 55 f0             	mov    BYTE PTR [ebp-0x10],dl
  108be1:	88 45 ec             	mov    BYTE PTR [ebp-0x14],al
  108be4:	0f b6 05 0c 70 51 00 	movzx  eax,BYTE PTR ds:0x51700c
  108beb:	84 c0                	test   al,al
  108bed:	0f 84 80 00 00 00    	je     108c73 <vga_writechar_col+0xa9>
  108bf3:	80 7d f4 0a          	cmp    BYTE PTR [ebp-0xc],0xa
  108bf7:	75 07                	jne    108c00 <vga_writechar_col+0x36>
  108bf9:	e8 0e fc ff ff       	call   10880c <vga_newline>
  108bfe:	eb 77                	jmp    108c77 <vga_writechar_col+0xad>
  108c00:	0f be 45 f4          	movsx  eax,BYTE PTR [ebp-0xc]
  108c04:	83 ec 0c             	sub    esp,0xc
  108c07:	50                   	push   eax
  108c08:	e8 15 7f ff ff       	call   100b22 <isprint>
  108c0d:	83 c4 10             	add    esp,0x10
  108c10:	85 c0                	test   eax,eax
  108c12:	74 62                	je     108c76 <vga_writechar_col+0xac>
  108c14:	0f b6 75 ec          	movzx  esi,BYTE PTR [ebp-0x14]
  108c18:	0f b6 5d f0          	movzx  ebx,BYTE PTR [ebp-0x10]
  108c1c:	0f be 4d f4          	movsx  ecx,BYTE PTR [ebp-0xc]
  108c20:	0f b7 05 10 70 51 00 	movzx  eax,WORD PTR ds:0x517010
  108c27:	0f b7 d0             	movzx  edx,ax
  108c2a:	0f b7 05 0e 70 51 00 	movzx  eax,WORD PTR ds:0x51700e
  108c31:	0f b7 c0             	movzx  eax,ax
  108c34:	83 ec 0c             	sub    esp,0xc
  108c37:	56                   	push   esi
  108c38:	53                   	push   ebx
  108c39:	51                   	push   ecx
  108c3a:	52                   	push   edx
  108c3b:	50                   	push   eax
  108c3c:	e8 ce fd ff ff       	call   108a0f <vga_putchar>
  108c41:	83 c4 20             	add    esp,0x20
  108c44:	0f b7 05 0e 70 51 00 	movzx  eax,WORD PTR ds:0x51700e
  108c4b:	83 c0 01             	add    eax,0x1
  108c4e:	66 a3 0e 70 51 00    	mov    ds:0x51700e,ax
  108c54:	0f b7 15 0e 70 51 00 	movzx  edx,WORD PTR ds:0x51700e
  108c5b:	0f b7 05 12 70 51 00 	movzx  eax,WORD PTR ds:0x517012
  108c62:	66 39 c2             	cmp    dx,ax
  108c65:	72 05                	jb     108c6c <vga_writechar_col+0xa2>
  108c67:	e8 a0 fb ff ff       	call   10880c <vga_newline>
  108c6c:	e8 51 05 00 00       	call   1091c2 <vga_update_cursor>
  108c71:	eb 04                	jmp    108c77 <vga_writechar_col+0xad>
  108c73:	90                   	nop
  108c74:	eb 01                	jmp    108c77 <vga_writechar_col+0xad>
  108c76:	90                   	nop
  108c77:	8d 65 f8             	lea    esp,[ebp-0x8]
  108c7a:	5b                   	pop    ebx
  108c7b:	5e                   	pop    esi
  108c7c:	5d                   	pop    ebp
  108c7d:	c3                   	ret    

00108c7e <vga_write>:
  108c7e:	55                   	push   ebp
  108c7f:	89 e5                	mov    ebp,esp
  108c81:	83 ec 08             	sub    esp,0x8
  108c84:	0f b6 05 17 70 51 00 	movzx  eax,BYTE PTR ds:0x517017
  108c8b:	0f b6 d0             	movzx  edx,al
  108c8e:	0f b6 05 16 70 51 00 	movzx  eax,BYTE PTR ds:0x517016
  108c95:	0f b6 c0             	movzx  eax,al
  108c98:	83 ec 04             	sub    esp,0x4
  108c9b:	52                   	push   edx
  108c9c:	50                   	push   eax
  108c9d:	ff 75 08             	push   DWORD PTR [ebp+0x8]
  108ca0:	e8 33 00 00 00       	call   108cd8 <vga_write_col>
  108ca5:	83 c4 10             	add    esp,0x10
  108ca8:	90                   	nop
  108ca9:	c9                   	leave  
  108caa:	c3                   	ret    

00108cab <vga_write_fg>:
  108cab:	55                   	push   ebp
  108cac:	89 e5                	mov    ebp,esp
  108cae:	83 ec 18             	sub    esp,0x18
  108cb1:	8b 45 0c             	mov    eax,DWORD PTR [ebp+0xc]
  108cb4:	88 45 f4             	mov    BYTE PTR [ebp-0xc],al
  108cb7:	0f b6 05 17 70 51 00 	movzx  eax,BYTE PTR ds:0x517017
  108cbe:	0f b6 d0             	movzx  edx,al
  108cc1:	0f b6 45 f4          	movzx  eax,BYTE PTR [ebp-0xc]
  108cc5:	83 ec 04             	sub    esp,0x4
  108cc8:	52                   	push   edx
  108cc9:	50                   	push   eax
  108cca:	ff 75 08             	push   DWORD PTR [ebp+0x8]
  108ccd:	e8 06 00 00 00       	call   108cd8 <vga_write_col>
  108cd2:	83 c4 10             	add    esp,0x10
  108cd5:	90                   	nop
  108cd6:	c9                   	leave  
  108cd7:	c3                   	ret    

00108cd8 <vga_write_col>:
  108cd8:	55                   	push   ebp
  108cd9:	89 e5                	mov    ebp,esp
  108cdb:	53                   	push   ebx
  108cdc:	83 ec 24             	sub    esp,0x24
  108cdf:	8b 55 0c             	mov    edx,DWORD PTR [ebp+0xc]
  108ce2:	8b 45 10             	mov    eax,DWORD PTR [ebp+0x10]
  108ce5:	88 55 e4             	mov    BYTE PTR [ebp-0x1c],dl
  108ce8:	88 45 e0             	mov    BYTE PTR [ebp-0x20],al
  108ceb:	0f b6 05 0c 70 51 00 	movzx  eax,BYTE PTR ds:0x51700c
  108cf2:	84 c0                	test   al,al
  108cf4:	74 5a                	je     108d50 <vga_write_col+0x78>
  108cf6:	83 7d 08 00          	cmp    DWORD PTR [ebp+0x8],0x0
  108cfa:	74 57                	je     108d53 <vga_write_col+0x7b>
  108cfc:	83 ec 0c             	sub    esp,0xc
  108cff:	ff 75 08             	push   DWORD PTR [ebp+0x8]
  108d02:	e8 e9 de ff ff       	call   106bf0 <strlen>
  108d07:	83 c4 10             	add    esp,0x10
  108d0a:	85 c0                	test   eax,eax
  108d0c:	74 48                	je     108d56 <vga_write_col+0x7e>
  108d0e:	c7 45 f4 00 00 00 00 	mov    DWORD PTR [ebp-0xc],0x0
  108d15:	eb 28                	jmp    108d3f <vga_write_col+0x67>
  108d17:	0f b6 4d e0          	movzx  ecx,BYTE PTR [ebp-0x20]
  108d1b:	0f b6 55 e4          	movzx  edx,BYTE PTR [ebp-0x1c]
  108d1f:	8b 5d 08             	mov    ebx,DWORD PTR [ebp+0x8]
  108d22:	8b 45 f4             	mov    eax,DWORD PTR [ebp-0xc]
  108d25:	01 d8                	add    eax,ebx
  108d27:	0f b6 00             	movzx  eax,BYTE PTR [eax]
  108d2a:	0f be c0             	movsx  eax,al
  108d2d:	83 ec 04             	sub    esp,0x4
  108d30:	51                   	push   ecx
  108d31:	52                   	push   edx
  108d32:	50                   	push   eax
  108d33:	e8 92 fe ff ff       	call   108bca <vga_writechar_col>
  108d38:	83 c4 10             	add    esp,0x10
  108d3b:	83 45 f4 01          	add    DWORD PTR [ebp-0xc],0x1
  108d3f:	8b 55 08             	mov    edx,DWORD PTR [ebp+0x8]
  108d42:	8b 45 f4             	mov    eax,DWORD PTR [ebp-0xc]
  108d45:	01 d0                	add    eax,edx
  108d47:	0f b6 00             	movzx  eax,BYTE PTR [eax]
  108d4a:	84 c0                	test   al,al
  108d4c:	75 c9                	jne    108d17 <vga_write_col+0x3f>
  108d4e:	eb 07                	jmp    108d57 <vga_write_col+0x7f>
  108d50:	90                   	nop
  108d51:	eb 04                	jmp    108d57 <vga_write_col+0x7f>
  108d53:	90                   	nop
  108d54:	eb 01                	jmp    108d57 <vga_write_col+0x7f>
  108d56:	90                   	nop
  108d57:	8b 5d fc             	mov    ebx,DWORD PTR [ebp-0x4]
  108d5a:	c9                   	leave  
  108d5b:	c3                   	ret    

00108d5c <vga_writeln>:
  108d5c:	55                   	push   ebp
  108d5d:	89 e5                	mov    ebp,esp
  108d5f:	83 ec 08             	sub    esp,0x8
  108d62:	0f b6 05 17 70 51 00 	movzx  eax,BYTE PTR ds:0x517017
  108d69:	0f b6 d0             	movzx  edx,al
  108d6c:	0f b6 05 16 70 51 00 	movzx  eax,BYTE PTR ds:0x517016
  108d73:	0f b6 c0             	movzx  eax,al
  108d76:	83 ec 04             	sub    esp,0x4
  108d79:	52                   	push   edx
  108d7a:	50                   	push   eax
  108d7b:	ff 75 08             	push   DWORD PTR [ebp+0x8]
  108d7e:	e8 33 00 00 00       	call   108db6 <vga_writeln_col>
  108d83:	83 c4 10             	add    esp,0x10
  108d86:	90                   	nop
  108d87:	c9                   	leave  
  108d88:	c3                   	ret    

00108d89 <vga_writeln_fg>:
  108d89:	55                   	push   ebp
  108d8a:	89 e5                	mov    ebp,esp
  108d8c:	83 ec 18             	sub    esp,0x18
  108d8f:	8b 45 0c             	mov    eax,DWORD PTR [ebp+0xc]
  108d92:	88 45 f4             	mov    BYTE PTR [ebp-0xc],al
  108d95:	0f b6 05 17 70 51 00 	movzx  eax,BYTE PTR ds:0x517017
  108d9c:	0f b6 d0             	movzx  edx,al
  108d9f:	0f b6 45 f4          	movzx  eax,BYTE PTR [ebp-0xc]
  108da3:	83 ec 04             	sub    esp,0x4
  108da6:	52                   	push   edx
  108da7:	50                   	push   eax
  108da8:	ff 75 08             	push   DWORD PTR [ebp+0x8]
  108dab:	e8 06 00 00 00       	call   108db6 <vga_writeln_col>
  108db0:	83 c4 10             	add    esp,0x10
  108db3:	90                   	nop
  108db4:	c9                   	leave  
  108db5:	c3                   	ret    

00108db6 <vga_writeln_col>:
  108db6:	55                   	push   ebp
  108db7:	89 e5                	mov    ebp,esp
  108db9:	83 ec 18             	sub    esp,0x18
  108dbc:	8b 55 0c             	mov    edx,DWORD PTR [ebp+0xc]
  108dbf:	8b 45 10             	mov    eax,DWORD PTR [ebp+0x10]
  108dc2:	88 55 f4             	mov    BYTE PTR [ebp-0xc],dl
  108dc5:	88 45 f0             	mov    BYTE PTR [ebp-0x10],al
  108dc8:	0f b6 55 f0          	movzx  edx,BYTE PTR [ebp-0x10]
  108dcc:	0f b6 45 f4          	movzx  eax,BYTE PTR [ebp-0xc]
  108dd0:	83 ec 04             	sub    esp,0x4
  108dd3:	52                   	push   edx
  108dd4:	50                   	push   eax
  108dd5:	ff 75 08             	push   DWORD PTR [ebp+0x8]
  108dd8:	e8 fb fe ff ff       	call   108cd8 <vga_write_col>
  108ddd:	83 c4 10             	add    esp,0x10
  108de0:	e8 27 fa ff ff       	call   10880c <vga_newline>
  108de5:	90                   	nop
  108de6:	c9                   	leave  
  108de7:	c3                   	ret    

00108de8 <vga_vprintf>:
  108de8:	55                   	push   ebp
  108de9:	89 e5                	mov    ebp,esp
  108deb:	81 ec c8 00 00 00    	sub    esp,0xc8
  108df1:	e9 8c 03 00 00       	jmp    109182 <vga_vprintf+0x39a>
  108df6:	8b 45 08             	mov    eax,DWORD PTR [ebp+0x8]
  108df9:	0f b6 00             	movzx  eax,BYTE PTR [eax]
  108dfc:	3c 25                	cmp    al,0x25
  108dfe:	0f 85 65 03 00 00    	jne    109169 <vga_vprintf+0x381>
  108e04:	83 45 08 01          	add    DWORD PTR [ebp+0x8],0x1
  108e08:	8b 45 08             	mov    eax,DWORD PTR [ebp+0x8]
  108e0b:	0f b6 00             	movzx  eax,BYTE PTR [eax]
  108e0e:	3c 25                	cmp    al,0x25
  108e10:	75 0d                	jne    108e1f <vga_vprintf+0x37>
  108e12:	83 ec 0c             	sub    esp,0xc
  108e15:	6a 25                	push   0x25
  108e17:	e8 44 fd ff ff       	call   108b60 <vga_writechar>
  108e1c:	83 c4 10             	add    esp,0x10
  108e1f:	8b 45 08             	mov    eax,DWORD PTR [ebp+0x8]
  108e22:	0f b6 00             	movzx  eax,BYTE PTR [eax]
  108e25:	3c 63                	cmp    al,0x63
  108e27:	75 20                	jne    108e49 <vga_vprintf+0x61>
  108e29:	83 45 0c 04          	add    DWORD PTR [ebp+0xc],0x4
  108e2d:	8b 45 0c             	mov    eax,DWORD PTR [ebp+0xc]
  108e30:	83 e8 04             	sub    eax,0x4
  108e33:	8b 00                	mov    eax,DWORD PTR [eax]
  108e35:	0f be c0             	movsx  eax,al
  108e38:	83 ec 0c             	sub    esp,0xc
  108e3b:	50                   	push   eax
  108e3c:	e8 1f fd ff ff       	call   108b60 <vga_writechar>
  108e41:	83 c4 10             	add    esp,0x10
  108e44:	e9 35 03 00 00       	jmp    10917e <vga_vprintf+0x396>
  108e49:	8b 45 08             	mov    eax,DWORD PTR [ebp+0x8]
  108e4c:	0f b6 00             	movzx  eax,BYTE PTR [eax]
  108e4f:	3c 64                	cmp    al,0x64
  108e51:	74 0a                	je     108e5d <vga_vprintf+0x75>
  108e53:	8b 45 08             	mov    eax,DWORD PTR [ebp+0x8]
  108e56:	0f b6 00             	movzx  eax,BYTE PTR [eax]
  108e59:	3c 75                	cmp    al,0x75
  108e5b:	75 45                	jne    108ea2 <vga_vprintf+0xba>
  108e5d:	83 45 0c 04          	add    DWORD PTR [ebp+0xc],0x4
  108e61:	8b 45 0c             	mov    eax,DWORD PTR [ebp+0xc]
  108e64:	8b 40 fc             	mov    eax,DWORD PTR [eax-0x4]
  108e67:	89 45 d0             	mov    DWORD PTR [ebp-0x30],eax
  108e6a:	83 ec 04             	sub    esp,0x4
  108e6d:	6a 10                	push   0x10
  108e6f:	6a 00                	push   0x0
  108e71:	8d 45 c0             	lea    eax,[ebp-0x40]
  108e74:	50                   	push   eax
  108e75:	e8 3b bc ff ff       	call   104ab5 <memset>
  108e7a:	83 c4 10             	add    esp,0x10
  108e7d:	83 ec 04             	sub    esp,0x4
  108e80:	6a 0a                	push   0xa
  108e82:	8d 45 c0             	lea    eax,[ebp-0x40]
  108e85:	50                   	push   eax
  108e86:	ff 75 d0             	push   DWORD PTR [ebp-0x30]
  108e89:	e8 6c 7f ff ff       	call   100dfa <itoa>
  108e8e:	83 c4 10             	add    esp,0x10
  108e91:	83 ec 0c             	sub    esp,0xc
  108e94:	50                   	push   eax
  108e95:	e8 e4 fd ff ff       	call   108c7e <vga_write>
  108e9a:	83 c4 10             	add    esp,0x10
  108e9d:	e9 dc 02 00 00       	jmp    10917e <vga_vprintf+0x396>
  108ea2:	8b 45 08             	mov    eax,DWORD PTR [ebp+0x8]
  108ea5:	0f b6 00             	movzx  eax,BYTE PTR [eax]
  108ea8:	3c 75                	cmp    al,0x75
  108eaa:	75 45                	jne    108ef1 <vga_vprintf+0x109>
  108eac:	83 45 0c 04          	add    DWORD PTR [ebp+0xc],0x4
  108eb0:	8b 45 0c             	mov    eax,DWORD PTR [ebp+0xc]
  108eb3:	8b 40 fc             	mov    eax,DWORD PTR [eax-0x4]
  108eb6:	89 45 d4             	mov    DWORD PTR [ebp-0x2c],eax
  108eb9:	83 ec 04             	sub    esp,0x4
  108ebc:	6a 10                	push   0x10
  108ebe:	6a 00                	push   0x0
  108ec0:	8d 45 b0             	lea    eax,[ebp-0x50]
  108ec3:	50                   	push   eax
  108ec4:	e8 ec bb ff ff       	call   104ab5 <memset>
  108ec9:	83 c4 10             	add    esp,0x10
  108ecc:	83 ec 04             	sub    esp,0x4
  108ecf:	6a 0a                	push   0xa
  108ed1:	8d 45 b0             	lea    eax,[ebp-0x50]
  108ed4:	50                   	push   eax
  108ed5:	ff 75 d4             	push   DWORD PTR [ebp-0x2c]
  108ed8:	e8 be 80 ff ff       	call   100f9b <ltoa>
  108edd:	83 c4 10             	add    esp,0x10
  108ee0:	83 ec 0c             	sub    esp,0xc
  108ee3:	50                   	push   eax
  108ee4:	e8 95 fd ff ff       	call   108c7e <vga_write>
  108ee9:	83 c4 10             	add    esp,0x10
  108eec:	e9 8d 02 00 00       	jmp    10917e <vga_vprintf+0x396>
  108ef1:	8b 45 08             	mov    eax,DWORD PTR [ebp+0x8]
  108ef4:	0f b6 00             	movzx  eax,BYTE PTR [eax]
  108ef7:	3c 78                	cmp    al,0x78
  108ef9:	75 45                	jne    108f40 <vga_vprintf+0x158>
  108efb:	83 45 0c 04          	add    DWORD PTR [ebp+0xc],0x4
  108eff:	8b 45 0c             	mov    eax,DWORD PTR [ebp+0xc]
  108f02:	8b 40 fc             	mov    eax,DWORD PTR [eax-0x4]
  108f05:	89 45 d8             	mov    DWORD PTR [ebp-0x28],eax
  108f08:	83 ec 04             	sub    esp,0x4
  108f0b:	6a 10                	push   0x10
  108f0d:	6a 00                	push   0x0
  108f0f:	8d 45 a0             	lea    eax,[ebp-0x60]
  108f12:	50                   	push   eax
  108f13:	e8 9d bb ff ff       	call   104ab5 <memset>
  108f18:	83 c4 10             	add    esp,0x10
  108f1b:	83 ec 04             	sub    esp,0x4
  108f1e:	6a 10                	push   0x10
  108f20:	8d 45 a0             	lea    eax,[ebp-0x60]
  108f23:	50                   	push   eax
  108f24:	ff 75 d8             	push   DWORD PTR [ebp-0x28]
  108f27:	e8 6f 80 ff ff       	call   100f9b <ltoa>
  108f2c:	83 c4 10             	add    esp,0x10
  108f2f:	83 ec 0c             	sub    esp,0xc
  108f32:	50                   	push   eax
  108f33:	e8 46 fd ff ff       	call   108c7e <vga_write>
  108f38:	83 c4 10             	add    esp,0x10
  108f3b:	e9 3e 02 00 00       	jmp    10917e <vga_vprintf+0x396>
  108f40:	8b 45 08             	mov    eax,DWORD PTR [ebp+0x8]
  108f43:	0f b6 00             	movzx  eax,BYTE PTR [eax]
  108f46:	3c 32                	cmp    al,0x32
  108f48:	75 76                	jne    108fc0 <vga_vprintf+0x1d8>
  108f4a:	83 45 08 01          	add    DWORD PTR [ebp+0x8],0x1
  108f4e:	8b 45 08             	mov    eax,DWORD PTR [ebp+0x8]
  108f51:	0f b6 00             	movzx  eax,BYTE PTR [eax]
  108f54:	3c 78                	cmp    al,0x78
  108f56:	74 24                	je     108f7c <vga_vprintf+0x194>
  108f58:	8b 45 08             	mov    eax,DWORD PTR [ebp+0x8]
  108f5b:	0f b6 00             	movzx  eax,BYTE PTR [eax]
  108f5e:	3c 58                	cmp    al,0x58
  108f60:	74 1a                	je     108f7c <vga_vprintf+0x194>
  108f62:	8b 45 08             	mov    eax,DWORD PTR [ebp+0x8]
  108f65:	0f b6 00             	movzx  eax,BYTE PTR [eax]
  108f68:	0f be c0             	movsx  eax,al
  108f6b:	83 ec 0c             	sub    esp,0xc
  108f6e:	50                   	push   eax
  108f6f:	e8 ec fb ff ff       	call   108b60 <vga_writechar>
  108f74:	83 c4 10             	add    esp,0x10
  108f77:	e9 02 02 00 00       	jmp    10917e <vga_vprintf+0x396>
  108f7c:	83 45 0c 04          	add    DWORD PTR [ebp+0xc],0x4
  108f80:	8b 45 0c             	mov    eax,DWORD PTR [ebp+0xc]
  108f83:	8b 40 fc             	mov    eax,DWORD PTR [eax-0x4]
  108f86:	89 45 dc             	mov    DWORD PTR [ebp-0x24],eax
  108f89:	83 ec 04             	sub    esp,0x4
  108f8c:	6a 10                	push   0x10
  108f8e:	6a 00                	push   0x0
  108f90:	8d 45 90             	lea    eax,[ebp-0x70]
  108f93:	50                   	push   eax
  108f94:	e8 1c bb ff ff       	call   104ab5 <memset>
  108f99:	83 c4 10             	add    esp,0x10
  108f9c:	6a 01                	push   0x1
  108f9e:	6a 00                	push   0x0
  108fa0:	8d 45 90             	lea    eax,[ebp-0x70]
  108fa3:	50                   	push   eax
  108fa4:	ff 75 dc             	push   DWORD PTR [ebp-0x24]
  108fa7:	e8 ff dd ff ff       	call   106dab <strhex>
  108fac:	83 c4 10             	add    esp,0x10
  108faf:	83 ec 0c             	sub    esp,0xc
  108fb2:	50                   	push   eax
  108fb3:	e8 c6 fc ff ff       	call   108c7e <vga_write>
  108fb8:	83 c4 10             	add    esp,0x10
  108fbb:	e9 be 01 00 00       	jmp    10917e <vga_vprintf+0x396>
  108fc0:	8b 45 08             	mov    eax,DWORD PTR [ebp+0x8]
  108fc3:	0f b6 00             	movzx  eax,BYTE PTR [eax]
  108fc6:	3c 34                	cmp    al,0x34
  108fc8:	75 76                	jne    109040 <vga_vprintf+0x258>
  108fca:	83 45 08 01          	add    DWORD PTR [ebp+0x8],0x1
  108fce:	8b 45 08             	mov    eax,DWORD PTR [ebp+0x8]
  108fd1:	0f b6 00             	movzx  eax,BYTE PTR [eax]
  108fd4:	3c 78                	cmp    al,0x78
  108fd6:	74 24                	je     108ffc <vga_vprintf+0x214>
  108fd8:	8b 45 08             	mov    eax,DWORD PTR [ebp+0x8]
  108fdb:	0f b6 00             	movzx  eax,BYTE PTR [eax]
  108fde:	3c 58                	cmp    al,0x58
  108fe0:	74 1a                	je     108ffc <vga_vprintf+0x214>
  108fe2:	8b 45 08             	mov    eax,DWORD PTR [ebp+0x8]
  108fe5:	0f b6 00             	movzx  eax,BYTE PTR [eax]
  108fe8:	0f be c0             	movsx  eax,al
  108feb:	83 ec 0c             	sub    esp,0xc
  108fee:	50                   	push   eax
  108fef:	e8 6c fb ff ff       	call   108b60 <vga_writechar>
  108ff4:	83 c4 10             	add    esp,0x10
  108ff7:	e9 82 01 00 00       	jmp    10917e <vga_vprintf+0x396>
  108ffc:	83 45 0c 04          	add    DWORD PTR [ebp+0xc],0x4
  109000:	8b 45 0c             	mov    eax,DWORD PTR [ebp+0xc]
  109003:	8b 40 fc             	mov    eax,DWORD PTR [eax-0x4]
  109006:	89 45 e0             	mov    DWORD PTR [ebp-0x20],eax
  109009:	83 ec 04             	sub    esp,0x4
  10900c:	6a 10                	push   0x10
  10900e:	6a 00                	push   0x0
  109010:	8d 45 80             	lea    eax,[ebp-0x80]
  109013:	50                   	push   eax
  109014:	e8 9c ba ff ff       	call   104ab5 <memset>
  109019:	83 c4 10             	add    esp,0x10
  10901c:	6a 02                	push   0x2
  10901e:	6a 00                	push   0x0
  109020:	8d 45 80             	lea    eax,[ebp-0x80]
  109023:	50                   	push   eax
  109024:	ff 75 e0             	push   DWORD PTR [ebp-0x20]
  109027:	e8 7f dd ff ff       	call   106dab <strhex>
  10902c:	83 c4 10             	add    esp,0x10
  10902f:	83 ec 0c             	sub    esp,0xc
  109032:	50                   	push   eax
  109033:	e8 46 fc ff ff       	call   108c7e <vga_write>
  109038:	83 c4 10             	add    esp,0x10
  10903b:	e9 3e 01 00 00       	jmp    10917e <vga_vprintf+0x396>
  109040:	8b 45 08             	mov    eax,DWORD PTR [ebp+0x8]
  109043:	0f b6 00             	movzx  eax,BYTE PTR [eax]
  109046:	3c 38                	cmp    al,0x38
  109048:	75 7c                	jne    1090c6 <vga_vprintf+0x2de>
  10904a:	83 45 08 01          	add    DWORD PTR [ebp+0x8],0x1
  10904e:	8b 45 08             	mov    eax,DWORD PTR [ebp+0x8]
  109051:	0f b6 00             	movzx  eax,BYTE PTR [eax]
  109054:	3c 78                	cmp    al,0x78
  109056:	74 24                	je     10907c <vga_vprintf+0x294>
  109058:	8b 45 08             	mov    eax,DWORD PTR [ebp+0x8]
  10905b:	0f b6 00             	movzx  eax,BYTE PTR [eax]
  10905e:	3c 58                	cmp    al,0x58
  109060:	74 1a                	je     10907c <vga_vprintf+0x294>
  109062:	8b 45 08             	mov    eax,DWORD PTR [ebp+0x8]
  109065:	0f b6 00             	movzx  eax,BYTE PTR [eax]
  109068:	0f be c0             	movsx  eax,al
  10906b:	83 ec 0c             	sub    esp,0xc
  10906e:	50                   	push   eax
  10906f:	e8 ec fa ff ff       	call   108b60 <vga_writechar>
  109074:	83 c4 10             	add    esp,0x10
  109077:	e9 02 01 00 00       	jmp    10917e <vga_vprintf+0x396>
  10907c:	83 45 0c 04          	add    DWORD PTR [ebp+0xc],0x4
  109080:	8b 45 0c             	mov    eax,DWORD PTR [ebp+0xc]
  109083:	8b 40 fc             	mov    eax,DWORD PTR [eax-0x4]
  109086:	89 45 e4             	mov    DWORD PTR [ebp-0x1c],eax
  109089:	83 ec 04             	sub    esp,0x4
  10908c:	6a 10                	push   0x10
  10908e:	6a 00                	push   0x0
  109090:	8d 85 70 ff ff ff    	lea    eax,[ebp-0x90]
  109096:	50                   	push   eax
  109097:	e8 19 ba ff ff       	call   104ab5 <memset>
  10909c:	83 c4 10             	add    esp,0x10
  10909f:	6a 04                	push   0x4
  1090a1:	6a 00                	push   0x0
  1090a3:	8d 85 70 ff ff ff    	lea    eax,[ebp-0x90]
  1090a9:	50                   	push   eax
  1090aa:	ff 75 e4             	push   DWORD PTR [ebp-0x1c]
  1090ad:	e8 f9 dc ff ff       	call   106dab <strhex>
  1090b2:	83 c4 10             	add    esp,0x10
  1090b5:	83 ec 0c             	sub    esp,0xc
  1090b8:	50                   	push   eax
  1090b9:	e8 c0 fb ff ff       	call   108c7e <vga_write>
  1090be:	83 c4 10             	add    esp,0x10
  1090c1:	e9 b8 00 00 00       	jmp    10917e <vga_vprintf+0x396>
  1090c6:	8b 45 08             	mov    eax,DWORD PTR [ebp+0x8]
  1090c9:	0f b6 00             	movzx  eax,BYTE PTR [eax]
  1090cc:	3c 66                	cmp    al,0x66
  1090ce:	75 5b                	jne    10912b <vga_vprintf+0x343>
  1090d0:	83 45 0c 08          	add    DWORD PTR [ebp+0xc],0x8
  1090d4:	8b 45 0c             	mov    eax,DWORD PTR [ebp+0xc]
  1090d7:	dd 40 f8             	fld    QWORD PTR [eax-0x8]
  1090da:	dd 5d e8             	fstp   QWORD PTR [ebp-0x18]
  1090dd:	83 ec 04             	sub    esp,0x4
  1090e0:	6a 20                	push   0x20
  1090e2:	6a 00                	push   0x0
  1090e4:	8d 85 50 ff ff ff    	lea    eax,[ebp-0xb0]
  1090ea:	50                   	push   eax
  1090eb:	e8 c5 b9 ff ff       	call   104ab5 <memset>
  1090f0:	83 c4 10             	add    esp,0x10
  1090f3:	dd 45 e8             	fld    QWORD PTR [ebp-0x18]
  1090f6:	d9 9d 44 ff ff ff    	fstp   DWORD PTR [ebp-0xbc]
  1090fc:	d9 85 44 ff ff ff    	fld    DWORD PTR [ebp-0xbc]
  109102:	83 ec 04             	sub    esp,0x4
  109105:	6a 02                	push   0x2
  109107:	8d 85 50 ff ff ff    	lea    eax,[ebp-0xb0]
  10910d:	50                   	push   eax
  10910e:	8d 64 24 fc          	lea    esp,[esp-0x4]
  109112:	d9 1c 24             	fstp   DWORD PTR [esp]
  109115:	e8 2f 7c ff ff       	call   100d49 <ftoa>
  10911a:	83 c4 10             	add    esp,0x10
  10911d:	83 ec 0c             	sub    esp,0xc
  109120:	50                   	push   eax
  109121:	e8 58 fb ff ff       	call   108c7e <vga_write>
  109126:	83 c4 10             	add    esp,0x10
  109129:	eb 53                	jmp    10917e <vga_vprintf+0x396>
  10912b:	8b 45 08             	mov    eax,DWORD PTR [ebp+0x8]
  10912e:	0f b6 00             	movzx  eax,BYTE PTR [eax]
  109131:	3c 73                	cmp    al,0x73
  109133:	75 1d                	jne    109152 <vga_vprintf+0x36a>
  109135:	83 45 0c 04          	add    DWORD PTR [ebp+0xc],0x4
  109139:	8b 45 0c             	mov    eax,DWORD PTR [ebp+0xc]
  10913c:	8b 40 fc             	mov    eax,DWORD PTR [eax-0x4]
  10913f:	89 45 f4             	mov    DWORD PTR [ebp-0xc],eax
  109142:	83 ec 0c             	sub    esp,0xc
  109145:	ff 75 f4             	push   DWORD PTR [ebp-0xc]
  109148:	e8 31 fb ff ff       	call   108c7e <vga_write>
  10914d:	83 c4 10             	add    esp,0x10
  109150:	eb 2c                	jmp    10917e <vga_vprintf+0x396>
  109152:	8b 45 08             	mov    eax,DWORD PTR [ebp+0x8]
  109155:	0f b6 00             	movzx  eax,BYTE PTR [eax]
  109158:	0f be c0             	movsx  eax,al
  10915b:	83 ec 0c             	sub    esp,0xc
  10915e:	50                   	push   eax
  10915f:	e8 fc f9 ff ff       	call   108b60 <vga_writechar>
  109164:	83 c4 10             	add    esp,0x10
  109167:	eb 15                	jmp    10917e <vga_vprintf+0x396>
  109169:	8b 45 08             	mov    eax,DWORD PTR [ebp+0x8]
  10916c:	0f b6 00             	movzx  eax,BYTE PTR [eax]
  10916f:	0f be c0             	movsx  eax,al
  109172:	83 ec 0c             	sub    esp,0xc
  109175:	50                   	push   eax
  109176:	e8 e5 f9 ff ff       	call   108b60 <vga_writechar>
  10917b:	83 c4 10             	add    esp,0x10
  10917e:	83 45 08 01          	add    DWORD PTR [ebp+0x8],0x1
  109182:	8b 45 08             	mov    eax,DWORD PTR [ebp+0x8]
  109185:	0f b6 00             	movzx  eax,BYTE PTR [eax]
  109188:	84 c0                	test   al,al
  10918a:	0f 85 66 fc ff ff    	jne    108df6 <vga_vprintf+0xe>
  109190:	e8 2d 00 00 00       	call   1091c2 <vga_update_cursor>
  109195:	b8 01 00 00 00       	mov    eax,0x1
  10919a:	c9                   	leave  
  10919b:	c3                   	ret    

0010919c <vga_printf>:
  10919c:	55                   	push   ebp
  10919d:	89 e5                	mov    ebp,esp
  10919f:	83 ec 18             	sub    esp,0x18
  1091a2:	8d 45 0c             	lea    eax,[ebp+0xc]
  1091a5:	89 45 f4             	mov    DWORD PTR [ebp-0xc],eax
  1091a8:	8b 45 08             	mov    eax,DWORD PTR [ebp+0x8]
  1091ab:	83 ec 08             	sub    esp,0x8
  1091ae:	ff 75 f4             	push   DWORD PTR [ebp-0xc]
  1091b1:	50                   	push   eax
  1091b2:	e8 31 fc ff ff       	call   108de8 <vga_vprintf>
  1091b7:	83 c4 10             	add    esp,0x10
  1091ba:	89 45 f0             	mov    DWORD PTR [ebp-0x10],eax
  1091bd:	8b 45 f0             	mov    eax,DWORD PTR [ebp-0x10]
  1091c0:	c9                   	leave  
  1091c1:	c3                   	ret    

001091c2 <vga_update_cursor>:
  1091c2:	55                   	push   ebp
  1091c3:	89 e5                	mov    ebp,esp
  1091c5:	83 ec 18             	sub    esp,0x18
  1091c8:	0f b7 15 10 70 51 00 	movzx  edx,WORD PTR ds:0x517010
  1091cf:	0f b7 05 12 70 51 00 	movzx  eax,WORD PTR ds:0x517012
  1091d6:	0f af d0             	imul   edx,eax
  1091d9:	0f b7 05 0e 70 51 00 	movzx  eax,WORD PTR ds:0x51700e
  1091e0:	01 d0                	add    eax,edx
  1091e2:	66 89 45 f6          	mov    WORD PTR [ebp-0xa],ax
  1091e6:	83 ec 08             	sub    esp,0x8
  1091e9:	6a 0f                	push   0xf
  1091eb:	68 d4 03 00 00       	push   0x3d4
  1091f0:	e8 0c be ff ff       	call   105001 <port_outb>
  1091f5:	83 c4 10             	add    esp,0x10
  1091f8:	0f b7 45 f6          	movzx  eax,WORD PTR [ebp-0xa]
  1091fc:	0f b6 c0             	movzx  eax,al
  1091ff:	83 ec 08             	sub    esp,0x8
  109202:	50                   	push   eax
  109203:	68 d5 03 00 00       	push   0x3d5
  109208:	e8 f4 bd ff ff       	call   105001 <port_outb>
  10920d:	83 c4 10             	add    esp,0x10
  109210:	83 ec 08             	sub    esp,0x8
  109213:	6a 0e                	push   0xe
  109215:	68 d4 03 00 00       	push   0x3d4
  10921a:	e8 e2 bd ff ff       	call   105001 <port_outb>
  10921f:	83 c4 10             	add    esp,0x10
  109222:	0f b7 45 f6          	movzx  eax,WORD PTR [ebp-0xa]
  109226:	66 c1 e8 08          	shr    ax,0x8
  10922a:	0f b6 c0             	movzx  eax,al
  10922d:	83 ec 08             	sub    esp,0x8
  109230:	50                   	push   eax
  109231:	68 d5 03 00 00       	push   0x3d5
  109236:	e8 c6 bd ff ff       	call   105001 <port_outb>
  10923b:	83 c4 10             	add    esp,0x10
  10923e:	90                   	nop
  10923f:	c9                   	leave  
  109240:	c3                   	ret    

00109241 <vga_set_cursor>:
  109241:	55                   	push   ebp
  109242:	89 e5                	mov    ebp,esp
  109244:	83 ec 18             	sub    esp,0x18
  109247:	8b 55 08             	mov    edx,DWORD PTR [ebp+0x8]
  10924a:	8b 45 0c             	mov    eax,DWORD PTR [ebp+0xc]
  10924d:	66 89 55 f4          	mov    WORD PTR [ebp-0xc],dx
  109251:	66 89 45 f0          	mov    WORD PTR [ebp-0x10],ax
  109255:	0f b7 05 12 70 51 00 	movzx  eax,WORD PTR ds:0x517012
  10925c:	66 39 45 f4          	cmp    WORD PTR [ebp-0xc],ax
  109260:	73 0d                	jae    10926f <vga_set_cursor+0x2e>
  109262:	0f b7 05 14 70 51 00 	movzx  eax,WORD PTR ds:0x517014
  109269:	66 39 45 f0          	cmp    WORD PTR [ebp-0x10],ax
  10926d:	72 16                	jb     109285 <vga_set_cursor+0x44>
  10926f:	83 ec 04             	sub    esp,0x4
  109272:	68 94 62 11 00       	push   0x116294
  109277:	6a 00                	push   0x0
  109279:	6a 03                	push   0x3
  10927b:	e8 a9 90 ff ff       	call   102329 <panicf>
  109280:	83 c4 10             	add    esp,0x10
  109283:	eb 19                	jmp    10929e <vga_set_cursor+0x5d>
  109285:	0f b7 45 f4          	movzx  eax,WORD PTR [ebp-0xc]
  109289:	66 a3 0e 70 51 00    	mov    ds:0x51700e,ax
  10928f:	0f b7 45 f0          	movzx  eax,WORD PTR [ebp-0x10]
  109293:	66 a3 10 70 51 00    	mov    ds:0x517010,ax
  109299:	e8 24 ff ff ff       	call   1091c2 <vga_update_cursor>
  10929e:	c9                   	leave  
  10929f:	c3                   	ret    

001092a0 <vga_set_cursor_x>:
  1092a0:	55                   	push   ebp
  1092a1:	89 e5                	mov    ebp,esp
  1092a3:	83 ec 18             	sub    esp,0x18
  1092a6:	8b 45 08             	mov    eax,DWORD PTR [ebp+0x8]
  1092a9:	66 89 45 f4          	mov    WORD PTR [ebp-0xc],ax
  1092ad:	0f b7 05 10 70 51 00 	movzx  eax,WORD PTR ds:0x517010
  1092b4:	0f b7 d0             	movzx  edx,ax
  1092b7:	0f b7 45 f4          	movzx  eax,WORD PTR [ebp-0xc]
  1092bb:	83 ec 08             	sub    esp,0x8
  1092be:	52                   	push   edx
  1092bf:	50                   	push   eax
  1092c0:	e8 7c ff ff ff       	call   109241 <vga_set_cursor>
  1092c5:	83 c4 10             	add    esp,0x10
  1092c8:	90                   	nop
  1092c9:	c9                   	leave  
  1092ca:	c3                   	ret    

001092cb <vga_set_cursor_y>:
  1092cb:	55                   	push   ebp
  1092cc:	89 e5                	mov    ebp,esp
  1092ce:	83 ec 18             	sub    esp,0x18
  1092d1:	8b 45 08             	mov    eax,DWORD PTR [ebp+0x8]
  1092d4:	66 89 45 f4          	mov    WORD PTR [ebp-0xc],ax
  1092d8:	0f b7 55 f4          	movzx  edx,WORD PTR [ebp-0xc]
  1092dc:	0f b7 05 0e 70 51 00 	movzx  eax,WORD PTR ds:0x51700e
  1092e3:	0f b7 c0             	movzx  eax,ax
  1092e6:	83 ec 08             	sub    esp,0x8
  1092e9:	52                   	push   edx
  1092ea:	50                   	push   eax
  1092eb:	e8 51 ff ff ff       	call   109241 <vga_set_cursor>
  1092f0:	83 c4 10             	add    esp,0x10
  1092f3:	90                   	nop
  1092f4:	c9                   	leave  
  1092f5:	c3                   	ret    

001092f6 <vga_cursor_enable>:
  1092f6:	55                   	push   ebp
  1092f7:	89 e5                	mov    ebp,esp
  1092f9:	83 ec 18             	sub    esp,0x18
  1092fc:	8b 55 08             	mov    edx,DWORD PTR [ebp+0x8]
  1092ff:	8b 45 0c             	mov    eax,DWORD PTR [ebp+0xc]
  109302:	88 55 f4             	mov    BYTE PTR [ebp-0xc],dl
  109305:	88 45 f0             	mov    BYTE PTR [ebp-0x10],al
  109308:	c6 05 0d 70 51 00 01 	mov    BYTE PTR ds:0x51700d,0x1
  10930f:	83 ec 08             	sub    esp,0x8
  109312:	6a 0a                	push   0xa
  109314:	68 d4 03 00 00       	push   0x3d4
  109319:	e8 e3 bc ff ff       	call   105001 <port_outb>
  10931e:	83 c4 10             	add    esp,0x10
  109321:	83 ec 0c             	sub    esp,0xc
  109324:	68 d5 03 00 00       	push   0x3d5
  109329:	e8 47 bc ff ff       	call   104f75 <port_inb>
  10932e:	83 c4 10             	add    esp,0x10
  109331:	83 e0 c0             	and    eax,0xffffffc0
  109334:	89 c2                	mov    edx,eax
  109336:	0f b6 45 f4          	movzx  eax,BYTE PTR [ebp-0xc]
  10933a:	09 d0                	or     eax,edx
  10933c:	0f b6 c0             	movzx  eax,al
  10933f:	83 ec 08             	sub    esp,0x8
  109342:	50                   	push   eax
  109343:	68 d5 03 00 00       	push   0x3d5
  109348:	e8 b4 bc ff ff       	call   105001 <port_outb>
  10934d:	83 c4 10             	add    esp,0x10
  109350:	83 ec 08             	sub    esp,0x8
  109353:	6a 0b                	push   0xb
  109355:	68 d4 03 00 00       	push   0x3d4
  10935a:	e8 a2 bc ff ff       	call   105001 <port_outb>
  10935f:	83 c4 10             	add    esp,0x10
  109362:	83 ec 0c             	sub    esp,0xc
  109365:	68 d5 03 00 00       	push   0x3d5
  10936a:	e8 06 bc ff ff       	call   104f75 <port_inb>
  10936f:	83 c4 10             	add    esp,0x10
  109372:	83 e0 e0             	and    eax,0xffffffe0
  109375:	89 c2                	mov    edx,eax
  109377:	0f b6 45 f0          	movzx  eax,BYTE PTR [ebp-0x10]
  10937b:	09 d0                	or     eax,edx
  10937d:	0f b6 c0             	movzx  eax,al
  109380:	83 ec 08             	sub    esp,0x8
  109383:	50                   	push   eax
  109384:	68 d5 03 00 00       	push   0x3d5
  109389:	e8 73 bc ff ff       	call   105001 <port_outb>
  10938e:	83 c4 10             	add    esp,0x10
  109391:	90                   	nop
  109392:	c9                   	leave  
  109393:	c3                   	ret    

00109394 <vga_cursor_disable>:
  109394:	55                   	push   ebp
  109395:	89 e5                	mov    ebp,esp
  109397:	83 ec 08             	sub    esp,0x8
  10939a:	c6 05 0d 70 51 00 00 	mov    BYTE PTR ds:0x51700d,0x0
  1093a1:	83 ec 08             	sub    esp,0x8
  1093a4:	6a 0a                	push   0xa
  1093a6:	68 d4 03 00 00       	push   0x3d4
  1093ab:	e8 51 bc ff ff       	call   105001 <port_outb>
  1093b0:	83 c4 10             	add    esp,0x10
  1093b3:	83 ec 08             	sub    esp,0x8
  1093b6:	6a 20                	push   0x20
  1093b8:	68 d5 03 00 00       	push   0x3d5
  1093bd:	e8 3f bc ff ff       	call   105001 <port_outb>
  1093c2:	83 c4 10             	add    esp,0x10
  1093c5:	90                   	nop
  1093c6:	c9                   	leave  
  1093c7:	c3                   	ret    

001093c8 <vga_set_colors>:
  1093c8:	55                   	push   ebp
  1093c9:	89 e5                	mov    ebp,esp
  1093cb:	83 ec 18             	sub    esp,0x18
  1093ce:	8b 55 08             	mov    edx,DWORD PTR [ebp+0x8]
  1093d1:	8b 45 0c             	mov    eax,DWORD PTR [ebp+0xc]
  1093d4:	88 55 f4             	mov    BYTE PTR [ebp-0xc],dl
  1093d7:	88 45 f0             	mov    BYTE PTR [ebp-0x10],al
  1093da:	0f b6 45 f4          	movzx  eax,BYTE PTR [ebp-0xc]
  1093de:	83 ec 0c             	sub    esp,0xc
  1093e1:	50                   	push   eax
  1093e2:	e8 16 00 00 00       	call   1093fd <vga_set_fg>
  1093e7:	83 c4 10             	add    esp,0x10
  1093ea:	0f b6 45 f0          	movzx  eax,BYTE PTR [ebp-0x10]
  1093ee:	83 ec 0c             	sub    esp,0xc
  1093f1:	50                   	push   eax
  1093f2:	e8 1e 00 00 00       	call   109415 <vga_set_bg>
  1093f7:	83 c4 10             	add    esp,0x10
  1093fa:	90                   	nop
  1093fb:	c9                   	leave  
  1093fc:	c3                   	ret    

001093fd <vga_set_fg>:
  1093fd:	55                   	push   ebp
  1093fe:	89 e5                	mov    ebp,esp
  109400:	83 ec 04             	sub    esp,0x4
  109403:	8b 45 08             	mov    eax,DWORD PTR [ebp+0x8]
  109406:	88 45 fc             	mov    BYTE PTR [ebp-0x4],al
  109409:	0f b6 45 fc          	movzx  eax,BYTE PTR [ebp-0x4]
  10940d:	a2 16 70 51 00       	mov    ds:0x517016,al
  109412:	90                   	nop
  109413:	c9                   	leave  
  109414:	c3                   	ret    

00109415 <vga_set_bg>:
  109415:	55                   	push   ebp
  109416:	89 e5                	mov    ebp,esp
  109418:	83 ec 04             	sub    esp,0x4
  10941b:	8b 45 08             	mov    eax,DWORD PTR [ebp+0x8]
  10941e:	88 45 fc             	mov    BYTE PTR [ebp-0x4],al
  109421:	0f b6 45 fc          	movzx  eax,BYTE PTR [ebp-0x4]
  109425:	a2 17 70 51 00       	mov    ds:0x517017,al
  10942a:	90                   	nop
  10942b:	c9                   	leave  
  10942c:	c3                   	ret    

0010942d <vga_get_cursor_x>:
  10942d:	55                   	push   ebp
  10942e:	89 e5                	mov    ebp,esp
  109430:	0f b7 05 0e 70 51 00 	movzx  eax,WORD PTR ds:0x51700e
  109437:	5d                   	pop    ebp
  109438:	c3                   	ret    

00109439 <vga_get_cursor_y>:
  109439:	55                   	push   ebp
  10943a:	89 e5                	mov    ebp,esp
  10943c:	0f b7 05 10 70 51 00 	movzx  eax,WORD PTR ds:0x517010
  109443:	5d                   	pop    ebp
  109444:	c3                   	ret    

00109445 <vga_get_fg>:
  109445:	55                   	push   ebp
  109446:	89 e5                	mov    ebp,esp
  109448:	0f b6 05 16 70 51 00 	movzx  eax,BYTE PTR ds:0x517016
  10944f:	5d                   	pop    ebp
  109450:	c3                   	ret    

00109451 <vga_get_bg>:
  109451:	55                   	push   ebp
  109452:	89 e5                	mov    ebp,esp
  109454:	0f b6 05 17 70 51 00 	movzx  eax,BYTE PTR ds:0x517017
  10945b:	5d                   	pop    ebp
  10945c:	c3                   	ret    

0010945d <vga_attribute>:
  10945d:	55                   	push   ebp
  10945e:	89 e5                	mov    ebp,esp
  109460:	83 ec 08             	sub    esp,0x8
  109463:	8b 55 08             	mov    edx,DWORD PTR [ebp+0x8]
  109466:	8b 45 0c             	mov    eax,DWORD PTR [ebp+0xc]
  109469:	88 55 fc             	mov    BYTE PTR [ebp-0x4],dl
  10946c:	88 45 f8             	mov    BYTE PTR [ebp-0x8],al
  10946f:	0f b6 45 f8          	movzx  eax,BYTE PTR [ebp-0x8]
  109473:	c1 e0 04             	shl    eax,0x4
  109476:	89 c2                	mov    edx,eax
  109478:	0f b6 45 fc          	movzx  eax,BYTE PTR [ebp-0x4]
  10947c:	09 d0                	or     eax,edx
  10947e:	c9                   	leave  
  10947f:	c3                   	ret    

00109480 <vga_get_width>:
  109480:	55                   	push   ebp
  109481:	89 e5                	mov    ebp,esp
  109483:	0f b7 05 12 70 51 00 	movzx  eax,WORD PTR ds:0x517012
  10948a:	5d                   	pop    ebp
  10948b:	c3                   	ret    

0010948c <vga_get_height>:
  10948c:	55                   	push   ebp
  10948d:	89 e5                	mov    ebp,esp
  10948f:	0f b7 05 14 70 51 00 	movzx  eax,WORD PTR ds:0x517014
  109496:	5d                   	pop    ebp
  109497:	c3                   	ret    
  109498:	66 90                	xchg   ax,ax
  10949a:	66 90                	xchg   ax,ax
  10949c:	66 90                	xchg   ax,ax
  10949e:	66 90                	xchg   ax,ax
  1094a0:	66 90                	xchg   ax,ax
  1094a2:	66 90                	xchg   ax,ax
  1094a4:	66 90                	xchg   ax,ax
  1094a6:	66 90                	xchg   ax,ax
  1094a8:	66 90                	xchg   ax,ax
  1094aa:	66 90                	xchg   ax,ax
  1094ac:	66 90                	xchg   ax,ax
  1094ae:	66 90                	xchg   ax,ax
  1094b0:	66 90                	xchg   ax,ax
  1094b2:	66 90                	xchg   ax,ax
  1094b4:	66 90                	xchg   ax,ax
  1094b6:	66 90                	xchg   ax,ax
  1094b8:	66 90                	xchg   ax,ax
  1094ba:	66 90                	xchg   ax,ax
  1094bc:	66 90                	xchg   ax,ax
  1094be:	66 90                	xchg   ax,ax
  1094c0:	66 90                	xchg   ax,ax
  1094c2:	66 90                	xchg   ax,ax
  1094c4:	66 90                	xchg   ax,ax
  1094c6:	66 90                	xchg   ax,ax
  1094c8:	66 90                	xchg   ax,ax
  1094ca:	66 90                	xchg   ax,ax
  1094cc:	66 90                	xchg   ax,ax
  1094ce:	66 90                	xchg   ax,ax
  1094d0:	66 90                	xchg   ax,ax
  1094d2:	66 90                	xchg   ax,ax
  1094d4:	66 90                	xchg   ax,ax
  1094d6:	66 90                	xchg   ax,ax
  1094d8:	66 90                	xchg   ax,ax
  1094da:	66 90                	xchg   ax,ax
  1094dc:	66 90                	xchg   ax,ax
  1094de:	66 90                	xchg   ax,ax
  1094e0:	66 90                	xchg   ax,ax
  1094e2:	66 90                	xchg   ax,ax
  1094e4:	66 90                	xchg   ax,ax
  1094e6:	66 90                	xchg   ax,ax
  1094e8:	66 90                	xchg   ax,ax
  1094ea:	66 90                	xchg   ax,ax
  1094ec:	66 90                	xchg   ax,ax
  1094ee:	66 90                	xchg   ax,ax
  1094f0:	66 90                	xchg   ax,ax
  1094f2:	66 90                	xchg   ax,ax
  1094f4:	66 90                	xchg   ax,ax
  1094f6:	66 90                	xchg   ax,ax
  1094f8:	66 90                	xchg   ax,ax
  1094fa:	66 90                	xchg   ax,ax
  1094fc:	66 90                	xchg   ax,ax
  1094fe:	66 90                	xchg   ax,ax
  109500:	66 90                	xchg   ax,ax
  109502:	66 90                	xchg   ax,ax
  109504:	66 90                	xchg   ax,ax
  109506:	66 90                	xchg   ax,ax
  109508:	66 90                	xchg   ax,ax
  10950a:	66 90                	xchg   ax,ax
  10950c:	66 90                	xchg   ax,ax
  10950e:	66 90                	xchg   ax,ax
  109510:	66 90                	xchg   ax,ax
  109512:	66 90                	xchg   ax,ax
  109514:	66 90                	xchg   ax,ax
  109516:	66 90                	xchg   ax,ax
  109518:	66 90                	xchg   ax,ax
  10951a:	66 90                	xchg   ax,ax
  10951c:	66 90                	xchg   ax,ax
  10951e:	66 90                	xchg   ax,ax
  109520:	66 90                	xchg   ax,ax
  109522:	66 90                	xchg   ax,ax
  109524:	66 90                	xchg   ax,ax
  109526:	66 90                	xchg   ax,ax
  109528:	66 90                	xchg   ax,ax
  10952a:	66 90                	xchg   ax,ax
  10952c:	66 90                	xchg   ax,ax
  10952e:	66 90                	xchg   ax,ax
  109530:	66 90                	xchg   ax,ax
  109532:	66 90                	xchg   ax,ax
  109534:	66 90                	xchg   ax,ax
  109536:	66 90                	xchg   ax,ax
  109538:	66 90                	xchg   ax,ax
  10953a:	66 90                	xchg   ax,ax
  10953c:	66 90                	xchg   ax,ax
  10953e:	66 90                	xchg   ax,ax
  109540:	66 90                	xchg   ax,ax
  109542:	66 90                	xchg   ax,ax
  109544:	66 90                	xchg   ax,ax
  109546:	66 90                	xchg   ax,ax
  109548:	66 90                	xchg   ax,ax
  10954a:	66 90                	xchg   ax,ax
  10954c:	66 90                	xchg   ax,ax
  10954e:	66 90                	xchg   ax,ax
  109550:	66 90                	xchg   ax,ax
  109552:	66 90                	xchg   ax,ax
  109554:	66 90                	xchg   ax,ax
  109556:	66 90                	xchg   ax,ax
  109558:	66 90                	xchg   ax,ax
  10955a:	66 90                	xchg   ax,ax
  10955c:	66 90                	xchg   ax,ax
  10955e:	66 90                	xchg   ax,ax
  109560:	66 90                	xchg   ax,ax
  109562:	66 90                	xchg   ax,ax
  109564:	66 90                	xchg   ax,ax
  109566:	66 90                	xchg   ax,ax
  109568:	66 90                	xchg   ax,ax
  10956a:	66 90                	xchg   ax,ax
  10956c:	66 90                	xchg   ax,ax
  10956e:	66 90                	xchg   ax,ax
  109570:	66 90                	xchg   ax,ax
  109572:	66 90                	xchg   ax,ax
  109574:	66 90                	xchg   ax,ax
  109576:	66 90                	xchg   ax,ax
  109578:	66 90                	xchg   ax,ax
  10957a:	66 90                	xchg   ax,ax
  10957c:	66 90                	xchg   ax,ax
  10957e:	66 90                	xchg   ax,ax
  109580:	66 90                	xchg   ax,ax
  109582:	66 90                	xchg   ax,ax
  109584:	66 90                	xchg   ax,ax
  109586:	66 90                	xchg   ax,ax
  109588:	66 90                	xchg   ax,ax
  10958a:	66 90                	xchg   ax,ax
  10958c:	66 90                	xchg   ax,ax
  10958e:	66 90                	xchg   ax,ax
  109590:	66 90                	xchg   ax,ax
  109592:	66 90                	xchg   ax,ax
  109594:	66 90                	xchg   ax,ax
  109596:	66 90                	xchg   ax,ax
  109598:	66 90                	xchg   ax,ax
  10959a:	66 90                	xchg   ax,ax
  10959c:	66 90                	xchg   ax,ax
  10959e:	66 90                	xchg   ax,ax
  1095a0:	66 90                	xchg   ax,ax
  1095a2:	66 90                	xchg   ax,ax
  1095a4:	66 90                	xchg   ax,ax
  1095a6:	66 90                	xchg   ax,ax
  1095a8:	66 90                	xchg   ax,ax
  1095aa:	66 90                	xchg   ax,ax
  1095ac:	66 90                	xchg   ax,ax
  1095ae:	66 90                	xchg   ax,ax
  1095b0:	66 90                	xchg   ax,ax
  1095b2:	66 90                	xchg   ax,ax
  1095b4:	66 90                	xchg   ax,ax
  1095b6:	66 90                	xchg   ax,ax
  1095b8:	66 90                	xchg   ax,ax
  1095ba:	66 90                	xchg   ax,ax
  1095bc:	66 90                	xchg   ax,ax
  1095be:	66 90                	xchg   ax,ax
  1095c0:	66 90                	xchg   ax,ax
  1095c2:	66 90                	xchg   ax,ax
  1095c4:	66 90                	xchg   ax,ax
  1095c6:	66 90                	xchg   ax,ax
  1095c8:	66 90                	xchg   ax,ax
  1095ca:	66 90                	xchg   ax,ax
  1095cc:	66 90                	xchg   ax,ax
  1095ce:	66 90                	xchg   ax,ax
  1095d0:	66 90                	xchg   ax,ax
  1095d2:	66 90                	xchg   ax,ax
  1095d4:	66 90                	xchg   ax,ax
  1095d6:	66 90                	xchg   ax,ax
  1095d8:	66 90                	xchg   ax,ax
  1095da:	66 90                	xchg   ax,ax
  1095dc:	66 90                	xchg   ax,ax
  1095de:	66 90                	xchg   ax,ax
  1095e0:	66 90                	xchg   ax,ax
  1095e2:	66 90                	xchg   ax,ax
  1095e4:	66 90                	xchg   ax,ax
  1095e6:	66 90                	xchg   ax,ax
  1095e8:	66 90                	xchg   ax,ax
  1095ea:	66 90                	xchg   ax,ax
  1095ec:	66 90                	xchg   ax,ax
  1095ee:	66 90                	xchg   ax,ax
  1095f0:	66 90                	xchg   ax,ax
  1095f2:	66 90                	xchg   ax,ax
  1095f4:	66 90                	xchg   ax,ax
  1095f6:	66 90                	xchg   ax,ax
  1095f8:	66 90                	xchg   ax,ax
  1095fa:	66 90                	xchg   ax,ax
  1095fc:	66 90                	xchg   ax,ax
  1095fe:	66 90                	xchg   ax,ax
  109600:	66 90                	xchg   ax,ax
  109602:	66 90                	xchg   ax,ax
  109604:	66 90                	xchg   ax,ax
  109606:	66 90                	xchg   ax,ax
  109608:	66 90                	xchg   ax,ax
  10960a:	66 90                	xchg   ax,ax
  10960c:	66 90                	xchg   ax,ax
  10960e:	66 90                	xchg   ax,ax
  109610:	66 90                	xchg   ax,ax
  109612:	66 90                	xchg   ax,ax
  109614:	66 90                	xchg   ax,ax
  109616:	66 90                	xchg   ax,ax
  109618:	66 90                	xchg   ax,ax
  10961a:	66 90                	xchg   ax,ax
  10961c:	66 90                	xchg   ax,ax
  10961e:	66 90                	xchg   ax,ax
  109620:	66 90                	xchg   ax,ax
  109622:	66 90                	xchg   ax,ax
  109624:	66 90                	xchg   ax,ax
  109626:	66 90                	xchg   ax,ax
  109628:	66 90                	xchg   ax,ax
  10962a:	66 90                	xchg   ax,ax
  10962c:	66 90                	xchg   ax,ax
  10962e:	66 90                	xchg   ax,ax
  109630:	66 90                	xchg   ax,ax
  109632:	66 90                	xchg   ax,ax
  109634:	66 90                	xchg   ax,ax
  109636:	66 90                	xchg   ax,ax
  109638:	66 90                	xchg   ax,ax
  10963a:	66 90                	xchg   ax,ax
  10963c:	66 90                	xchg   ax,ax
  10963e:	66 90                	xchg   ax,ax
  109640:	66 90                	xchg   ax,ax
  109642:	66 90                	xchg   ax,ax
  109644:	66 90                	xchg   ax,ax
  109646:	66 90                	xchg   ax,ax
  109648:	66 90                	xchg   ax,ax
  10964a:	66 90                	xchg   ax,ax
  10964c:	66 90                	xchg   ax,ax
  10964e:	66 90                	xchg   ax,ax
  109650:	66 90                	xchg   ax,ax
  109652:	66 90                	xchg   ax,ax
  109654:	66 90                	xchg   ax,ax
  109656:	66 90                	xchg   ax,ax
  109658:	66 90                	xchg   ax,ax
  10965a:	66 90                	xchg   ax,ax
  10965c:	66 90                	xchg   ax,ax
  10965e:	66 90                	xchg   ax,ax
  109660:	66 90                	xchg   ax,ax
  109662:	66 90                	xchg   ax,ax
  109664:	66 90                	xchg   ax,ax
  109666:	66 90                	xchg   ax,ax
  109668:	66 90                	xchg   ax,ax
  10966a:	66 90                	xchg   ax,ax
  10966c:	66 90                	xchg   ax,ax
  10966e:	66 90                	xchg   ax,ax
  109670:	66 90                	xchg   ax,ax
  109672:	66 90                	xchg   ax,ax
  109674:	66 90                	xchg   ax,ax
  109676:	66 90                	xchg   ax,ax
  109678:	66 90                	xchg   ax,ax
  10967a:	66 90                	xchg   ax,ax
  10967c:	66 90                	xchg   ax,ax
  10967e:	66 90                	xchg   ax,ax
  109680:	66 90                	xchg   ax,ax
  109682:	66 90                	xchg   ax,ax
  109684:	66 90                	xchg   ax,ax
  109686:	66 90                	xchg   ax,ax
  109688:	66 90                	xchg   ax,ax
  10968a:	66 90                	xchg   ax,ax
  10968c:	66 90                	xchg   ax,ax
  10968e:	66 90                	xchg   ax,ax
  109690:	66 90                	xchg   ax,ax
  109692:	66 90                	xchg   ax,ax
  109694:	66 90                	xchg   ax,ax
  109696:	66 90                	xchg   ax,ax
  109698:	66 90                	xchg   ax,ax
  10969a:	66 90                	xchg   ax,ax
  10969c:	66 90                	xchg   ax,ax
  10969e:	66 90                	xchg   ax,ax
  1096a0:	66 90                	xchg   ax,ax
  1096a2:	66 90                	xchg   ax,ax
  1096a4:	66 90                	xchg   ax,ax
  1096a6:	66 90                	xchg   ax,ax
  1096a8:	66 90                	xchg   ax,ax
  1096aa:	66 90                	xchg   ax,ax
  1096ac:	66 90                	xchg   ax,ax
  1096ae:	66 90                	xchg   ax,ax
  1096b0:	66 90                	xchg   ax,ax
  1096b2:	66 90                	xchg   ax,ax
  1096b4:	66 90                	xchg   ax,ax
  1096b6:	66 90                	xchg   ax,ax
  1096b8:	66 90                	xchg   ax,ax
  1096ba:	66 90                	xchg   ax,ax
  1096bc:	66 90                	xchg   ax,ax
  1096be:	66 90                	xchg   ax,ax
  1096c0:	66 90                	xchg   ax,ax
  1096c2:	66 90                	xchg   ax,ax
  1096c4:	66 90                	xchg   ax,ax
  1096c6:	66 90                	xchg   ax,ax
  1096c8:	66 90                	xchg   ax,ax
  1096ca:	66 90                	xchg   ax,ax
  1096cc:	66 90                	xchg   ax,ax
  1096ce:	66 90                	xchg   ax,ax
  1096d0:	66 90                	xchg   ax,ax
  1096d2:	66 90                	xchg   ax,ax
  1096d4:	66 90                	xchg   ax,ax
  1096d6:	66 90                	xchg   ax,ax
  1096d8:	66 90                	xchg   ax,ax
  1096da:	66 90                	xchg   ax,ax
  1096dc:	66 90                	xchg   ax,ax
  1096de:	66 90                	xchg   ax,ax
  1096e0:	66 90                	xchg   ax,ax
  1096e2:	66 90                	xchg   ax,ax
  1096e4:	66 90                	xchg   ax,ax
  1096e6:	66 90                	xchg   ax,ax
  1096e8:	66 90                	xchg   ax,ax
  1096ea:	66 90                	xchg   ax,ax
  1096ec:	66 90                	xchg   ax,ax
  1096ee:	66 90                	xchg   ax,ax
  1096f0:	66 90                	xchg   ax,ax
  1096f2:	66 90                	xchg   ax,ax
  1096f4:	66 90                	xchg   ax,ax
  1096f6:	66 90                	xchg   ax,ax
  1096f8:	66 90                	xchg   ax,ax
  1096fa:	66 90                	xchg   ax,ax
  1096fc:	66 90                	xchg   ax,ax
  1096fe:	66 90                	xchg   ax,ax
  109700:	66 90                	xchg   ax,ax
  109702:	66 90                	xchg   ax,ax
  109704:	66 90                	xchg   ax,ax
  109706:	66 90                	xchg   ax,ax
  109708:	66 90                	xchg   ax,ax
  10970a:	66 90                	xchg   ax,ax
  10970c:	66 90                	xchg   ax,ax
  10970e:	66 90                	xchg   ax,ax
  109710:	66 90                	xchg   ax,ax
  109712:	66 90                	xchg   ax,ax
  109714:	66 90                	xchg   ax,ax
  109716:	66 90                	xchg   ax,ax
  109718:	66 90                	xchg   ax,ax
  10971a:	66 90                	xchg   ax,ax
  10971c:	66 90                	xchg   ax,ax
  10971e:	66 90                	xchg   ax,ax
  109720:	66 90                	xchg   ax,ax
  109722:	66 90                	xchg   ax,ax
  109724:	66 90                	xchg   ax,ax
  109726:	66 90                	xchg   ax,ax
  109728:	66 90                	xchg   ax,ax
  10972a:	66 90                	xchg   ax,ax
  10972c:	66 90                	xchg   ax,ax
  10972e:	66 90                	xchg   ax,ax
  109730:	66 90                	xchg   ax,ax
  109732:	66 90                	xchg   ax,ax
  109734:	66 90                	xchg   ax,ax
  109736:	66 90                	xchg   ax,ax
  109738:	66 90                	xchg   ax,ax
  10973a:	66 90                	xchg   ax,ax
  10973c:	66 90                	xchg   ax,ax
  10973e:	66 90                	xchg   ax,ax
  109740:	66 90                	xchg   ax,ax
  109742:	66 90                	xchg   ax,ax
  109744:	66 90                	xchg   ax,ax
  109746:	66 90                	xchg   ax,ax
  109748:	66 90                	xchg   ax,ax
  10974a:	66 90                	xchg   ax,ax
  10974c:	66 90                	xchg   ax,ax
  10974e:	66 90                	xchg   ax,ax
  109750:	66 90                	xchg   ax,ax
  109752:	66 90                	xchg   ax,ax
  109754:	66 90                	xchg   ax,ax
  109756:	66 90                	xchg   ax,ax
  109758:	66 90                	xchg   ax,ax
  10975a:	66 90                	xchg   ax,ax
  10975c:	66 90                	xchg   ax,ax
  10975e:	66 90                	xchg   ax,ax
  109760:	66 90                	xchg   ax,ax
  109762:	66 90                	xchg   ax,ax
  109764:	66 90                	xchg   ax,ax
  109766:	66 90                	xchg   ax,ax
  109768:	66 90                	xchg   ax,ax
  10976a:	66 90                	xchg   ax,ax
  10976c:	66 90                	xchg   ax,ax
  10976e:	66 90                	xchg   ax,ax
  109770:	66 90                	xchg   ax,ax
  109772:	66 90                	xchg   ax,ax
  109774:	66 90                	xchg   ax,ax
  109776:	66 90                	xchg   ax,ax
  109778:	66 90                	xchg   ax,ax
  10977a:	66 90                	xchg   ax,ax
  10977c:	66 90                	xchg   ax,ax
  10977e:	66 90                	xchg   ax,ax
  109780:	66 90                	xchg   ax,ax
  109782:	66 90                	xchg   ax,ax
  109784:	66 90                	xchg   ax,ax
  109786:	66 90                	xchg   ax,ax
  109788:	66 90                	xchg   ax,ax
  10978a:	66 90                	xchg   ax,ax
  10978c:	66 90                	xchg   ax,ax
  10978e:	66 90                	xchg   ax,ax
  109790:	66 90                	xchg   ax,ax
  109792:	66 90                	xchg   ax,ax
  109794:	66 90                	xchg   ax,ax
  109796:	66 90                	xchg   ax,ax
  109798:	66 90                	xchg   ax,ax
  10979a:	66 90                	xchg   ax,ax
  10979c:	66 90                	xchg   ax,ax
  10979e:	66 90                	xchg   ax,ax
  1097a0:	66 90                	xchg   ax,ax
  1097a2:	66 90                	xchg   ax,ax
  1097a4:	66 90                	xchg   ax,ax
  1097a6:	66 90                	xchg   ax,ax
  1097a8:	66 90                	xchg   ax,ax
  1097aa:	66 90                	xchg   ax,ax
  1097ac:	66 90                	xchg   ax,ax
  1097ae:	66 90                	xchg   ax,ax
  1097b0:	66 90                	xchg   ax,ax
  1097b2:	66 90                	xchg   ax,ax
  1097b4:	66 90                	xchg   ax,ax
  1097b6:	66 90                	xchg   ax,ax
  1097b8:	66 90                	xchg   ax,ax
  1097ba:	66 90                	xchg   ax,ax
  1097bc:	66 90                	xchg   ax,ax
  1097be:	66 90                	xchg   ax,ax
  1097c0:	66 90                	xchg   ax,ax
  1097c2:	66 90                	xchg   ax,ax
  1097c4:	66 90                	xchg   ax,ax
  1097c6:	66 90                	xchg   ax,ax
  1097c8:	66 90                	xchg   ax,ax
  1097ca:	66 90                	xchg   ax,ax
  1097cc:	66 90                	xchg   ax,ax
  1097ce:	66 90                	xchg   ax,ax
  1097d0:	66 90                	xchg   ax,ax
  1097d2:	66 90                	xchg   ax,ax
  1097d4:	66 90                	xchg   ax,ax
  1097d6:	66 90                	xchg   ax,ax
  1097d8:	66 90                	xchg   ax,ax
  1097da:	66 90                	xchg   ax,ax
  1097dc:	66 90                	xchg   ax,ax
  1097de:	66 90                	xchg   ax,ax
  1097e0:	66 90                	xchg   ax,ax
  1097e2:	66 90                	xchg   ax,ax
  1097e4:	66 90                	xchg   ax,ax
  1097e6:	66 90                	xchg   ax,ax
  1097e8:	66 90                	xchg   ax,ax
  1097ea:	66 90                	xchg   ax,ax
  1097ec:	66 90                	xchg   ax,ax
  1097ee:	66 90                	xchg   ax,ax
  1097f0:	66 90                	xchg   ax,ax
  1097f2:	66 90                	xchg   ax,ax
  1097f4:	66 90                	xchg   ax,ax
  1097f6:	66 90                	xchg   ax,ax
  1097f8:	66 90                	xchg   ax,ax
  1097fa:	66 90                	xchg   ax,ax
  1097fc:	66 90                	xchg   ax,ax
  1097fe:	66 90                	xchg   ax,ax
  109800:	66 90                	xchg   ax,ax
  109802:	66 90                	xchg   ax,ax
  109804:	66 90                	xchg   ax,ax
  109806:	66 90                	xchg   ax,ax
  109808:	66 90                	xchg   ax,ax
  10980a:	66 90                	xchg   ax,ax
  10980c:	66 90                	xchg   ax,ax
  10980e:	66 90                	xchg   ax,ax
  109810:	66 90                	xchg   ax,ax
  109812:	66 90                	xchg   ax,ax
  109814:	66 90                	xchg   ax,ax
  109816:	66 90                	xchg   ax,ax
  109818:	66 90                	xchg   ax,ax
  10981a:	66 90                	xchg   ax,ax
  10981c:	66 90                	xchg   ax,ax
  10981e:	66 90                	xchg   ax,ax
  109820:	66 90                	xchg   ax,ax
  109822:	66 90                	xchg   ax,ax
  109824:	66 90                	xchg   ax,ax
  109826:	66 90                	xchg   ax,ax
  109828:	66 90                	xchg   ax,ax
  10982a:	66 90                	xchg   ax,ax
  10982c:	66 90                	xchg   ax,ax
  10982e:	66 90                	xchg   ax,ax
  109830:	66 90                	xchg   ax,ax
  109832:	66 90                	xchg   ax,ax
  109834:	66 90                	xchg   ax,ax
  109836:	66 90                	xchg   ax,ax
  109838:	66 90                	xchg   ax,ax
  10983a:	66 90                	xchg   ax,ax
  10983c:	66 90                	xchg   ax,ax
  10983e:	66 90                	xchg   ax,ax
  109840:	66 90                	xchg   ax,ax
  109842:	66 90                	xchg   ax,ax
  109844:	66 90                	xchg   ax,ax
  109846:	66 90                	xchg   ax,ax
  109848:	66 90                	xchg   ax,ax
  10984a:	66 90                	xchg   ax,ax
  10984c:	66 90                	xchg   ax,ax
  10984e:	66 90                	xchg   ax,ax
  109850:	66 90                	xchg   ax,ax
  109852:	66 90                	xchg   ax,ax
  109854:	66 90                	xchg   ax,ax
  109856:	66 90                	xchg   ax,ax
  109858:	66 90                	xchg   ax,ax
  10985a:	66 90                	xchg   ax,ax
  10985c:	66 90                	xchg   ax,ax
  10985e:	66 90                	xchg   ax,ax
  109860:	66 90                	xchg   ax,ax
  109862:	66 90                	xchg   ax,ax
  109864:	66 90                	xchg   ax,ax
  109866:	66 90                	xchg   ax,ax
  109868:	66 90                	xchg   ax,ax
  10986a:	66 90                	xchg   ax,ax
  10986c:	66 90                	xchg   ax,ax
  10986e:	66 90                	xchg   ax,ax
  109870:	66 90                	xchg   ax,ax
  109872:	66 90                	xchg   ax,ax
  109874:	66 90                	xchg   ax,ax
  109876:	66 90                	xchg   ax,ax
  109878:	66 90                	xchg   ax,ax
  10987a:	66 90                	xchg   ax,ax
  10987c:	66 90                	xchg   ax,ax
  10987e:	66 90                	xchg   ax,ax
  109880:	66 90                	xchg   ax,ax
  109882:	66 90                	xchg   ax,ax
  109884:	66 90                	xchg   ax,ax
  109886:	66 90                	xchg   ax,ax
  109888:	66 90                	xchg   ax,ax
  10988a:	66 90                	xchg   ax,ax
  10988c:	66 90                	xchg   ax,ax
  10988e:	66 90                	xchg   ax,ax
  109890:	66 90                	xchg   ax,ax
  109892:	66 90                	xchg   ax,ax
  109894:	66 90                	xchg   ax,ax
  109896:	66 90                	xchg   ax,ax
  109898:	66 90                	xchg   ax,ax
  10989a:	66 90                	xchg   ax,ax
  10989c:	66 90                	xchg   ax,ax
  10989e:	66 90                	xchg   ax,ax
  1098a0:	66 90                	xchg   ax,ax
  1098a2:	66 90                	xchg   ax,ax
  1098a4:	66 90                	xchg   ax,ax
  1098a6:	66 90                	xchg   ax,ax
  1098a8:	66 90                	xchg   ax,ax
  1098aa:	66 90                	xchg   ax,ax
  1098ac:	66 90                	xchg   ax,ax
  1098ae:	66 90                	xchg   ax,ax
  1098b0:	66 90                	xchg   ax,ax
  1098b2:	66 90                	xchg   ax,ax
  1098b4:	66 90                	xchg   ax,ax
  1098b6:	66 90                	xchg   ax,ax
  1098b8:	66 90                	xchg   ax,ax
  1098ba:	66 90                	xchg   ax,ax
  1098bc:	66 90                	xchg   ax,ax
  1098be:	66 90                	xchg   ax,ax
  1098c0:	66 90                	xchg   ax,ax
  1098c2:	66 90                	xchg   ax,ax
  1098c4:	66 90                	xchg   ax,ax
  1098c6:	66 90                	xchg   ax,ax
  1098c8:	66 90                	xchg   ax,ax
  1098ca:	66 90                	xchg   ax,ax
  1098cc:	66 90                	xchg   ax,ax
  1098ce:	66 90                	xchg   ax,ax
  1098d0:	66 90                	xchg   ax,ax
  1098d2:	66 90                	xchg   ax,ax
  1098d4:	66 90                	xchg   ax,ax
  1098d6:	66 90                	xchg   ax,ax
  1098d8:	66 90                	xchg   ax,ax
  1098da:	66 90                	xchg   ax,ax
  1098dc:	66 90                	xchg   ax,ax
  1098de:	66 90                	xchg   ax,ax
  1098e0:	66 90                	xchg   ax,ax
  1098e2:	66 90                	xchg   ax,ax
  1098e4:	66 90                	xchg   ax,ax
  1098e6:	66 90                	xchg   ax,ax
  1098e8:	66 90                	xchg   ax,ax
  1098ea:	66 90                	xchg   ax,ax
  1098ec:	66 90                	xchg   ax,ax
  1098ee:	66 90                	xchg   ax,ax
  1098f0:	66 90                	xchg   ax,ax
  1098f2:	66 90                	xchg   ax,ax
  1098f4:	66 90                	xchg   ax,ax
  1098f6:	66 90                	xchg   ax,ax
  1098f8:	66 90                	xchg   ax,ax
  1098fa:	66 90                	xchg   ax,ax
  1098fc:	66 90                	xchg   ax,ax
  1098fe:	66 90                	xchg   ax,ax
  109900:	66 90                	xchg   ax,ax
  109902:	66 90                	xchg   ax,ax
  109904:	66 90                	xchg   ax,ax
  109906:	66 90                	xchg   ax,ax
  109908:	66 90                	xchg   ax,ax
  10990a:	66 90                	xchg   ax,ax
  10990c:	66 90                	xchg   ax,ax
  10990e:	66 90                	xchg   ax,ax
  109910:	66 90                	xchg   ax,ax
  109912:	66 90                	xchg   ax,ax
  109914:	66 90                	xchg   ax,ax
  109916:	66 90                	xchg   ax,ax
  109918:	66 90                	xchg   ax,ax
  10991a:	66 90                	xchg   ax,ax
  10991c:	66 90                	xchg   ax,ax
  10991e:	66 90                	xchg   ax,ax
  109920:	66 90                	xchg   ax,ax
  109922:	66 90                	xchg   ax,ax
  109924:	66 90                	xchg   ax,ax
  109926:	66 90                	xchg   ax,ax
  109928:	66 90                	xchg   ax,ax
  10992a:	66 90                	xchg   ax,ax
  10992c:	66 90                	xchg   ax,ax
  10992e:	66 90                	xchg   ax,ax
  109930:	66 90                	xchg   ax,ax
  109932:	66 90                	xchg   ax,ax
  109934:	66 90                	xchg   ax,ax
  109936:	66 90                	xchg   ax,ax
  109938:	66 90                	xchg   ax,ax
  10993a:	66 90                	xchg   ax,ax
  10993c:	66 90                	xchg   ax,ax
  10993e:	66 90                	xchg   ax,ax
  109940:	66 90                	xchg   ax,ax
  109942:	66 90                	xchg   ax,ax
  109944:	66 90                	xchg   ax,ax
  109946:	66 90                	xchg   ax,ax
  109948:	66 90                	xchg   ax,ax
  10994a:	66 90                	xchg   ax,ax
  10994c:	66 90                	xchg   ax,ax
  10994e:	66 90                	xchg   ax,ax
  109950:	66 90                	xchg   ax,ax
  109952:	66 90                	xchg   ax,ax
  109954:	66 90                	xchg   ax,ax
  109956:	66 90                	xchg   ax,ax
  109958:	66 90                	xchg   ax,ax
  10995a:	66 90                	xchg   ax,ax
  10995c:	66 90                	xchg   ax,ax
  10995e:	66 90                	xchg   ax,ax
  109960:	66 90                	xchg   ax,ax
  109962:	66 90                	xchg   ax,ax
  109964:	66 90                	xchg   ax,ax
  109966:	66 90                	xchg   ax,ax
  109968:	66 90                	xchg   ax,ax
  10996a:	66 90                	xchg   ax,ax
  10996c:	66 90                	xchg   ax,ax
  10996e:	66 90                	xchg   ax,ax
  109970:	66 90                	xchg   ax,ax
  109972:	66 90                	xchg   ax,ax
  109974:	66 90                	xchg   ax,ax
  109976:	66 90                	xchg   ax,ax
  109978:	66 90                	xchg   ax,ax
  10997a:	66 90                	xchg   ax,ax
  10997c:	66 90                	xchg   ax,ax
  10997e:	66 90                	xchg   ax,ax
  109980:	66 90                	xchg   ax,ax
  109982:	66 90                	xchg   ax,ax
  109984:	66 90                	xchg   ax,ax
  109986:	66 90                	xchg   ax,ax
  109988:	66 90                	xchg   ax,ax
  10998a:	66 90                	xchg   ax,ax
  10998c:	66 90                	xchg   ax,ax
  10998e:	66 90                	xchg   ax,ax
  109990:	66 90                	xchg   ax,ax
  109992:	66 90                	xchg   ax,ax
  109994:	66 90                	xchg   ax,ax
  109996:	66 90                	xchg   ax,ax
  109998:	66 90                	xchg   ax,ax
  10999a:	66 90                	xchg   ax,ax
  10999c:	66 90                	xchg   ax,ax
  10999e:	66 90                	xchg   ax,ax
  1099a0:	66 90                	xchg   ax,ax
  1099a2:	66 90                	xchg   ax,ax
  1099a4:	66 90                	xchg   ax,ax
  1099a6:	66 90                	xchg   ax,ax
  1099a8:	66 90                	xchg   ax,ax
  1099aa:	66 90                	xchg   ax,ax
  1099ac:	66 90                	xchg   ax,ax
  1099ae:	66 90                	xchg   ax,ax
  1099b0:	66 90                	xchg   ax,ax
  1099b2:	66 90                	xchg   ax,ax
  1099b4:	66 90                	xchg   ax,ax
  1099b6:	66 90                	xchg   ax,ax
  1099b8:	66 90                	xchg   ax,ax
  1099ba:	66 90                	xchg   ax,ax
  1099bc:	66 90                	xchg   ax,ax
  1099be:	66 90                	xchg   ax,ax
  1099c0:	66 90                	xchg   ax,ax
  1099c2:	66 90                	xchg   ax,ax
  1099c4:	66 90                	xchg   ax,ax
  1099c6:	66 90                	xchg   ax,ax
  1099c8:	66 90                	xchg   ax,ax
  1099ca:	66 90                	xchg   ax,ax
  1099cc:	66 90                	xchg   ax,ax
  1099ce:	66 90                	xchg   ax,ax
  1099d0:	66 90                	xchg   ax,ax
  1099d2:	66 90                	xchg   ax,ax
  1099d4:	66 90                	xchg   ax,ax
  1099d6:	66 90                	xchg   ax,ax
  1099d8:	66 90                	xchg   ax,ax
  1099da:	66 90                	xchg   ax,ax
  1099dc:	66 90                	xchg   ax,ax
  1099de:	66 90                	xchg   ax,ax
  1099e0:	66 90                	xchg   ax,ax
  1099e2:	66 90                	xchg   ax,ax
  1099e4:	66 90                	xchg   ax,ax
  1099e6:	66 90                	xchg   ax,ax
  1099e8:	66 90                	xchg   ax,ax
  1099ea:	66 90                	xchg   ax,ax
  1099ec:	66 90                	xchg   ax,ax
  1099ee:	66 90                	xchg   ax,ax
  1099f0:	66 90                	xchg   ax,ax
  1099f2:	66 90                	xchg   ax,ax
  1099f4:	66 90                	xchg   ax,ax
  1099f6:	66 90                	xchg   ax,ax
  1099f8:	66 90                	xchg   ax,ax
  1099fa:	66 90                	xchg   ax,ax
  1099fc:	66 90                	xchg   ax,ax
  1099fe:	66 90                	xchg   ax,ax
  109a00:	66 90                	xchg   ax,ax
  109a02:	66 90                	xchg   ax,ax
  109a04:	66 90                	xchg   ax,ax
  109a06:	66 90                	xchg   ax,ax
  109a08:	66 90                	xchg   ax,ax
  109a0a:	66 90                	xchg   ax,ax
  109a0c:	66 90                	xchg   ax,ax
  109a0e:	66 90                	xchg   ax,ax
  109a10:	66 90                	xchg   ax,ax
  109a12:	66 90                	xchg   ax,ax
  109a14:	66 90                	xchg   ax,ax
  109a16:	66 90                	xchg   ax,ax
  109a18:	66 90                	xchg   ax,ax
  109a1a:	66 90                	xchg   ax,ax
  109a1c:	66 90                	xchg   ax,ax
  109a1e:	66 90                	xchg   ax,ax
  109a20:	66 90                	xchg   ax,ax
  109a22:	66 90                	xchg   ax,ax
  109a24:	66 90                	xchg   ax,ax
  109a26:	66 90                	xchg   ax,ax
  109a28:	66 90                	xchg   ax,ax
  109a2a:	66 90                	xchg   ax,ax
  109a2c:	66 90                	xchg   ax,ax
  109a2e:	66 90                	xchg   ax,ax
  109a30:	66 90                	xchg   ax,ax
  109a32:	66 90                	xchg   ax,ax
  109a34:	66 90                	xchg   ax,ax
  109a36:	66 90                	xchg   ax,ax
  109a38:	66 90                	xchg   ax,ax
  109a3a:	66 90                	xchg   ax,ax
  109a3c:	66 90                	xchg   ax,ax
  109a3e:	66 90                	xchg   ax,ax
  109a40:	66 90                	xchg   ax,ax
  109a42:	66 90                	xchg   ax,ax
  109a44:	66 90                	xchg   ax,ax
  109a46:	66 90                	xchg   ax,ax
  109a48:	66 90                	xchg   ax,ax
  109a4a:	66 90                	xchg   ax,ax
  109a4c:	66 90                	xchg   ax,ax
  109a4e:	66 90                	xchg   ax,ax
  109a50:	66 90                	xchg   ax,ax
  109a52:	66 90                	xchg   ax,ax
  109a54:	66 90                	xchg   ax,ax
  109a56:	66 90                	xchg   ax,ax
  109a58:	66 90                	xchg   ax,ax
  109a5a:	66 90                	xchg   ax,ax
  109a5c:	66 90                	xchg   ax,ax
  109a5e:	66 90                	xchg   ax,ax
  109a60:	66 90                	xchg   ax,ax
  109a62:	66 90                	xchg   ax,ax
  109a64:	66 90                	xchg   ax,ax
  109a66:	66 90                	xchg   ax,ax
  109a68:	66 90                	xchg   ax,ax
  109a6a:	66 90                	xchg   ax,ax
  109a6c:	66 90                	xchg   ax,ax
  109a6e:	66 90                	xchg   ax,ax
  109a70:	66 90                	xchg   ax,ax
  109a72:	66 90                	xchg   ax,ax
  109a74:	66 90                	xchg   ax,ax
  109a76:	66 90                	xchg   ax,ax
  109a78:	66 90                	xchg   ax,ax
  109a7a:	66 90                	xchg   ax,ax
  109a7c:	66 90                	xchg   ax,ax
  109a7e:	66 90                	xchg   ax,ax
  109a80:	66 90                	xchg   ax,ax
  109a82:	66 90                	xchg   ax,ax
  109a84:	66 90                	xchg   ax,ax
  109a86:	66 90                	xchg   ax,ax
  109a88:	66 90                	xchg   ax,ax
  109a8a:	66 90                	xchg   ax,ax
  109a8c:	66 90                	xchg   ax,ax
  109a8e:	66 90                	xchg   ax,ax
  109a90:	66 90                	xchg   ax,ax
  109a92:	66 90                	xchg   ax,ax
  109a94:	66 90                	xchg   ax,ax
  109a96:	66 90                	xchg   ax,ax
  109a98:	66 90                	xchg   ax,ax
  109a9a:	66 90                	xchg   ax,ax
  109a9c:	66 90                	xchg   ax,ax
  109a9e:	66 90                	xchg   ax,ax
  109aa0:	66 90                	xchg   ax,ax
  109aa2:	66 90                	xchg   ax,ax
  109aa4:	66 90                	xchg   ax,ax
  109aa6:	66 90                	xchg   ax,ax
  109aa8:	66 90                	xchg   ax,ax
  109aaa:	66 90                	xchg   ax,ax
  109aac:	66 90                	xchg   ax,ax
  109aae:	66 90                	xchg   ax,ax
  109ab0:	66 90                	xchg   ax,ax
  109ab2:	66 90                	xchg   ax,ax
  109ab4:	66 90                	xchg   ax,ax
  109ab6:	66 90                	xchg   ax,ax
  109ab8:	66 90                	xchg   ax,ax
  109aba:	66 90                	xchg   ax,ax
  109abc:	66 90                	xchg   ax,ax
  109abe:	66 90                	xchg   ax,ax
  109ac0:	66 90                	xchg   ax,ax
  109ac2:	66 90                	xchg   ax,ax
  109ac4:	66 90                	xchg   ax,ax
  109ac6:	66 90                	xchg   ax,ax
  109ac8:	66 90                	xchg   ax,ax
  109aca:	66 90                	xchg   ax,ax
  109acc:	66 90                	xchg   ax,ax
  109ace:	66 90                	xchg   ax,ax
  109ad0:	66 90                	xchg   ax,ax
  109ad2:	66 90                	xchg   ax,ax
  109ad4:	66 90                	xchg   ax,ax
  109ad6:	66 90                	xchg   ax,ax
  109ad8:	66 90                	xchg   ax,ax
  109ada:	66 90                	xchg   ax,ax
  109adc:	66 90                	xchg   ax,ax
  109ade:	66 90                	xchg   ax,ax
  109ae0:	66 90                	xchg   ax,ax
  109ae2:	66 90                	xchg   ax,ax
  109ae4:	66 90                	xchg   ax,ax
  109ae6:	66 90                	xchg   ax,ax
  109ae8:	66 90                	xchg   ax,ax
  109aea:	66 90                	xchg   ax,ax
  109aec:	66 90                	xchg   ax,ax
  109aee:	66 90                	xchg   ax,ax
  109af0:	66 90                	xchg   ax,ax
  109af2:	66 90                	xchg   ax,ax
  109af4:	66 90                	xchg   ax,ax
  109af6:	66 90                	xchg   ax,ax
  109af8:	66 90                	xchg   ax,ax
  109afa:	66 90                	xchg   ax,ax
  109afc:	66 90                	xchg   ax,ax
  109afe:	66 90                	xchg   ax,ax
  109b00:	66 90                	xchg   ax,ax
  109b02:	66 90                	xchg   ax,ax
  109b04:	66 90                	xchg   ax,ax
  109b06:	66 90                	xchg   ax,ax
  109b08:	66 90                	xchg   ax,ax
  109b0a:	66 90                	xchg   ax,ax
  109b0c:	66 90                	xchg   ax,ax
  109b0e:	66 90                	xchg   ax,ax
  109b10:	66 90                	xchg   ax,ax
  109b12:	66 90                	xchg   ax,ax
  109b14:	66 90                	xchg   ax,ax
  109b16:	66 90                	xchg   ax,ax
  109b18:	66 90                	xchg   ax,ax
  109b1a:	66 90                	xchg   ax,ax
  109b1c:	66 90                	xchg   ax,ax
  109b1e:	66 90                	xchg   ax,ax
  109b20:	66 90                	xchg   ax,ax
  109b22:	66 90                	xchg   ax,ax
  109b24:	66 90                	xchg   ax,ax
  109b26:	66 90                	xchg   ax,ax
  109b28:	66 90                	xchg   ax,ax
  109b2a:	66 90                	xchg   ax,ax
  109b2c:	66 90                	xchg   ax,ax
  109b2e:	66 90                	xchg   ax,ax
  109b30:	66 90                	xchg   ax,ax
  109b32:	66 90                	xchg   ax,ax
  109b34:	66 90                	xchg   ax,ax
  109b36:	66 90                	xchg   ax,ax
  109b38:	66 90                	xchg   ax,ax
  109b3a:	66 90                	xchg   ax,ax
  109b3c:	66 90                	xchg   ax,ax
  109b3e:	66 90                	xchg   ax,ax
  109b40:	66 90                	xchg   ax,ax
  109b42:	66 90                	xchg   ax,ax
  109b44:	66 90                	xchg   ax,ax
  109b46:	66 90                	xchg   ax,ax
  109b48:	66 90                	xchg   ax,ax
  109b4a:	66 90                	xchg   ax,ax
  109b4c:	66 90                	xchg   ax,ax
  109b4e:	66 90                	xchg   ax,ax
  109b50:	66 90                	xchg   ax,ax
  109b52:	66 90                	xchg   ax,ax
  109b54:	66 90                	xchg   ax,ax
  109b56:	66 90                	xchg   ax,ax
  109b58:	66 90                	xchg   ax,ax
  109b5a:	66 90                	xchg   ax,ax
  109b5c:	66 90                	xchg   ax,ax
  109b5e:	66 90                	xchg   ax,ax
  109b60:	66 90                	xchg   ax,ax
  109b62:	66 90                	xchg   ax,ax
  109b64:	66 90                	xchg   ax,ax
  109b66:	66 90                	xchg   ax,ax
  109b68:	66 90                	xchg   ax,ax
  109b6a:	66 90                	xchg   ax,ax
  109b6c:	66 90                	xchg   ax,ax
  109b6e:	66 90                	xchg   ax,ax
  109b70:	66 90                	xchg   ax,ax
  109b72:	66 90                	xchg   ax,ax
  109b74:	66 90                	xchg   ax,ax
  109b76:	66 90                	xchg   ax,ax
  109b78:	66 90                	xchg   ax,ax
  109b7a:	66 90                	xchg   ax,ax
  109b7c:	66 90                	xchg   ax,ax
  109b7e:	66 90                	xchg   ax,ax
  109b80:	66 90                	xchg   ax,ax
  109b82:	66 90                	xchg   ax,ax
  109b84:	66 90                	xchg   ax,ax
  109b86:	66 90                	xchg   ax,ax
  109b88:	66 90                	xchg   ax,ax
  109b8a:	66 90                	xchg   ax,ax
  109b8c:	66 90                	xchg   ax,ax
  109b8e:	66 90                	xchg   ax,ax
  109b90:	66 90                	xchg   ax,ax
  109b92:	66 90                	xchg   ax,ax
  109b94:	66 90                	xchg   ax,ax
  109b96:	66 90                	xchg   ax,ax
  109b98:	66 90                	xchg   ax,ax
  109b9a:	66 90                	xchg   ax,ax
  109b9c:	66 90                	xchg   ax,ax
  109b9e:	66 90                	xchg   ax,ax
  109ba0:	66 90                	xchg   ax,ax
  109ba2:	66 90                	xchg   ax,ax
  109ba4:	66 90                	xchg   ax,ax
  109ba6:	66 90                	xchg   ax,ax
  109ba8:	66 90                	xchg   ax,ax
  109baa:	66 90                	xchg   ax,ax
  109bac:	66 90                	xchg   ax,ax
  109bae:	66 90                	xchg   ax,ax
  109bb0:	66 90                	xchg   ax,ax
  109bb2:	66 90                	xchg   ax,ax
  109bb4:	66 90                	xchg   ax,ax
  109bb6:	66 90                	xchg   ax,ax
  109bb8:	66 90                	xchg   ax,ax
  109bba:	66 90                	xchg   ax,ax
  109bbc:	66 90                	xchg   ax,ax
  109bbe:	66 90                	xchg   ax,ax
  109bc0:	66 90                	xchg   ax,ax
  109bc2:	66 90                	xchg   ax,ax
  109bc4:	66 90                	xchg   ax,ax
  109bc6:	66 90                	xchg   ax,ax
  109bc8:	66 90                	xchg   ax,ax
  109bca:	66 90                	xchg   ax,ax
  109bcc:	66 90                	xchg   ax,ax
  109bce:	66 90                	xchg   ax,ax
  109bd0:	66 90                	xchg   ax,ax
  109bd2:	66 90                	xchg   ax,ax
  109bd4:	66 90                	xchg   ax,ax
  109bd6:	66 90                	xchg   ax,ax
  109bd8:	66 90                	xchg   ax,ax
  109bda:	66 90                	xchg   ax,ax
  109bdc:	66 90                	xchg   ax,ax
  109bde:	66 90                	xchg   ax,ax
  109be0:	66 90                	xchg   ax,ax
  109be2:	66 90                	xchg   ax,ax
  109be4:	66 90                	xchg   ax,ax
  109be6:	66 90                	xchg   ax,ax
  109be8:	66 90                	xchg   ax,ax
  109bea:	66 90                	xchg   ax,ax
  109bec:	66 90                	xchg   ax,ax
  109bee:	66 90                	xchg   ax,ax
  109bf0:	66 90                	xchg   ax,ax
  109bf2:	66 90                	xchg   ax,ax
  109bf4:	66 90                	xchg   ax,ax
  109bf6:	66 90                	xchg   ax,ax
  109bf8:	66 90                	xchg   ax,ax
  109bfa:	66 90                	xchg   ax,ax
  109bfc:	66 90                	xchg   ax,ax
  109bfe:	66 90                	xchg   ax,ax
  109c00:	66 90                	xchg   ax,ax
  109c02:	66 90                	xchg   ax,ax
  109c04:	66 90                	xchg   ax,ax
  109c06:	66 90                	xchg   ax,ax
  109c08:	66 90                	xchg   ax,ax
  109c0a:	66 90                	xchg   ax,ax
  109c0c:	66 90                	xchg   ax,ax
  109c0e:	66 90                	xchg   ax,ax
  109c10:	66 90                	xchg   ax,ax
  109c12:	66 90                	xchg   ax,ax
  109c14:	66 90                	xchg   ax,ax
  109c16:	66 90                	xchg   ax,ax
  109c18:	66 90                	xchg   ax,ax
  109c1a:	66 90                	xchg   ax,ax
  109c1c:	66 90                	xchg   ax,ax
  109c1e:	66 90                	xchg   ax,ax
  109c20:	66 90                	xchg   ax,ax
  109c22:	66 90                	xchg   ax,ax
  109c24:	66 90                	xchg   ax,ax
  109c26:	66 90                	xchg   ax,ax
  109c28:	66 90                	xchg   ax,ax
  109c2a:	66 90                	xchg   ax,ax
  109c2c:	66 90                	xchg   ax,ax
  109c2e:	66 90                	xchg   ax,ax
  109c30:	66 90                	xchg   ax,ax
  109c32:	66 90                	xchg   ax,ax
  109c34:	66 90                	xchg   ax,ax
  109c36:	66 90                	xchg   ax,ax
  109c38:	66 90                	xchg   ax,ax
  109c3a:	66 90                	xchg   ax,ax
  109c3c:	66 90                	xchg   ax,ax
  109c3e:	66 90                	xchg   ax,ax
  109c40:	66 90                	xchg   ax,ax
  109c42:	66 90                	xchg   ax,ax
  109c44:	66 90                	xchg   ax,ax
  109c46:	66 90                	xchg   ax,ax
  109c48:	66 90                	xchg   ax,ax
  109c4a:	66 90                	xchg   ax,ax
  109c4c:	66 90                	xchg   ax,ax
  109c4e:	66 90                	xchg   ax,ax
  109c50:	66 90                	xchg   ax,ax
  109c52:	66 90                	xchg   ax,ax
  109c54:	66 90                	xchg   ax,ax
  109c56:	66 90                	xchg   ax,ax
  109c58:	66 90                	xchg   ax,ax
  109c5a:	66 90                	xchg   ax,ax
  109c5c:	66 90                	xchg   ax,ax
  109c5e:	66 90                	xchg   ax,ax
  109c60:	66 90                	xchg   ax,ax
  109c62:	66 90                	xchg   ax,ax
  109c64:	66 90                	xchg   ax,ax
  109c66:	66 90                	xchg   ax,ax
  109c68:	66 90                	xchg   ax,ax
  109c6a:	66 90                	xchg   ax,ax
  109c6c:	66 90                	xchg   ax,ax
  109c6e:	66 90                	xchg   ax,ax
  109c70:	66 90                	xchg   ax,ax
  109c72:	66 90                	xchg   ax,ax
  109c74:	66 90                	xchg   ax,ax
  109c76:	66 90                	xchg   ax,ax
  109c78:	66 90                	xchg   ax,ax
  109c7a:	66 90                	xchg   ax,ax
  109c7c:	66 90                	xchg   ax,ax
  109c7e:	66 90                	xchg   ax,ax
  109c80:	66 90                	xchg   ax,ax
  109c82:	66 90                	xchg   ax,ax
  109c84:	66 90                	xchg   ax,ax
  109c86:	66 90                	xchg   ax,ax
  109c88:	66 90                	xchg   ax,ax
  109c8a:	66 90                	xchg   ax,ax
  109c8c:	66 90                	xchg   ax,ax
  109c8e:	66 90                	xchg   ax,ax
  109c90:	66 90                	xchg   ax,ax
  109c92:	66 90                	xchg   ax,ax
  109c94:	66 90                	xchg   ax,ax
  109c96:	66 90                	xchg   ax,ax
  109c98:	66 90                	xchg   ax,ax
  109c9a:	66 90                	xchg   ax,ax
  109c9c:	66 90                	xchg   ax,ax
  109c9e:	66 90                	xchg   ax,ax
  109ca0:	66 90                	xchg   ax,ax
  109ca2:	66 90                	xchg   ax,ax
  109ca4:	66 90                	xchg   ax,ax
  109ca6:	66 90                	xchg   ax,ax
  109ca8:	66 90                	xchg   ax,ax
  109caa:	66 90                	xchg   ax,ax
  109cac:	66 90                	xchg   ax,ax
  109cae:	66 90                	xchg   ax,ax
  109cb0:	66 90                	xchg   ax,ax
  109cb2:	66 90                	xchg   ax,ax
  109cb4:	66 90                	xchg   ax,ax
  109cb6:	66 90                	xchg   ax,ax
  109cb8:	66 90                	xchg   ax,ax
  109cba:	66 90                	xchg   ax,ax
  109cbc:	66 90                	xchg   ax,ax
  109cbe:	66 90                	xchg   ax,ax
  109cc0:	66 90                	xchg   ax,ax
  109cc2:	66 90                	xchg   ax,ax
  109cc4:	66 90                	xchg   ax,ax
  109cc6:	66 90                	xchg   ax,ax
  109cc8:	66 90                	xchg   ax,ax
  109cca:	66 90                	xchg   ax,ax
  109ccc:	66 90                	xchg   ax,ax
  109cce:	66 90                	xchg   ax,ax
  109cd0:	66 90                	xchg   ax,ax
  109cd2:	66 90                	xchg   ax,ax
  109cd4:	66 90                	xchg   ax,ax
  109cd6:	66 90                	xchg   ax,ax
  109cd8:	66 90                	xchg   ax,ax
  109cda:	66 90                	xchg   ax,ax
  109cdc:	66 90                	xchg   ax,ax
  109cde:	66 90                	xchg   ax,ax
  109ce0:	66 90                	xchg   ax,ax
  109ce2:	66 90                	xchg   ax,ax
  109ce4:	66 90                	xchg   ax,ax
  109ce6:	66 90                	xchg   ax,ax
  109ce8:	66 90                	xchg   ax,ax
  109cea:	66 90                	xchg   ax,ax
  109cec:	66 90                	xchg   ax,ax
  109cee:	66 90                	xchg   ax,ax
  109cf0:	66 90                	xchg   ax,ax
  109cf2:	66 90                	xchg   ax,ax
  109cf4:	66 90                	xchg   ax,ax
  109cf6:	66 90                	xchg   ax,ax
  109cf8:	66 90                	xchg   ax,ax
  109cfa:	66 90                	xchg   ax,ax
  109cfc:	66 90                	xchg   ax,ax
  109cfe:	66 90                	xchg   ax,ax
  109d00:	66 90                	xchg   ax,ax
  109d02:	66 90                	xchg   ax,ax
  109d04:	66 90                	xchg   ax,ax
  109d06:	66 90                	xchg   ax,ax
  109d08:	66 90                	xchg   ax,ax
  109d0a:	66 90                	xchg   ax,ax
  109d0c:	66 90                	xchg   ax,ax
  109d0e:	66 90                	xchg   ax,ax
  109d10:	66 90                	xchg   ax,ax
  109d12:	66 90                	xchg   ax,ax
  109d14:	66 90                	xchg   ax,ax
  109d16:	66 90                	xchg   ax,ax
  109d18:	66 90                	xchg   ax,ax
  109d1a:	66 90                	xchg   ax,ax
  109d1c:	66 90                	xchg   ax,ax
  109d1e:	66 90                	xchg   ax,ax
  109d20:	66 90                	xchg   ax,ax
  109d22:	66 90                	xchg   ax,ax
  109d24:	66 90                	xchg   ax,ax
  109d26:	66 90                	xchg   ax,ax
  109d28:	66 90                	xchg   ax,ax
  109d2a:	66 90                	xchg   ax,ax
  109d2c:	66 90                	xchg   ax,ax
  109d2e:	66 90                	xchg   ax,ax
  109d30:	66 90                	xchg   ax,ax
  109d32:	66 90                	xchg   ax,ax
  109d34:	66 90                	xchg   ax,ax
  109d36:	66 90                	xchg   ax,ax
  109d38:	66 90                	xchg   ax,ax
  109d3a:	66 90                	xchg   ax,ax
  109d3c:	66 90                	xchg   ax,ax
  109d3e:	66 90                	xchg   ax,ax
  109d40:	66 90                	xchg   ax,ax
  109d42:	66 90                	xchg   ax,ax
  109d44:	66 90                	xchg   ax,ax
  109d46:	66 90                	xchg   ax,ax
  109d48:	66 90                	xchg   ax,ax
  109d4a:	66 90                	xchg   ax,ax
  109d4c:	66 90                	xchg   ax,ax
  109d4e:	66 90                	xchg   ax,ax
  109d50:	66 90                	xchg   ax,ax
  109d52:	66 90                	xchg   ax,ax
  109d54:	66 90                	xchg   ax,ax
  109d56:	66 90                	xchg   ax,ax
  109d58:	66 90                	xchg   ax,ax
  109d5a:	66 90                	xchg   ax,ax
  109d5c:	66 90                	xchg   ax,ax
  109d5e:	66 90                	xchg   ax,ax
  109d60:	66 90                	xchg   ax,ax
  109d62:	66 90                	xchg   ax,ax
  109d64:	66 90                	xchg   ax,ax
  109d66:	66 90                	xchg   ax,ax
  109d68:	66 90                	xchg   ax,ax
  109d6a:	66 90                	xchg   ax,ax
  109d6c:	66 90                	xchg   ax,ax
  109d6e:	66 90                	xchg   ax,ax
  109d70:	66 90                	xchg   ax,ax
  109d72:	66 90                	xchg   ax,ax
  109d74:	66 90                	xchg   ax,ax
  109d76:	66 90                	xchg   ax,ax
  109d78:	66 90                	xchg   ax,ax
  109d7a:	66 90                	xchg   ax,ax
  109d7c:	66 90                	xchg   ax,ax
  109d7e:	66 90                	xchg   ax,ax
  109d80:	66 90                	xchg   ax,ax
  109d82:	66 90                	xchg   ax,ax
  109d84:	66 90                	xchg   ax,ax
  109d86:	66 90                	xchg   ax,ax
  109d88:	66 90                	xchg   ax,ax
  109d8a:	66 90                	xchg   ax,ax
  109d8c:	66 90                	xchg   ax,ax
  109d8e:	66 90                	xchg   ax,ax
  109d90:	66 90                	xchg   ax,ax
  109d92:	66 90                	xchg   ax,ax
  109d94:	66 90                	xchg   ax,ax
  109d96:	66 90                	xchg   ax,ax
  109d98:	66 90                	xchg   ax,ax
  109d9a:	66 90                	xchg   ax,ax
  109d9c:	66 90                	xchg   ax,ax
  109d9e:	66 90                	xchg   ax,ax
  109da0:	66 90                	xchg   ax,ax
  109da2:	66 90                	xchg   ax,ax
  109da4:	66 90                	xchg   ax,ax
  109da6:	66 90                	xchg   ax,ax
  109da8:	66 90                	xchg   ax,ax
  109daa:	66 90                	xchg   ax,ax
  109dac:	66 90                	xchg   ax,ax
  109dae:	66 90                	xchg   ax,ax
  109db0:	66 90                	xchg   ax,ax
  109db2:	66 90                	xchg   ax,ax
  109db4:	66 90                	xchg   ax,ax
  109db6:	66 90                	xchg   ax,ax
  109db8:	66 90                	xchg   ax,ax
  109dba:	66 90                	xchg   ax,ax
  109dbc:	66 90                	xchg   ax,ax
  109dbe:	66 90                	xchg   ax,ax
  109dc0:	66 90                	xchg   ax,ax
  109dc2:	66 90                	xchg   ax,ax
  109dc4:	66 90                	xchg   ax,ax
  109dc6:	66 90                	xchg   ax,ax
  109dc8:	66 90                	xchg   ax,ax
  109dca:	66 90                	xchg   ax,ax
  109dcc:	66 90                	xchg   ax,ax
  109dce:	66 90                	xchg   ax,ax
  109dd0:	66 90                	xchg   ax,ax
  109dd2:	66 90                	xchg   ax,ax
  109dd4:	66 90                	xchg   ax,ax
  109dd6:	66 90                	xchg   ax,ax
  109dd8:	66 90                	xchg   ax,ax
  109dda:	66 90                	xchg   ax,ax
  109ddc:	66 90                	xchg   ax,ax
  109dde:	66 90                	xchg   ax,ax
  109de0:	66 90                	xchg   ax,ax
  109de2:	66 90                	xchg   ax,ax
  109de4:	66 90                	xchg   ax,ax
  109de6:	66 90                	xchg   ax,ax
  109de8:	66 90                	xchg   ax,ax
  109dea:	66 90                	xchg   ax,ax
  109dec:	66 90                	xchg   ax,ax
  109dee:	66 90                	xchg   ax,ax
  109df0:	66 90                	xchg   ax,ax
  109df2:	66 90                	xchg   ax,ax
  109df4:	66 90                	xchg   ax,ax
  109df6:	66 90                	xchg   ax,ax
  109df8:	66 90                	xchg   ax,ax
  109dfa:	66 90                	xchg   ax,ax
  109dfc:	66 90                	xchg   ax,ax
  109dfe:	66 90                	xchg   ax,ax
  109e00:	66 90                	xchg   ax,ax
  109e02:	66 90                	xchg   ax,ax
  109e04:	66 90                	xchg   ax,ax
  109e06:	66 90                	xchg   ax,ax
  109e08:	66 90                	xchg   ax,ax
  109e0a:	66 90                	xchg   ax,ax
  109e0c:	66 90                	xchg   ax,ax
  109e0e:	66 90                	xchg   ax,ax
  109e10:	66 90                	xchg   ax,ax
  109e12:	66 90                	xchg   ax,ax
  109e14:	66 90                	xchg   ax,ax
  109e16:	66 90                	xchg   ax,ax
  109e18:	66 90                	xchg   ax,ax
  109e1a:	66 90                	xchg   ax,ax
  109e1c:	66 90                	xchg   ax,ax
  109e1e:	66 90                	xchg   ax,ax
  109e20:	66 90                	xchg   ax,ax
  109e22:	66 90                	xchg   ax,ax
  109e24:	66 90                	xchg   ax,ax
  109e26:	66 90                	xchg   ax,ax
  109e28:	66 90                	xchg   ax,ax
  109e2a:	66 90                	xchg   ax,ax
  109e2c:	66 90                	xchg   ax,ax
  109e2e:	66 90                	xchg   ax,ax
  109e30:	66 90                	xchg   ax,ax
  109e32:	66 90                	xchg   ax,ax
  109e34:	66 90                	xchg   ax,ax
  109e36:	66 90                	xchg   ax,ax
  109e38:	66 90                	xchg   ax,ax
  109e3a:	66 90                	xchg   ax,ax
  109e3c:	66 90                	xchg   ax,ax
  109e3e:	66 90                	xchg   ax,ax
  109e40:	66 90                	xchg   ax,ax
  109e42:	66 90                	xchg   ax,ax
  109e44:	66 90                	xchg   ax,ax
  109e46:	66 90                	xchg   ax,ax
  109e48:	66 90                	xchg   ax,ax
  109e4a:	66 90                	xchg   ax,ax
  109e4c:	66 90                	xchg   ax,ax
  109e4e:	66 90                	xchg   ax,ax
  109e50:	66 90                	xchg   ax,ax
  109e52:	66 90                	xchg   ax,ax
  109e54:	66 90                	xchg   ax,ax
  109e56:	66 90                	xchg   ax,ax
  109e58:	66 90                	xchg   ax,ax
  109e5a:	66 90                	xchg   ax,ax
  109e5c:	66 90                	xchg   ax,ax
  109e5e:	66 90                	xchg   ax,ax
  109e60:	66 90                	xchg   ax,ax
  109e62:	66 90                	xchg   ax,ax
  109e64:	66 90                	xchg   ax,ax
  109e66:	66 90                	xchg   ax,ax
  109e68:	66 90                	xchg   ax,ax
  109e6a:	66 90                	xchg   ax,ax
  109e6c:	66 90                	xchg   ax,ax
  109e6e:	66 90                	xchg   ax,ax
  109e70:	66 90                	xchg   ax,ax
  109e72:	66 90                	xchg   ax,ax
  109e74:	66 90                	xchg   ax,ax
  109e76:	66 90                	xchg   ax,ax
  109e78:	66 90                	xchg   ax,ax
  109e7a:	66 90                	xchg   ax,ax
  109e7c:	66 90                	xchg   ax,ax
  109e7e:	66 90                	xchg   ax,ax
  109e80:	66 90                	xchg   ax,ax
  109e82:	66 90                	xchg   ax,ax
  109e84:	66 90                	xchg   ax,ax
  109e86:	66 90                	xchg   ax,ax
  109e88:	66 90                	xchg   ax,ax
  109e8a:	66 90                	xchg   ax,ax
  109e8c:	66 90                	xchg   ax,ax
  109e8e:	66 90                	xchg   ax,ax
  109e90:	66 90                	xchg   ax,ax
  109e92:	66 90                	xchg   ax,ax
  109e94:	66 90                	xchg   ax,ax
  109e96:	66 90                	xchg   ax,ax
  109e98:	66 90                	xchg   ax,ax
  109e9a:	66 90                	xchg   ax,ax
  109e9c:	66 90                	xchg   ax,ax
  109e9e:	66 90                	xchg   ax,ax
  109ea0:	66 90                	xchg   ax,ax
  109ea2:	66 90                	xchg   ax,ax
  109ea4:	66 90                	xchg   ax,ax
  109ea6:	66 90                	xchg   ax,ax
  109ea8:	66 90                	xchg   ax,ax
  109eaa:	66 90                	xchg   ax,ax
  109eac:	66 90                	xchg   ax,ax
  109eae:	66 90                	xchg   ax,ax
  109eb0:	66 90                	xchg   ax,ax
  109eb2:	66 90                	xchg   ax,ax
  109eb4:	66 90                	xchg   ax,ax
  109eb6:	66 90                	xchg   ax,ax
  109eb8:	66 90                	xchg   ax,ax
  109eba:	66 90                	xchg   ax,ax
  109ebc:	66 90                	xchg   ax,ax
  109ebe:	66 90                	xchg   ax,ax
  109ec0:	66 90                	xchg   ax,ax
  109ec2:	66 90                	xchg   ax,ax
  109ec4:	66 90                	xchg   ax,ax
  109ec6:	66 90                	xchg   ax,ax
  109ec8:	66 90                	xchg   ax,ax
  109eca:	66 90                	xchg   ax,ax
  109ecc:	66 90                	xchg   ax,ax
  109ece:	66 90                	xchg   ax,ax
  109ed0:	66 90                	xchg   ax,ax
  109ed2:	66 90                	xchg   ax,ax
  109ed4:	66 90                	xchg   ax,ax
  109ed6:	66 90                	xchg   ax,ax
  109ed8:	66 90                	xchg   ax,ax
  109eda:	66 90                	xchg   ax,ax
  109edc:	66 90                	xchg   ax,ax
  109ede:	66 90                	xchg   ax,ax
  109ee0:	66 90                	xchg   ax,ax
  109ee2:	66 90                	xchg   ax,ax
  109ee4:	66 90                	xchg   ax,ax
  109ee6:	66 90                	xchg   ax,ax
  109ee8:	66 90                	xchg   ax,ax
  109eea:	66 90                	xchg   ax,ax
  109eec:	66 90                	xchg   ax,ax
  109eee:	66 90                	xchg   ax,ax
  109ef0:	66 90                	xchg   ax,ax
  109ef2:	66 90                	xchg   ax,ax
  109ef4:	66 90                	xchg   ax,ax
  109ef6:	66 90                	xchg   ax,ax
  109ef8:	66 90                	xchg   ax,ax
  109efa:	66 90                	xchg   ax,ax
  109efc:	66 90                	xchg   ax,ax
  109efe:	66 90                	xchg   ax,ax
  109f00:	66 90                	xchg   ax,ax
  109f02:	66 90                	xchg   ax,ax
  109f04:	66 90                	xchg   ax,ax
  109f06:	66 90                	xchg   ax,ax
  109f08:	66 90                	xchg   ax,ax
  109f0a:	66 90                	xchg   ax,ax
  109f0c:	66 90                	xchg   ax,ax
  109f0e:	66 90                	xchg   ax,ax
  109f10:	66 90                	xchg   ax,ax
  109f12:	66 90                	xchg   ax,ax
  109f14:	66 90                	xchg   ax,ax
  109f16:	66 90                	xchg   ax,ax
  109f18:	66 90                	xchg   ax,ax
  109f1a:	66 90                	xchg   ax,ax
  109f1c:	66 90                	xchg   ax,ax
  109f1e:	66 90                	xchg   ax,ax
  109f20:	66 90                	xchg   ax,ax
  109f22:	66 90                	xchg   ax,ax
  109f24:	66 90                	xchg   ax,ax
  109f26:	66 90                	xchg   ax,ax
  109f28:	66 90                	xchg   ax,ax
  109f2a:	66 90                	xchg   ax,ax
  109f2c:	66 90                	xchg   ax,ax
  109f2e:	66 90                	xchg   ax,ax
  109f30:	66 90                	xchg   ax,ax
  109f32:	66 90                	xchg   ax,ax
  109f34:	66 90                	xchg   ax,ax
  109f36:	66 90                	xchg   ax,ax
  109f38:	66 90                	xchg   ax,ax
  109f3a:	66 90                	xchg   ax,ax
  109f3c:	66 90                	xchg   ax,ax
  109f3e:	66 90                	xchg   ax,ax
  109f40:	66 90                	xchg   ax,ax
  109f42:	66 90                	xchg   ax,ax
  109f44:	66 90                	xchg   ax,ax
  109f46:	66 90                	xchg   ax,ax
  109f48:	66 90                	xchg   ax,ax
  109f4a:	66 90                	xchg   ax,ax
  109f4c:	66 90                	xchg   ax,ax
  109f4e:	66 90                	xchg   ax,ax
  109f50:	66 90                	xchg   ax,ax
  109f52:	66 90                	xchg   ax,ax
  109f54:	66 90                	xchg   ax,ax
  109f56:	66 90                	xchg   ax,ax
  109f58:	66 90                	xchg   ax,ax
  109f5a:	66 90                	xchg   ax,ax
  109f5c:	66 90                	xchg   ax,ax
  109f5e:	66 90                	xchg   ax,ax
  109f60:	66 90                	xchg   ax,ax
  109f62:	66 90                	xchg   ax,ax
  109f64:	66 90                	xchg   ax,ax
  109f66:	66 90                	xchg   ax,ax
  109f68:	66 90                	xchg   ax,ax
  109f6a:	66 90                	xchg   ax,ax
  109f6c:	66 90                	xchg   ax,ax
  109f6e:	66 90                	xchg   ax,ax
  109f70:	66 90                	xchg   ax,ax
  109f72:	66 90                	xchg   ax,ax
  109f74:	66 90                	xchg   ax,ax
  109f76:	66 90                	xchg   ax,ax
  109f78:	66 90                	xchg   ax,ax
  109f7a:	66 90                	xchg   ax,ax
  109f7c:	66 90                	xchg   ax,ax
  109f7e:	66 90                	xchg   ax,ax
  109f80:	66 90                	xchg   ax,ax
  109f82:	66 90                	xchg   ax,ax
  109f84:	66 90                	xchg   ax,ax
  109f86:	66 90                	xchg   ax,ax
  109f88:	66 90                	xchg   ax,ax
  109f8a:	66 90                	xchg   ax,ax
  109f8c:	66 90                	xchg   ax,ax
  109f8e:	66 90                	xchg   ax,ax
  109f90:	66 90                	xchg   ax,ax
  109f92:	66 90                	xchg   ax,ax
  109f94:	66 90                	xchg   ax,ax
  109f96:	66 90                	xchg   ax,ax
  109f98:	66 90                	xchg   ax,ax
  109f9a:	66 90                	xchg   ax,ax
  109f9c:	66 90                	xchg   ax,ax
  109f9e:	66 90                	xchg   ax,ax
  109fa0:	66 90                	xchg   ax,ax
  109fa2:	66 90                	xchg   ax,ax
  109fa4:	66 90                	xchg   ax,ax
  109fa6:	66 90                	xchg   ax,ax
  109fa8:	66 90                	xchg   ax,ax
  109faa:	66 90                	xchg   ax,ax
  109fac:	66 90                	xchg   ax,ax
  109fae:	66 90                	xchg   ax,ax
  109fb0:	66 90                	xchg   ax,ax
  109fb2:	66 90                	xchg   ax,ax
  109fb4:	66 90                	xchg   ax,ax
  109fb6:	66 90                	xchg   ax,ax
  109fb8:	66 90                	xchg   ax,ax
  109fba:	66 90                	xchg   ax,ax
  109fbc:	66 90                	xchg   ax,ax
  109fbe:	66 90                	xchg   ax,ax
  109fc0:	66 90                	xchg   ax,ax
  109fc2:	66 90                	xchg   ax,ax
  109fc4:	66 90                	xchg   ax,ax
  109fc6:	66 90                	xchg   ax,ax
  109fc8:	66 90                	xchg   ax,ax
  109fca:	66 90                	xchg   ax,ax
  109fcc:	66 90                	xchg   ax,ax
  109fce:	66 90                	xchg   ax,ax
  109fd0:	66 90                	xchg   ax,ax
  109fd2:	66 90                	xchg   ax,ax
  109fd4:	66 90                	xchg   ax,ax
  109fd6:	66 90                	xchg   ax,ax
  109fd8:	66 90                	xchg   ax,ax
  109fda:	66 90                	xchg   ax,ax
  109fdc:	66 90                	xchg   ax,ax
  109fde:	66 90                	xchg   ax,ax
  109fe0:	66 90                	xchg   ax,ax
  109fe2:	66 90                	xchg   ax,ax
  109fe4:	66 90                	xchg   ax,ax
  109fe6:	66 90                	xchg   ax,ax
  109fe8:	66 90                	xchg   ax,ax
  109fea:	66 90                	xchg   ax,ax
  109fec:	66 90                	xchg   ax,ax
  109fee:	66 90                	xchg   ax,ax
  109ff0:	66 90                	xchg   ax,ax
  109ff2:	66 90                	xchg   ax,ax
  109ff4:	66 90                	xchg   ax,ax
  109ff6:	66 90                	xchg   ax,ax
  109ff8:	66 90                	xchg   ax,ax
  109ffa:	66 90                	xchg   ax,ax
  109ffc:	66 90                	xchg   ax,ax
  109ffe:	66 90                	xchg   ax,ax
